(dp1
S'Linli Xu'
p2
I1
sS'Min-Je Choi'
p3
I1
sS'Ashish Kulkarni'
p4
I1
sS'Shane Bergsma'
p5
I2
sS'Alina Beygelzimer'
p6
I1
sS'Richard L. Lewis'
p7
I2
sS'Peggy L. Peissig'
p8
I1
sS'Katja Hofmann'
p9
I1
sS'Shai Shalev-Shwartz'
p10
I1
sS'Te Pi'
p11
I2
sS'James Parker'
p12
I1
sS'Yikang Shen'
p13
I1
sS'Simon Mackenzie'
p14
I1
sS'Lijun Zhang'
p15
I2
sS'Zhaoyi Zhang'
p16
I1
sS'Sandra Zilles'
p17
I3
sS'Artur Czumaj'
p18
I1
sS'Marc R. C. van Dongen'
p19
I1
sS'Ilya Shpitser'
p20
I1
sS'Richard Nock'
p21
I2
sS'Zohreh Shams'
p22
I2
sS'Jochen Schmidt'
p23
I1
sS'Kuniaki Uehara'
p24
I1
sS'Elsa D. Angelini'
p25
I1
sS'Yuxiang Wu'
p26
I1
sS'Ipke Wachsmuth'
p27
I1
sS'Sarah M. Erfani'
p28
I1
sS'Youssef Ahres'
p29
I1
sS'Junbo Zhang'
p30
I1
sS'Takuya Akiba'
p31
I1
sS'Deli Zhao'
p32
I3
sS'Jun Xiao 0001'
p33
I3
sS'Ruochun Jin'
p34
I1
sS'Ming Yang'
p35
I1
sS'Yan Liu 0002'
p36
I3
sS'Yang Li'
p37
I2
sS'Xiangru Lian'
p38
I1
sS'Chaoyi Wang'
p39
I1
sS'Wei Wu'
p40
I2
sS'Xinyu Dai'
p41
I2
sS'Lex Fridman'
p42
I1
sS'Hongyu Zhang'
p43
I1
sS'Nguyen Ha Vo'
p44
I1
sS'Rongju Sun'
p45
I1
sS'Lucas Langer'
p46
I1
sS'Baudouin Le Charlier'
p47
I1
sS'Hector J. Levesque'
p48
I9
sS'Weiming Hu'
p49
I2
sS'Liangliang Cao'
p50
I2
sS'J\xc3\xa9r\xc3\xa9mie Vautard'
p51
I1
sS'Petr Kosina'
p52
I1
sS'Petar Iliev'
p53
I1
sS'Alejandro Agostini'
p54
I2
sS'Tomasz Pawel Michalak'
p55
I1
sS'V\xc3\xadctor S\xc3\xa1nchez-Anguix'
p56
I1
sS'Yu Lu 0003'
p57
I1
sS'Alberto Su\xc3\xa1rez'
p58
I2
sS'Luis Fari\xc3\xb1as del Cerro'
p59
I2
sS'Yu Cheng'
p60
I1
sS'Juan Ignacio Navarro-Hor\xc3\xb1iacek'
p61
I1
sS'Vikas Sindhwani'
p62
I2
sS'Jason Naradowsky'
p63
I1
sS'David Peleg'
p64
I1
sS'Frank Nielsen'
p65
I2
sS'Ji Wang'
p66
I2
sS'Chang Hong Liu'
p67
I1
sS'Soma Biswas'
p68
I1
sS'Xiaoyan Zhu'
p69
I7
sS'Luc De Raedt'
p70
I12
sS'Arnold P. Boedihardjo'
p71
I2
sS'Hedda Rahel Schmidtke'
p72
I1
sS'Ehsan Shareghi'
p73
I1
sS'Xingyi Zhou'
p74
I1
sS'Jeff Pasternack'
p75
I1
sS'Simona Colucci'
p76
I1
sS'Bingsheng Wang'
p77
I1
sS'Dayou Liu'
p78
I2
sS'Jo\xc3\xa3o Marques-Silva'
p79
I5
sS'Yuichiro Yonebayashi'
p80
I1
sS'Hisashi Kashima'
p81
I2
sS'Krzysztof Czarnecki'
p82
I1
sS'Suriya Singh'
p83
I1
sS'Bo Liu 0006'
p84
I1
sS'Patrick Dubbert'
p85
I1
sS'Bo Liu 0005'
p86
I1
sS'Bo Liu 0002'
p87
I1
sS'Qi Tian'
p88
I1
sS'Yixin Sun'
p89
I1
sS'Marc Cavazza'
p90
I3
sS'Yuto Yamaguchi'
p91
I2
sS'Carlos Menc\xc3\xada'
p92
I1
sS'Omer Geiger'
p93
I1
sS'Max Ostrowski'
p94
I1
sS'Mihai Codescu'
p95
I1
sS'Colin R. Williams'
p96
I1
sS'Dimitris Plexousakis'
p97
I1
sS'Raghavendra Udupa'
p98
I1
sS'Krzysztof R. Apt'
p99
I1
sS'Jun Matsuno'
p100
I1
sS'Nicolas Beldiceanu'
p101
I1
sS'Junsheng Zhou'
p102
I1
sS'Jun Gao'
p103
I2
sS'Tobias Kaminski'
p104
I3
sS'Yifan Yang'
p105
I1
sS'Bo Du'
p106
I2
sS'Sophie Tourret'
p107
I1
sS'Jingjing Meng'
p108
I1
sS'Sergio Jim\xc3\xa9nez Celorrio'
p109
I3
sS'Odile Papini'
p110
I1
sS'Lei Cen'
p111
I2
sS'Rui Zhang'
p112
I1
sS'Cristian Ruz'
p113
I1
sS'Subbarao Kambhampati'
p114
I10
sS'Prem Melville'
p115
I1
sS'Sabina Tomkins'
p116
I1
sS'Loukas Georgiou'
p117
I1
sS'Chiaki Sakama'
p118
I3
sS'Martin Slota'
p119
I1
sS'Sergey Levine'
p120
I1
sS'Shaofei Chen'
p121
I1
sS'Arthur Choi'
p122
I2
sS'Jingwei Chen'
p123
I2
sS'Fillia Makedon'
p124
I1
sS'James T. Kwok'
p125
I9
sS'Ricardo de Aldama'
p126
I1
sS'Sheng-Jun Huang'
p127
I4
sS'Laura Giordano 0001'
p128
I1
sS'Lane A. Hemaspaandra'
p129
I4
sS'Zhongyang Xiong'
p130
I1
sS'Noam Hazon'
p131
I4
sS'Nicolas Schmidt'
p132
I1
sS'Yuri Malitsky'
p133
I3
sS'Antje Schultz'
p134
I1
sS'Lu\xc3\xads Torgo'
p135
I1
sS'David Fern\xc3\xa1ndez-Duque'
p136
I1
sS'Dawei Zhang'
p137
I1
sS'Nidhi Raj'
p138
I1
sS'Doina Tilivea'
p139
I1
sS'Tamir Tassa'
p140
I2
sS'James Allan'
p141
I2
sS'Wonsung Lee'
p142
I1
sS'Manish Jain'
p143
I2
sS'Zhiyuan Chen 0001'
p144
I1
sS'Katsuyuki Tanaka'
p145
I1
sS'Shie Mannor'
p146
I2
sS'Lu Wang'
p147
I1
sS'Chunheng Wang'
p148
I1
sS'Shu Wu'
p149
I1
sS'Tsung-Chieh Chang'
p150
I1
sS'Eneko Agirre'
p151
I1
sS'Meiping Dong'
p152
I1
sS'Igor Braga'
p153
I1
sS'Ting Chen'
p154
I2
sS'Fei Wu 0004'
p155
I3
sS'Fei Wu 0003'
p156
I1
sS'Bruno Zanuttini'
p157
I6
sS'Fei Wu 0001'
p158
I5
sS'Hieu-Chi Dam'
p159
I1
sS'Jie Zhang 0002'
p160
I4
sS'Ioannis Caragiannis'
p161
I7
sS'Yanghao Li'
p162
I1
sS'Barbara J. Grosz'
p163
I2
sS'Zhen-Hua Ling'
p164
I2
sS'Jiebo Luo'
p165
I1
sS'Ling Chen'
p166
I2
sS'Sam Buss'
p167
I1
sS'Martin Ester'
p168
I1
sS'Nabil Laya\xc3\xafda'
p169
I2
sS'Marcos Cramer'
p170
I1
sS'Alex Nash'
p171
I1
sS'Zhiqiang Gao'
p172
I1
sS'Yves Lesp\xc3\xa9rance'
p173
I3
sS'Guillaume Deffuant'
p174
I1
sS'Mingsheng Shang'
p175
I1
sS'Mikol\xc3\xa1s Janota'
p176
I3
sS'Amos Azaria'
p177
I2
sS'Sara J. Casare'
p178
I1
sS'Dieter Fox'
p179
I6
sS'Stefan Gursk\xc3\xbd'
p180
I1
sS'Sophie Martin'
p181
I1
sS'Zhongfei (Mark) Zhang'
p182
I2
sS'Minghao Yin'
p183
I2
sS'Tal Beja'
p184
I1
sS'Liang Wang 0001'
p185
I1
sS'Nick Gravin'
p186
I1
sS'Dimitri Marinakis'
p187
I1
sS'Weishan Dong'
p188
I2
sS'Rong Jin'
p189
I2
sS'Megan M. Olsen'
p190
I1
sS'Gautier Marti'
p191
I1
sS'AnneMarie Maes'
p192
I1
sS'Laurent Perrussel'
p193
I3
sS'Alkis Gotovos'
p194
I2
sS'Bin Li'
p195
I7
sS'Toby O. Davies'
p196
I1
sS'Ya Li'
p197
I2
sS'David Carral'
p198
I2
sS'Baochang Zhang'
p199
I1
sS'Ana Paiva'
p200
I1
sS'Meng Fang'
p201
I1
sS'Anna Lukina'
p202
I1
sS'Junfeng Yao'
p203
I1
sS'Gerwin Schalk'
p204
I1
sS'Michael Kueppers'
p205
I1
sS'Ashish Gupta 0005'
p206
I1
sS'Alon Altman'
p207
I3
sS'Jeffrey M. Dudek'
p208
I2
sS'Hui Xue'
p209
I1
sS'Yeow Meng Chee'
p210
I1
sS'Yong-Deok Kim'
p211
I1
sS'Ian Miguel'
p212
I2
sS'Shen-Shyang Ho'
p213
I1
sS'Ely Porat'
p214
I1
sS'Ji Liu'
p215
I1
sS'Yulong Pei'
p216
I2
sS'Branislav Kveton'
p217
I3
sS'Suicheng Gu'
p218
I1
sS'Massimo Poesio'
p219
I1
sS'Ankit Anand'
p220
I4
sS'Junwen Duan'
p221
I1
sS'Iftekhar Naim'
p222
I1
sS'Richard Tzong-Han Tsai'
p223
I1
sS'Rodrigo de Salvo Braz'
p224
I1
sS'Apichon Witayangkurn'
p225
I1
sS'Chi-kiu Lo'
p226
I1
sS'Shuiwang Ji'
p227
I3
sS'Mohammad Abdelaziz Gowayyed'
p228
I2
sS'Cheng Chen 0002'
p229
I1
sS'Jialin Zhang'
p230
I1
sS'Fan Zhou'
p231
I1
sS'Umut Oztok'
p232
I1
sS"Ya'akov (Kobi) Gal"
p233
I5
sS'Matthew Michelson'
p234
I1
sS'Yun Kuen Cheung'
p235
I1
sS'Fausto Giunchiglia'
p236
I1
sS'Shai Ben-David'
p237
I1
sS'Bin Wang 0004'
p238
I1
sS'Hanmo Wang'
p239
I3
sS'Julien Filion'
p240
I1
sS'K. Sel\xc3\xa7uk Candan'
p241
I1
sS'Anne-Marie Lagrange'
p242
I1
sS'Llu\xc3\xads Formiga'
p243
I1
sS'Aditya Mittal'
p244
I1
sS'Haiyang Wu'
p245
I1
sS'Nima Taghipour'
p246
I1
sS'Chang Wang 0001'
p247
I7
sS'Zhengzheng Xing'
p248
I1
sS'Bo Yang 0002'
p249
I1
sS'Mohammed E. Fathy'
p250
I1
sS'Fahiem Bacchus'
p251
I6
sS'Safa Yahi'
p252
I1
sS'Takahiro Shiga'
p253
I1
sS'Noah Dunstatter'
p254
I1
sS'Michael P. Wellman'
p255
I3
sS'Pedro M. Domingos'
p256
I2
sS'Pooria Joulani'
p257
I1
sS'Ugur Kuter'
p258
I3
sS'Liangda Fang'
p259
I4
sS'Raghudeep Gadde'
p260
I1
sS'Bernhard Ganter'
p261
I1
sS'Wei Song'
p262
I1
sS'Spyridon Samothrakis'
p263
I1
sS'Tomoe Kitahara'
p264
I1
sS'Shizhong Liao'
p265
I1
sS'Quan Yuan'
p266
I3
sS'Jonathan Dinerstein'
p267
I1
sS'Chuncheng Xiang'
p268
I1
sS'Jinhong Zhong'
p269
I1
sS'Wei Zhang 0056'
p270
I3
sS'Xiuqiang He'
p271
I1
sS'S\xc3\xa9bastien Picault'
p272
I2
sS'Kenji Araki'
p273
I2
sS'Ying Wei'
p274
I2
sS'Laurence White'
p275
I1
sS'Yong Li'
p276
I4
sS'Chunhua Tian'
p277
I1
sS'Diane J. Cook'
p278
I1
sS'Wen Gao 0001'
p279
I4
sS'Diedrich Wolter'
p280
I2
sS'John D. Kelleher'
p281
I1
sS'Vadim Levit'
p282
I1
sS'Qingfu Wan'
p283
I1
sS'Eric P. Xing'
p284
I5
sS'Nicolas Troquard'
p285
I2
sS'Masashi Sugiyama'
p286
I2
sS'Lihi Naamani Dery'
p287
I1
sS'Julian McAuley'
p288
I2
sS'Yash Satsangi'
p289
I1
sS'Florian Jamain'
p290
I1
sS'Yusheng Xie'
p291
I2
sS'Philippe J\xc3\xa9gou'
p292
I1
sS'Sourav Dutta'
p293
I1
sS'Trevor Cohn'
p294
I2
sS'Hongxia Jin'
p295
I1
sS'Prasenjit Mitra'
p296
I4
sS'Jun Zhou'
p297
I1
sS'Vivek Sundararaman'
p298
I1
sS'Atsushi Iwasaki'
p299
I4
sS'Philippe Mathieu'
p300
I1
sS'Jan Ramon'
p301
I2
sS'Felix Brandt 0001'
p302
I7
sS'Jason St. Jacques'
p303
I1
sS'Thorsten Liebig'
p304
I1
sS'Zimin Guo'
p305
I1
sS'Xingyuan Peng'
p306
I1
sS'Stephen Gould'
p307
I2
sS'Adam Sadilek'
p308
I2
sS'Spyros Kotoulas'
p309
I1
sS'Mark Dredze'
p310
I1
sS'Yifan Zhang 0001'
p311
I2
sS'Tianshi Chen'
p312
I1
sS'Christoph Benzm\xc3\xbcller'
p313
I1
sS'Mohammed Bennamoun'
p314
I1
sS'Upali Sathyajith Kohomban'
p315
I1
sS'Zhoujun Li'
p316
I1
sS'Lucas Agussurja'
p317
I1
sS'Rene Quiniou'
p318
I1
sS'Jon Conrad'
p319
I1
sS'Bernard Colin'
p320
I1
sS'Wayne Xin Zhao'
p321
I2
sS'Jiajun Bu'
p322
I2
sS'Michael S. Bernstein'
p323
I1
sS'Sylvie Coste-Marquis'
p324
I1
sS'Marco Console'
p325
I1
sS'Mitsuru Ishizuka'
p326
I4
sS'Donald Metzler'
p327
I1
sS'Song Zuo'
p328
I2
sS'Jeonghee Kim'
p329
I1
sS'Augusto Pucci'
p330
I1
sS'Changhe Yuan'
p331
I4
sS'Brian D. Ziebart'
p332
I2
sS'S\xc3\xa1ndor Szedm\xc3\xa1k'
p333
I1
sS'Ana L. C. Bazzan'
p334
I1
sS'Michel Lema\xc3\xaetre'
p335
I1
sS'Maria Dagioglou'
p336
I1
sS'Katherine Davison'
p337
I1
sS'Chiranjib Bhattacharyya'
p338
I1
sS'Saket Saurabh 0001'
p339
I1
sS'Jian-Tao Sun'
p340
I3
sS'Francesco Scarcello'
p341
I6
sS'Pei Yang'
p342
I1
sS'James Boerkoel'
p343
I1
sS'Jianling Sun'
p344
I1
sS'Pengfei Liu'
p345
I4
sS'Ji Wan'
p346
I1
sS'Clement Shi Qi Ong'
p347
I1
sS'Michael Vanden Boom'
p348
I1
sS'Rafael C. Carrasco'
p349
I1
sS'Francisco Azuaje'
p350
I1
sS'Yong Dou'
p351
I4
sS'Joel W. Burdick'
p352
I1
sS'Justine Cassell'
p353
I1
sS'James Kirk'
p354
I1
sS'Guangyou Zhou'
p355
I3
sS'Yi Chen'
p356
I1
sS'Jia Li'
p357
I2
sS'Paul Weng'
p358
I3
sS'Lu\xc3\xads C. Lamb'
p359
I4
sS'Matthew David Luciw'
p360
I1
sS'Tenda Okimoto'
p361
I1
sS'Tetsuro Morimura'
p362
I1
sS'Yuan Gao'
p363
I1
sS'Zack Fitzsimmons'
p364
I1
sS'Cho-Jui Hsieh'
p365
I2
sS'Wenge Rong'
p366
I1
sS'Gang Sun'
p367
I1
sS'Jie Yin'
p368
I5
sS'Changde Du'
p369
I1
sS'Quentin Cohen-Solal'
p370
I2
sS'Hongteng Xu'
p371
I2
sS'Felipe Meneguzzi'
p372
I1
sS'Nicola Olivetti'
p373
I1
sS'David G. Mitchell'
p374
I1
sS'Raz Lin'
p375
I1
sS'Ashutosh Saxena'
p376
I3
sS'Miguel A. Mart\xc3\xadnez-Prieto'
p377
I1
sS'Enrico H. Gerding'
p378
I9
sS'Kristen Brent Venable'
p379
I4
sS'Guansong Pang'
p380
I3
sS'Sanli Ma'
p381
I1
sS'Susanne Biundo'
p382
I2
sS'Xin Li 0033'
p383
I3
sS'Bing Qin'
p384
I5
sS'Daniel D. Lee'
p385
I1
sS'Dawei Yin'
p386
I1
sS'Debbrata K. Saha'
p387
I1
sS'Chao Gao'
p388
I1
sS'Efthymia Tsamoura'
p389
I1
sS'Tuan M. V. Le'
p390
I2
sS'Bing Li'
p391
I1
sS'Elena Botoeva'
p392
I3
sS'Yilin Kang'
p393
I1
sS'Jacques Wainer'
p394
I1
sS'Dana Porter'
p395
I1
sS'Masao Utiyama'
p396
I2
sS'Michael Jakl'
p397
I1
sS'Pirooz Chubak'
p398
I1
sS'Robert John Winder'
p399
I2
sS'Romain Reuillon'
p400
I1
sS'Takuya Kida'
p401
I1
sS'Lei Tang'
p402
I1
sS'Xin Yin'
p403
I1
sS'Rajhans Samdani'
p404
I1
sS'Larry H. Matthies'
p405
I1
sS'Enrique Munoz de Cote'
p406
I1
sS'Yunzhi Tan'
p407
I2
sS'Hein Meling'
p408
I1
sS'Rami Puzis'
p409
I1
sS'Feng Wang'
p410
I1
sS'Hong-Bin Dai'
p411
I1
sS'Seungjin Choi'
p412
I3
sS'Marius Pasca'
p413
I2
sS'Daniel Golovin'
p414
I1
sS'Dana L. Penney'
p415
I1
sS'Andrej Muhic'
p416
I1
sS'Deng Cai'
p417
I16
sS'Junlong Zhou'
p418
I1
sS'Yachiko Obara'
p419
I1
sS'Min-Ling Zhang'
p420
I4
sS'Thomas Leo McCluskey'
p421
I4
sS'Feng Chen 0001'
p422
I2
sS'Tomas L\xc3\xb6\xc3\xb6w'
p423
I1
sS'Nils Bore'
p424
I1
sS'Weiguang Qu'
p425
I1
sS'Majid Yazdani'
p426
I1
sS'Peter Englert'
p427
I1
sS'Robert Bredereck'
p428
I5
sS'Marenglen Biba'
p429
I1
sS'Hong Liu'
p430
I3
sS'Eva Onaindia'
p431
I1
sS'Junguo Zhu'
p432
I1
sS'Grigoris Antoniou'
p433
I1
sS'Qun Liu'
p434
I4
sS'Qixin Wang'
p435
I1
sS'Grant E. Weddell'
p436
I4
sS'Sheng Zhang'
p437
I1
sS'Huajun Chen'
p438
I1
sS'Peta Masters'
p439
I1
sS'Xiaodi Hou'
p440
I1
sS'Madison Clark-Turner'
p441
I1
sS'Alexander Skopalik'
p442
I2
sS'Mario Lucic'
p443
I1
sS'Junru Wu'
p444
I1
sS'Yongkang Wong'
p445
I1
sS'Valentin Mayer-Eichberger'
p446
I1
sS'Li Shen'
p447
I1
sS'Piergiorgio Bertoli'
p448
I1
sS'Weiwei Sun'
p449
I1
sS'Craig A. Knoblock'
p450
I5
sS'Ganbin Zhou'
p451
I1
sS'Nadjib Lazaar'
p452
I3
sS'Seth Lemons'
p453
I1
sS'Marc Hanheide'
p454
I1
sS'Georgios Methenitis'
p455
I1
sS'Yu Chen'
p456
I2
sS'Sophie Pinchinat'
p457
I1
sS'Shabbir Ahmed'
p458
I1
sS'Yu-Shiang Wong'
p459
I1
sS'Zhang Yi'
p460
I1
sS'Claire Vallat'
p461
I1
sS'Matthai Philipose'
p462
I1
sS'Huan-Bo Luan'
p463
I2
sS'Yulan He'
p464
I3
sS'Yi Yang'
p465
I10
sS'Li Chen 0009'
p466
I1
sS'Tao Dai'
p467
I2
sS'Daniel Ellis Holman'
p468
I1
sS'John Thornton'
p469
I1
sS'Chris Pal'
p470
I1
sS'Ruohan Zhang'
p471
I2
sS'Zhanglin Peng'
p472
I1
sS'Keith Grochow'
p473
I1
sS'Irwin King'
p474
I7
sS'Heng Huang'
p475
I19
sS'Hongyu Guo'
p476
I1
sS'Yun Zhou 0002'
p477
I1
sS'Yun Zhou 0001'
p478
I1
sS'Haifeng Xu'
p479
I4
sS'Riccardo Sartea'
p480
I1
sS'Paul Wild'
p481
I1
sS'Liping Xiong'
p482
I1
sS'Laura M. Hiatt'
p483
I2
sS'Jun Yu'
p484
I1
sS'Baocai Yin'
p485
I1
sS'Pengcheng Wang'
p486
I1
sS'Nan Yu'
p487
I1
sS'Xin Yao 0001'
p488
I4
sS'Yongkai Wu'
p489
I2
sS'Marco Gavanelli'
p490
I1
sS'Lev Reyzin'
p491
I2
sS'Christos Dimitrakakis'
p492
I1
sS'Julia Hockenmaier'
p493
I1
sS'Seungwhan Moon'
p494
I1
sS'Ron Alford'
p495
I2
sS'Van Nguyen'
p496
I1
sS'Jason D. R. Farquhar'
p497
I1
sS'Stefano Soatto'
p498
I1
sS'Qiaomin Ye'
p499
I1
sS'Ah-Hwee Tan'
p500
I3
sS'Chih-Wei Hsu'
p501
I1
sS'Tiejun Huang'
p502
I3
sS'Brian Tanner'
p503
I1
sS'Alan Both'
p504
I1
sS'Angelo Montanari'
p505
I3
sS'C. V. Jawahar'
p506
I1
sS'Wael Hamza'
p507
I1
sS'Di Wang'
p508
I4
sS'Jin Dong'
p509
I2
sS'Evgenij Thorstensen'
p510
I2
sS'\xc3\x89ric Gr\xc3\xa9goire'
p511
I3
sS'Jianguo Xiao'
p512
I5
sS'Joohyung Lee'
p513
I7
sS'Meng Wang 0001'
p514
I5
sS'Parris K. Egbert'
p515
I1
sS'Cheng Li 0003'
p516
I1
sS'Claude Frasson'
p517
I1
sS'Simone Bova'
p518
I1
sS'Evgenii Balai'
p519
I2
sS'Hao-Chuan Wang'
p520
I1
sS'Xuan Song'
p521
I2
sS'Frans A. Oliehoek'
p522
I4
sS'Wei Cheng'
p523
I2
sS'Zhaoyang Yang'
p524
I1
sS'Wei Zhang 0038'
p525
I1
sS'Ou Wu'
p526
I2
sS'Yulong Chen'
p527
I1
sS'Stefano Bromuri'
p528
I1
sS'Prasad Tadepalli'
p529
I4
sS'Shanshan Zhao'
p530
I2
sS'Wolfram Burgard'
p531
I4
sS'El-Houssine Bouyakhf'
p532
I1
sS'Peter Gregory'
p533
I1
sS'Bernardo Cuenca Grau'
p534
I9
sS'Deepak P'
p535
I1
sS'Stefan Borgwardt'
p536
I7
sS'Rasmus Ibsen-Jensen'
p537
I1
sS'Jie Meng'
p538
I1
sS'Federico Chesani'
p539
I1
sS'Tatsuya Izuha'
p540
I1
sS'Roberto Micalizio'
p541
I1
sS'Valencia James'
p542
I1
sS'Chunlai Zhou'
p543
I1
sS'Puneet Garg'
p544
I1
sS'Zhe L. Lin'
p545
I1
sS'Andrew S. Lan'
p546
I1
sS'Naiyan Wang'
p547
I2
sS'Xiaoming Sun'
p548
I1
sS'Xin Zhao'
p549
I2
sS'Ulit Jaidee'
p550
I1
sS'Hao Ye'
p551
I1
sS'Broderick Arneson'
p552
I1
sS'Fiammetta Ghedini'
p553
I1
sS'Yaqing Zhang'
p554
I1
sS'Nadia Figueroa'
p555
I1
sS'Ismael Pascual-Nieto'
p556
I1
sS'Patrick W. Yaner'
p557
I1
sS'Weiming Lu'
p558
I2
sS'Jainarayan Radhakrishnan'
p559
I1
sS'Fran\xc3\xa7ois Goasdou\xc3\xa9'
p560
I2
sS'Steven C. H. Hoi'
p561
I6
sS'Alexandre Drouin'
p562
I1
sS'Michael Johanson'
p563
I2
sS'Giuseppe Carenini'
p564
I2
sS'Yilin Cai'
p565
I1
sS'Akin G\xc3\xbcnay'
p566
I1
sS'Fernando Mart\xc3\xadnez-Plumed'
p567
I1
sS'Skanda Vasudevan'
p568
I1
sS'Brian Charles Williams'
p569
I5
sS'Ofer Arieli'
p570
I1
sS'Min Lin'
p571
I1
sS'Dusan Knop'
p572
I1
sS'Andr\xc3\xa9 Ricardo Gon\xc3\xa7alves'
p573
I1
sS'Nic Wilson'
p574
I9
sS'Biaoshuai Tao'
p575
I1
sS'Mathieu Acher'
p576
I1
sS'Ronghuo Zheng'
p577
I1
sS'Katsuhide Fujita'
p578
I1
sS'Irene M. Ong'
p579
I1
sS'Keh-Yih Su'
p580
I2
sS'Vinodh Rajendran'
p581
I1
sS'Raul Fervari'
p582
I1
sS'Jurgen Van Gael'
p583
I1
sS'Li-Ping Liu'
p584
I1
sS'Golnoosh Farnadi'
p585
I1
sS'Yngvi Bj\xc3\xb6rnsson'
p586
I2
sS'Yoshimasa Tsuruoka'
p587
I1
sS'Hao Peng'
p588
I1
sS'David Rajaratnam'
p589
I2
sS'Luca Ducceschi'
p590
I1
sS'Martina Seidl'
p591
I1
sS'Xue Yang'
p592
I1
sS'Shulamit Reches'
p593
I1
sS'S. Mehdi Hashemi'
p594
I1
sS'Qinghua Hu'
p595
I3
sS'Oliver Kullmann'
p596
I1
sS'Robert Power'
p597
I1
sS'Qingpeng Cai'
p598
I1
sS'Ilaria Gori'
p599
I1
sS'Fabien Ringeval'
p600
I1
sS'Sasha Rubin'
p601
I4
sS'Vinh Nguyen'
p602
I1
sS'Jialiang Zhang'
p603
I1
sS'Shaddin Dughmi'
p604
I1
sS'Matthias Thimm'
p605
I5
sS'Yang Xia'
p606
I1
sS'Arnau Ramisa'
p607
I1
sS'Hong-Jie Dai'
p608
I1
sS'Ning Xie 0003'
p609
I1
sS'Vincent Gingras'
p610
I1
sS'Ping Wei'
p611
I1
sS'Elizabeth Black'
p612
I1
sS'Roman Kontchakov'
p613
I8
sS'Yifan Sun'
p614
I1
sS'Behrouz Babaki'
p615
I1
sS'Robert Mateescu'
p616
I1
sS'Amy Perfors'
p617
I1
sS'Brahim Chaib-draa'
p618
I4
sS'Akira Shimazu'
p619
I1
sS'Yuekui Yang'
p620
I1
sS'Deepayan Chakrabarti'
p621
I1
sS'Yingtao Tian'
p622
I1
sS'Sylvia Estivie'
p623
I1
sS'Yilan Gu'
p624
I1
sS'Xin Li 0013'
p625
I2
sS'Julian Togelius'
p626
I1
sS'Thomas S. Richardson 0001'
p627
I1
sS'Mohammad Raza'
p628
I1
sS'Benjamin M. Marlin'
p629
I1
sS'Tarik Tosun'
p630
I1
sS'Tam T. Nguyen'
p631
I1
sS'Samir Chopra'
p632
I1
sS'Nirmalie Wiratunga'
p633
I1
sS'Salem Benferhat'
p634
I6
sS'Haifeng Wang'
p635
I2
sS'Federico Cerutti'
p636
I1
sS'Zhuhao Wang'
p637
I1
sS'Xin Geng'
p638
I4
sS'Nick Bassiliades'
p639
I1
sS'Jos\xc3\xa9 Mart\xc3\xadnez Sotoca'
p640
I1
sS'Arindam Khaled'
p641
I1
sS'Pushpak Bhattacharyya'
p642
I2
sS'Paul T. Groth'
p643
I1
sS'Yu Wang'
p644
I1
sS'Xavier Bar\xc3\xb3'
p645
I1
sS'Ahmed Elbagoury'
p646
I1
sS'Guohui Xiao'
p647
I1
sS'Jianyong Wang'
p648
I3
sS'Ke Chen 0004'
p649
I1
sS'Yonghong Wang'
p650
I1
sS'Si Liu'
p651
I1
sS'Andreas Pfandler'
p652
I5
sS'Florentin W\xc3\xb6rg\xc3\xb6tter'
p653
I1
sS'Rianne van Lambalgen'
p654
I1
sS'Partha Pratim Talukdar'
p655
I1
sS'Shengchao Qin'
p656
I3
sS'Qi Qi'
p657
I1
sS'William Dabney'
p658
I1
sS'Wenjie Li'
p659
I2
sS'Hiroki Yanagisawa'
p660
I1
sS'Chih-Jen Lin'
p661
I1
sS'Chenping Hou'
p662
I1
sS'Noam Slonim'
p663
I2
sS'Martin Mozina'
p664
I1
sS'Huiji Gao'
p665
I1
sS'Yuheng Hu'
p666
I1
sS'Jinxi Zhao'
p667
I1
sS'Jimmy H. M. Lee'
p668
I2
sS'Kazuki Yoshizoe'
p669
I1
sS'Chi Keong Goh'
p670
I2
sS'Anil G\xc3\xbcrsel'
p671
I1
sS'Fadi Badra'
p672
I1
sS'Franc Ivankovic'
p673
I1
sS'Joel Gab\xc3\xa0s'
p674
I1
sS'Jingcheng Yu'
p675
I1
sS'Ali Ghodsi'
p676
I1
sS'Tian Guo'
p677
I1
sS'Lucy Vanderwende'
p678
I1
sS'Shengxian Wan'
p679
I1
sS'Andrea Passerini'
p680
I5
sS'Juan A. Rodr\xc3\xadguez-Aguilar'
p681
I3
sS'Sunil Kumar Kopparapu'
p682
I1
sS'Haodi Zhang'
p683
I1
sS'Prakash Panangaden'
p684
I1
sS'J\xc3\xa9r\xc3\xb4me Mengin'
p685
I1
sS'Thomas Marek'
p686
I1
sS'Salman Hameed Khan'
p687
I1
sS'Renata Wassermann'
p688
I1
sS'Xuejian Rong'
p689
I1
sS'Rafael Pass'
p690
I4
sS'Xiao Chen'
p691
I1
sS'Viviana Patti'
p692
I2
sS'Jacopo Urbani'
p693
I1
sS'Zbigniew Stachniak'
p694
I1
sS'Jamie Morgenstern'
p695
I1
sS'Li Gao'
p696
I2
sS'Da Kuang'
p697
I1
sS'Baojian Zhou'
p698
I1
sS'Henri Prade'
p699
I4
sS'Christopher W. Geib'
p700
I2
sS'Ziyu Guan'
p701
I3
sS'Hung Hai Bui'
p702
I2
sS'Irina Rish'
p703
I2
sS'Yongqing Wang'
p704
I1
sS'Tamer Elsayed'
p705
I1
sS'Rafael L. Beirigo'
p706
I1
sS'Qiang Ma 0001'
p707
I1
sS'Terry Howell'
p708
I1
sS'Suiqian Luo'
p709
I1
sS'Yahong Han'
p710
I3
sS'Wei-Yi Pei'
p711
I1
sS'Charles Gretton'
p712
I2
sS'Aaron Gerow'
p713
I1
sS'Daniel Harabor'
p714
I1
sS'Le-le Cao'
p715
I1
sS'Christopher Kiekintveld'
p716
I5
sS'Ho-fung Leung'
p717
I3
sS'Richong Zhang'
p718
I2
sS'Robert Holte'
p719
I2
sS'Yao Qin'
p720
I1
sS'Pierre Lemaire'
p721
I1
sS'Yingce Xia'
p722
I4
sS'Chuan Qin'
p723
I1
sS'Klaus Berberich'
p724
I1
sS'Xiao Li'
p725
I1
sS'Jidong Zhao'
p726
I1
sS'Tanya Y. Berger-Wolf'
p727
I1
sS'Neil Burch'
p728
I2
sS'Marvin Abisrror'
p729
I1
sS'Sebastian Thrun'
p730
I1
sS'Giacomo Boracchi'
p731
I1
sS'Antoine Amarilli'
p732
I2
sS'Buser Say'
p733
I1
sS'Jadwiga Sosnowska'
p734
I1
sS'Parag Singla'
p735
I4
sS'Yavor Nenov'
p736
I2
sS'Gansen Zhao'
p737
I1
sS'Stefano Alvisi'
p738
I1
sS'Egor Ianovski'
p739
I1
sS'Zohar Komarovsky'
p740
I1
sS'Yeyun Gong'
p741
I1
sS'Hongke Zhao'
p742
I1
sS'Tongtao Zhang'
p743
I1
sS'Shuyue Hu'
p744
I1
sS'Hongyu Li'
p745
I1
sS'Ankita Likhyani'
p746
I1
sS'J\xc3\xbcrgen Sturm'
p747
I2
sS'Mauro Javier G\xc3\xb3mez Lucero'
p748
I1
sS'Stefan Freyr Gudmundsson'
p749
I1
sS'Ben H. Williams'
p750
I1
sS'Christoph Benzmueller'
p751
I1
sS"Mark d'Inverno"
p752
I2
sS'Svetlana Obraztsova'
p753
I7
sS'Zhuoye Ding'
p754
I1
sS'Shaohui Lin'
p755
I1
sS'Michael Cui'
p756
I1
sS'Shane Cullen'
p757
I1
sS'Wei Qian'
p758
I1
sS'Bruno Woltzenlogel Paleo'
p759
I1
sS'Qinfeng Shi'
p760
I2
sS'Laurent Orseau'
p761
I4
sS'Dongsheng Li'
p762
I1
sS'Andy Nealen'
p763
I1
sS'Kostas Stergiou'
p764
I1
sS'Wei Zhang 0016'
p765
I4
sS'Wei Zhang 0010'
p766
I1
sS'Thanard Kurutach'
p767
I1
sS'Sam Ganzfried'
p768
I2
sS'Jonathan Rubin'
p769
I2
sS'Anbu Yue'
p770
I1
sS'Julie A. Shah'
p771
I3
sS'Leo de Penning'
p772
I1
sS'Sanja Stajner'
p773
I1
sS'Koji Yatani'
p774
I1
sS'Florian Strub'
p775
I1
sS'Jonas Vlasselaer'
p776
I1
sS'Geoffroy Fouquier'
p777
I1
sS'Albrecht Zimmermann'
p778
I1
sS'Jinsong Su'
p779
I2
sS'Jie-Hong R. Jiang'
p780
I1
sS'Dihong Gong'
p781
I1
sS'Yichao Yan'
p782
I2
sS'Su-Yang Yu'
p783
I1
sS'Kaichen Ma'
p784
I1
sS'Zhen Zhang'
p785
I1
sS'Daniele Alfarone'
p786
I1
sS'Ion Androutsopoulos'
p787
I1
sS'Yingjie Tian'
p788
I1
sS'Ugo Pagallo'
p789
I1
sS'Marcel Lippmann'
p790
I1
sS'Abdelhamid Boudane'
p791
I1
sS'Xiang Wang 0001'
p792
I1
sS'Ron Katz'
p793
I1
sS'Luciano Serafini'
p794
I3
sS'Alexa Breuing'
p795
I1
sS'Ian P. Gent'
p796
I1
sS'Beidou Wang'
p797
I1
sS'Michael W. Floyd'
p798
I2
sS'Yuzhong Qu'
p799
I2
sS'Susan T. Dumais'
p800
I2
sS'Xiaochi Wei'
p801
I2
sS'Hui Wang 0001'
p802
I1
sS'Alper Aydemir'
p803
I1
sS'Liang Sun 0001'
p804
I2
sS'Sathiamoorthy Subbarayan'
p805
I1
sS'Sivan Albagli'
p806
I1
sS'Gianguglielmo Calvi'
p807
I1
sS'Leendert W. N. van der Torre'
p808
I2
sS'Arthur Carvalho'
p809
I1
sS'Jeff G. Schneider'
p810
I2
sS'Kiyoharu Aizawa'
p811
I2
sS'Mar\xc3\xada D. R.-Moreno'
p812
I1
sS'Yibiao Zhao'
p813
I1
sS'Angelo Oddi'
p814
I1
sS'Tom Dietterich'
p815
I1
sS'Jianfeng Du'
p816
I1
sS'Kalliopi Kravari'
p817
I1
sS'Anh Tran'
p818
I1
sS'Dongcai Lu'
p819
I2
sS'Jizhong Xiao'
p820
I1
sS'David Bignell'
p821
I1
sS'Chuhan Zhang'
p822
I1
sS'Ivan Titov'
p823
I2
sS'Jiwei Tan'
p824
I1
sS'Hongtao Lu'
p825
I1
sS'Mehwish Alam'
p826
I1
sS'Zhigang Ma'
p827
I2
sS'Jia He'
p828
I2
sS'Stephanie Rosenthal'
p829
I3
sS'Dongyun Yi'
p830
I1
sS"Loris D'Antoni"
p831
I2
sS'Rick Lawrence'
p832
I1
sS'Hans van Ditmarsch'
p833
I3
sS'Alexandre Albore'
p834
I1
sS'Dimitre Kostadinov'
p835
I1
sS'Jakub Sliwinski'
p836
I1
sS'Guangda Huzhang'
p837
I2
sS'Dongxiang Zhang'
p838
I1
sS'Shijie Zhang'
p839
I1
sS'Qi Zhang'
p840
I5
sS'Curtis Glen Menton'
p841
I1
sS'Min Wang'
p842
I1
sS'Lifei Chen'
p843
I1
sS'Ana\xc3\xablle Wilczynski'
p844
I1
sS'Nikos Protopapas'
p845
I1
sS'Christian Kroer'
p846
I3
sS'Zhao Zhang'
p847
I1
sS'Fangyuan Wang'
p848
I1
sS'Sa\xc3\xafd Jabbour'
p849
I3
sS'Sarath Sreedharan'
p850
I1
sS'Marie-Laure Mugnier'
p851
I7
sS'Chung-Min Li'
p852
I1
sS'Felix Weninger'
p853
I1
sS'Alfredo Cuesta-Infante'
p854
I1
sS'Mauro Dragoni'
p855
I1
sS'Vladimir Sadov'
p856
I1
sS'Mrinmaya Sachan'
p857
I2
sS'Martin C. Cooper'
p858
I4
sS'Zhifu Zhang'
p859
I1
sS'Mazen Melibari'
p860
I1
sS'Shimon Whiteson'
p861
I2
sS'Qingtao Tang'
p862
I3
sS'Aaron Mininger'
p863
I1
sS'Yavar Naddaf'
p864
I1
sS'Mayur Thakur'
p865
I1
sS'Mathias Paulin'
p866
I1
sS'Amr Ahmed'
p867
I1
sS'Ashok K. Goel 0001'
p868
I1
sS'Samuel Nicol'
p869
I1
sS'Daniel P. Robinson'
p870
I1
sS'Bamshad Mobasher'
p871
I1
sS'Jinhui Tang'
p872
I1
sS'Sejeong Kwon'
p873
I1
sS'Tobias Friedrich 0001'
p874
I2
sS'Shusen Wang'
p875
I2
sS'Jintao Tang'
p876
I1
sS'Hong Peng'
p877
I1
sS'Zhilin Wu'
p878
I1
sS'Utkarsh Mall'
p879
I1
sS'Nhan-Tam Nguyen'
p880
I1
sS'Meir Kalech'
p881
I4
sS'Qi Wu'
p882
I1
sS'Ge Yu'
p883
I1
sS'Julie Porteous'
p884
I1
sS'Jiaming Jiang'
p885
I1
sS'Arvind Gupta'
p886
I1
sS'Nikolaj Bj\xc3\xb8rner'
p887
I1
sS'Gal Elidan'
p888
I1
sS'Helen Kwong'
p889
I1
sS'Piyush Rai'
p890
I2
sS'Fang Kong'
p891
I2
sS'Nobuyuki Shimizu'
p892
I1
sS'Yu Zhang 0006'
p893
I1
sS'Daniel Hennes'
p894
I1
sS'Joseph Keshet'
p895
I1
sS'Xixian Chen'
p896
I1
sS'Jerry O. Talton'
p897
I1
sS'Mingxuan Wang'
p898
I1
sS'Shuqiang Jiang'
p899
I2
sS'Yue Shi'
p900
I1
sS'Concha Bielza'
p901
I1
sS'Ekhlas Sonu'
p902
I1
sS'Jie Zhang 0008'
p903
I1
sS'Guangxu Xun'
p904
I1
sS'Songshan Guo'
p905
I2
sS'Tuan Anh Nguyen 0001'
p906
I3
sS'Shufang Zhu'
p907
I1
sS'Tian Sang'
p908
I1
sS'Leandro Soriano Marcolino'
p909
I2
sS'Emma Brunskill'
p910
I4
sS'Claire Gardent'
p911
I1
sS'Ka-Chun Wong'
p912
I1
sS'Rodrigo Toro Icarte'
p913
I1
sS'Carlos Caleiro'
p914
I1
sS'R. Bruce van Dover'
p915
I1
sS'Song-Chun Zhu'
p916
I4
sS'Wei Xu 0005'
p917
I1
sS'Paul R. Cohen'
p918
I4
sS'Haibin Ling'
p919
I2
sS'Anton Belov'
p920
I2
sS'Wei-Cheng Chang'
p921
I1
sS'Jos\xc3\xa9 Ram\xc3\xb3n Quevedo'
p922
I2
sS'Linas Baltrunas'
p923
I1
sS'Ming Li 0005'
p924
I2
sS'Stefan Woltran'
p925
I17
sS'Markus Ulbricht'
p926
I1
sS'Wei-keng Liao'
p927
I1
sS'Kostas E. Bekris'
p928
I1
sS'Madalina Fiterau'
p929
I2
sS'Lifang He'
p930
I1
sS'Daniel Gnad'
p931
I3
sS'Caroline Becker'
p932
I1
sS'Zhiguang Wang'
p933
I1
sS'Enrico Gerding'
p934
I2
sS'Xuezhi Wang'
p935
I1
sS'Arunkumar Byravan'
p936
I1
sS'Eric Yeh'
p937
I1
sS'Sandrine-Dominique Gouraud'
p938
I1
sS'Yanhai Xiong'
p939
I1
sS'Bel\xc3\xa9n D\xc3\xadaz-Agudo'
p940
I1
sS'Najmeh Forouzandehmehr'
p941
I1
sS'Am\xc3\xa9lie Levray'
p942
I1
sS'Tomer Parash'
p943
I1
sS'Ting Liu'
p944
I9
sS'Luis C. Cobo'
p945
I1
sS'Wenbin Zhu'
p946
I1
sS'Daniel Damir Harabor'
p947
I1
sS'K. Madhava Krishna'
p948
I2
sS'Takayuki Akiyama'
p949
I1
sS'Yuu Nakajima'
p950
I1
sS'Huanhuan Chen'
p951
I2
sS'Zhengdong Lu'
p952
I4
sS'Zhangyang Wang'
p953
I3
sS'Amit Datta'
p954
I1
sS'Gregg Rabideau'
p955
I1
sS'Kilho Shin'
p956
I2
sS'Anna Harutyunyan'
p957
I1
sS'Tat-Seng Chua'
p958
I7
sS'Michael E. Samples'
p959
I1
sS'Yu-Gang Jiang'
p960
I3
sS'Isabelle Alvarez'
p961
I2
sS'Leif Sabellek'
p962
I1
sS'Chen Sun'
p963
I1
sS'Zhilin Yang'
p964
I1
sS'Hugo Gon\xc3\xa7alo Oliveira'
p965
I1
sS'Eleftherios Spyromitros Xioufis'
p966
I1
sS'Qianqian Wang'
p967
I1
sS'David Poole 0001'
p968
I3
sS'Zhiping Gu'
p969
I2
sS'Baowen Xu'
p970
I2
sS'Viktor K. Prasanna'
p971
I2
sS'Sebastian Brandt'
p972
I1
sS'Tong Man'
p973
I2
sS'Jiawen Wang'
p974
I1
sS'Nguyen Hoang Nga'
p975
I1
sS'Debing Zhang'
p976
I2
sS'Lili Mou'
p977
I1
sS'Yun Sing Koh'
p978
I1
sS'Pritee Agrawal'
p979
I2
sS'Xiaochun Cao'
p980
I3
sS'David R. Traum'
p981
I1
sS'Jiang Bian'
p982
I1
sS'Kai Lu'
p983
I1
sS'Jeffrey S. Rosenschein'
p984
I10
sS'Cong Tian'
p985
I2
sS'Mohan Sridharan'
p986
I2
sS'Rafael M. Frongillo'
p987
I1
sS'Liat Cohen'
p988
I1
sS'Youngmin Lee'
p989
I1
sS'Weizhi Ma'
p990
I1
sS'Xian-Sheng Hua'
p991
I1
sS'Paul Stursberg'
p992
I1
sS'Ofra Amir'
p993
I3
sS'Denis Cornaz'
p994
I1
sS'Rui Yan'
p995
I4
sS'Xiu-Shen Wei'
p996
I1
sS'Fabio Mogavero'
p997
I1
sS'Yi Huang'
p998
I1
sS'Xiaoming Jin'
p999
I4
sS'Archan Misra'
p1000
I1
sS'Sriharsha Veeramachaneni'
p1001
I1
sS'Sophie Tison'
p1002
I1
sS'Cheng Fang'
p1003
I1
sS'Peter Ti\xc3\xb1o'
p1004
I2
sS'Xiumei Wang'
p1005
I1
sS'Andrew R. Haas'
p1006
I1
sS'Adrian R. Pearce'
p1007
I7
sS'Langford B. White'
p1008
I1
sS'Zheshen Wang'
p1009
I1
sS'Chenyang Zhao'
p1010
I1
sS'Kee-Eung Kim'
p1011
I5
sS'Hang Ma 0001'
p1012
I1
sS'Leonid Libkin'
p1013
I2
sS'Dylan Fernando'
p1014
I1
sS'Mateu Villaret'
p1015
I2
sS'David C. Parkes'
p1016
I9
sS'Jingyu Hua'
p1017
I1
sS'Guillermo A. Cecchi'
p1018
I2
sS'Adrien Maillard'
p1019
I1
sS'Shujian Huang'
p1020
I4
sS'Nikesh Garera'
p1021
I1
sS'Shuai Wang'
p1022
I1
sS'Vijay Ganesh'
p1023
I1
sS'Matthias Mnich'
p1024
I1
sS'Spyros Angelopoulos 0001'
p1025
I2
sS'Giuseppe De Giacomo'
p1026
I17
sS'Joelle Pineau'
p1027
I3
sS'Arkadii M. Slinko'
p1028
I2
sS'Wen Pu'
p1029
I1
sS'Mingyu Guo'
p1030
I1
sS'Vince D. Calhoun'
p1031
I1
sS'Xiaodong Gu'
p1032
I1
sS'Nico Altobelli'
p1033
I1
sS'Shaoting Zhang'
p1034
I3
sS'Fu-Lai Chung'
p1035
I1
sS'Niall Rooney'
p1036
I1
sS'Johann Dr\xc3\xa9o'
p1037
I1
sS'Chin-Yew Lin'
p1038
I4
sS'Alon Y. Halevy'
p1039
I1
sS'Aaron Harwood'
p1040
I1
sS'Andrea Micheli'
p1041
I1
sS'Hoang Nga Nguyen'
p1042
I2
sS'Philippe Laborie'
p1043
I1
sS'Richard John'
p1044
I1
sS'Carlos A. Henr\xc3\xadquez Q.'
p1045
I2
sS'Jivko Sinapov'
p1046
I3
sS'Felipe Bravo-Marquez'
p1047
I1
sS'Yongpan Sheng'
p1048
I1
sS'Mark Reynolds'
p1049
I1
sS'Luca Maria Gambardella'
p1050
I1
sS'Kerstin Wendt'
p1051
I1
sS'Lu An Tang'
p1052
I1
sS'Shuxin Li'
p1053
I1
sS'Erhan \xc3\x96ztop'
p1054
I1
sS'Byron Boots'
p1055
I2
sS'Takashi Imamichi'
p1056
I1
sS'Michael Sioutis'
p1057
I4
sS'Rajat Raina'
p1058
I1
sS'Antonija Mitrovic'
p1059
I1
sS'Emmanuel Hebrard'
p1060
I6
sS'Kenneth Anderson'
p1061
I1
sS'Iulia Nica'
p1062
I1
sS'Beh\xc3\xa7et A\xc3\xa7ikmese'
p1063
I1
sS'Thomas Schiex'
p1064
I3
sS'Guoping Huang'
p1065
I1
sS'Claude-Guy Quimper'
p1066
I4
sS'Lihui Chen'
p1067
I1
sS'Hyunjae Kim'
p1068
I1
sS'Attilio Giordana'
p1069
I1
sS'Tao Li'
p1070
I3
sS'Yunfei Jiang'
p1071
I3
sS'Michael Norrish'
p1072
I1
sS'Sergej Sizov'
p1073
I1
sS'Zheng Chen'
p1074
I3
sS'Athirai Aravazhi Irissappane'
p1075
I3
sS'Jian-Min Ji'
p1076
I1
sS'Alwar Narayanan'
p1077
I1
sS'Binbin Chen'
p1078
I1
sS'Christer B\xc3\xa4ckstr\xc3\xb6m'
p1079
I2
sS'Joseph Sill'
p1080
I1
sS'Jilian Zhang'
p1081
I1
sS'Julien Hu\xc3\xa9'
p1082
I2
sS'Suyog Gupta'
p1083
I2
sS'Nazha Selmaoui-Folcher'
p1084
I1
sS'Dmitry Korkin'
p1085
I1
sS'Jong C. Park'
p1086
I1
sS'Saul de Castro Leite'
p1087
I1
sS'Jeffrey Richard Long'
p1088
I2
sS'Michael Esser'
p1089
I1
sS'Madhav V. Marathe'
p1090
I1
sS'Arkadii Slinko'
p1091
I4
sS'Keqiang Wang'
p1092
I1
sS'Greg Ver Steeg'
p1093
I2
sS'Yong Liu'
p1094
I5
sS'Fakhri Karray'
p1095
I1
sS'Frank Keller'
p1096
I1
sS'S\xc3\xb8ren Kristoffer Stiil Frederiksen'
p1097
I1
sS'Xuancong Wang'
p1098
I1
sS'Vincenzo Auletta'
p1099
I1
sS'Haiying Wang'
p1100
I1
sS'Yonghua Zhu'
p1101
I1
sS'Nick R. Jennings'
p1102
I1
sS'Dave De Jonge'
p1103
I1
sS'Simon Fong'
p1104
I1
sS'Gang Luo'
p1105
I1
sS'Dominik Peters'
p1106
I5
sS'Reshef Meir'
p1107
I5
sS'Artur Dubrawski'
p1108
I2
sS'Jia-Lve Chen'
p1109
I1
sS'Alvis Cheuk Ming Fong'
p1110
I1
sS'Vikas Kedia'
p1111
I1
sS'Bart Bogaerts 0001'
p1112
I5
sS'Pan Gu'
p1113
I1
sS'Chenyi Zhuang'
p1114
I1
sS'Jane You'
p1115
I1
sS'Fran\xc3\xa7ois Charpillet'
p1116
I2
sS'Amit K. Chopra'
p1117
I2
sS'Pavel Dvor\xc3\xa1k'
p1118
I1
sS'Pablo Cordero'
p1119
I1
sS'Kai Zhang 0001'
p1120
I1
sS'Jeff Schneider'
p1121
I1
sS'Jianzhuang Liu'
p1122
I2
sS'Roberto Cipolla'
p1123
I1
sS'Lin Liao'
p1124
I1
sS'Emmanuel Tanguy'
p1125
I1
sS'Alberto Camacho'
p1126
I1
sS'Yichuan Jiang'
p1127
I2
sS'Gang Chen'
p1128
I2
sS'Yan Liu'
p1129
I1
sS'Daniele Magazzeni'
p1130
I4
sS'Joshua Zhexue Huang'
p1131
I2
sS'Anne-Marie George'
p1132
I3
sS'Anna Chen'
p1133
I1
sS'Saurabh Kataria'
p1134
I1
sS'Liang Du'
p1135
I5
sS'Sajjad Gholami'
p1136
I1
sS'Qiang Gao'
p1137
I1
sS'Dimitrios Mavroeidis'
p1138
I1
sS'Paolo Torroni'
p1139
I3
sS'Bijan Parsia'
p1140
I1
sS'Ayumu Sugiyama'
p1141
I1
sS'Malik Ghallab'
p1142
I1
sS'Dana F. Wilkinson'
p1143
I2
sS'Chongjie Zhang'
p1144
I2
sS'Jing Li 0009'
p1145
I2
sS'Kazuhiro Yoshida'
p1146
I1
sS'Ming Lin'
p1147
I1
sS'Joel Uckelman'
p1148
I1
sS'Andr\xc3\xa9 da Motta Salles Barreto'
p1149
I1
sS'Chao Yuan'
p1150
I1
sS'Zohreh Alavi'
p1151
I1
sS'Sabri Bayoudh'
p1152
I1
sS'Gilles Richard'
p1153
I1
sS'Abhishek Tripathi'
p1154
I1
sS'Blaz Fortuna'
p1155
I1
sS'Sumio Fujita'
p1156
I1
sS'Damien Bouchabou'
p1157
I1
sS'Kotaro Funakoshi'
p1158
I1
sS'Rie Tanaka'
p1159
I1
sS'Deepak Ramachandran'
p1160
I1
sS'Piotr Skowron'
p1161
I4
sS'Armin Biere'
p1162
I1
sS'Taiki Todo'
p1163
I2
sS'Shangguang Wang'
p1164
I1
sS'David J. Harper'
p1165
I1
sS'Carsten Kern'
p1166
I1
sS'Mahmoud El Chamie'
p1167
I1
sS'Vishnu Sankar'
p1168
I1
sS'Martin Field'
p1169
I1
sS'Ping Luo'
p1170
I6
sS'Simeon Visser'
p1171
I1
sS'Supriyo Ghosh'
p1172
I2
sS'Thomas Geier'
p1173
I1
sS'Jonathan Gratch'
p1174
I3
sS'Dawei Song 0001'
p1175
I2
sS'Ramasuri Narayanam'
p1176
I3
sS'Zaheen Farraz Ahmad'
p1177
I1
sS'Philippe Donnat'
p1178
I1
sS'Kazumi Saito'
p1179
I2
sS'Gilles Chabert'
p1180
I2
sS'Volkan Isler'
p1181
I1
sS'Finale Doshi-Velez'
p1182
I2
sS'Adam Bjorndahl'
p1183
I1
sS'Steve A. Chien'
p1184
I1
sS'Pasquale Lops'
p1185
I2
sS'Ruichu Cai'
p1186
I1
sS'Nimrod Talmon'
p1187
I3
sS'Nathan R. Sturtevant'
p1188
I11
sS'Brian Ferris'
p1189
I1
sS'Valentin Robu'
p1190
I6
sS'Kristina Lerman'
p1191
I1
sS'Wenjie Zhang'
p1192
I1
sS'Yueqing Wang'
p1193
I3
sS'Nicholas Morsillo'
p1194
I1
sS'Julio H. Zaragoza'
p1195
I1
sS'Mark Richards'
p1196
I1
sS'Vijay Kumar Mago'
p1197
I1
sS'Kyriakos Mouratidis'
p1198
I1
sS'Yu-Lin Huang'
p1199
I1
sS'Jun Li'
p1200
I2
sS'Chuanren Liu'
p1201
I1
sS'Hong Zhang'
p1202
I1
sS'Yuval Filmus'
p1203
I2
sS'Pedro A. Ortega'
p1204
I1
sS'Jie Li 0001'
p1205
I1
sS'Cristina V. Lopes'
p1206
I1
sS'Andrew Duchi'
p1207
I1
sS'Marco Lippi 0001'
p1208
I2
sS'Robin Arcangioli'
p1209
I1
sS'J\xc3\xa9r\xc3\xb4me Delobelle'
p1210
I1
sS'Tongran Liu'
p1211
I1
sS'Nikolaos Tziortziotis'
p1212
I1
sS'Jie Chen 0006'
p1213
I1
sS'Christoph Sawade'
p1214
I1
sS'Marius Lindauer'
p1215
I1
sS'Friedrich Slivovsky'
p1216
I1
sS'Takuya Matsuzaki'
p1217
I2
sS'Bo Wu 0008'
p1218
I1
sS'Xiaogang Wang'
p1219
I1
sS'Yi Zhang'
p1220
I4
sS'Zhiding Yu'
p1221
I1
sS'Rolf Niedermeier'
p1222
I6
sS'Ra\xc3\xbal Rojas'
p1223
I1
sS'Ludwig Schmidt'
p1224
I1
sS'Eduard H. Hovy'
p1225
I2
sS'Vahid Noroozi'
p1226
I1
sS'Vahab S. Mirrokni'
p1227
I1
sS'Christophe Dousson'
p1228
I1
sS'Peter G. Jeavons'
p1229
I1
sS'Yutian Chen'
p1230
I1
sS'Sara Bahaadini'
p1231
I1
sS'Alan Schmitt'
p1232
I2
sS'Antti Hyttinen'
p1233
I1
sS'Christophe Jermann'
p1234
I1
sS'Brian Burns'
p1235
I1
sS'Pawel Dybala'
p1236
I1
sS'Di Chen'
p1237
I1
sS'Rupert Brooks'
p1238
I1
sS'William Yeoh 0001'
p1239
I8
sS'Martin Lackner'
p1240
I4
sS'Laurent Vercouter'
p1241
I1
sS'Senka Krivic'
p1242
I1
sS'Byoung-Tak Zhang'
p1243
I3
sS'James Hays'
p1244
I1
sS'Philipp Obermeier'
p1245
I1
sS'Joan Espasa'
p1246
I1
sS"Nicol\xc3\xa1s D'Ippolito"
p1247
I1
sS'Dietmar Jannach'
p1248
I3
sS'Zhongtang Zhao'
p1249
I1
sS'Qian Zhang'
p1250
I1
sS'Ditty Mathew'
p1251
I1
sS'Joshua T. Abbott'
p1252
I1
sS'Pang Jin Tan'
p1253
I1
sS'Meghyn Bienvenu'
p1254
I10
sS'Nils Bulling'
p1255
I4
sS'Shirin Sohrabi'
p1256
I3
sS'Kenji Shoji'
p1257
I1
sS'Bernhard Geiger'
p1258
I1
sS'Dileep Kini'
p1259
I2
sS'Andreas Steck'
p1260
I1
sS'Daisuke Okanohara'
p1261
I1
sS'Yiyuan Wang'
p1262
I1
sS'Umberto Grandi'
p1263
I7
sS'Yuan Feng'
p1264
I1
sS'Qiong Yang'
p1265
I1
sS'Minh Luan Nguyen'
p1266
I2
sS'Sindhu V. Raghavan'
p1267
I1
sS'Tibor Bosse'
p1268
I1
sS'Hongyin Luo'
p1269
I1
sS'Wamberto Weber Vasconcelos'
p1270
I1
sS'Manuela M. Veloso'
p1271
I6
sS'Srdjan Vesic'
p1272
I4
sS'Yusuke Iwasawa'
p1273
I1
sS'Daniel Kifer'
p1274
I1
sS'Jae Hee Lee 0001'
p1275
I5
sS'Maxim A. Batalin'
p1276
I1
sS'Marie desJardins'
p1277
I1
sS'Natalia Criado'
p1278
I1
sS'Thomas Guyet'
p1279
I3
sS'Stefano Coniglio'
p1280
I1
sS'Jianguo Li'
p1281
I2
sS'Haoran Chen'
p1282
I1
sS'Baobao Chang'
p1283
I1
sS'Bin Shen'
p1284
I2
sS'Tyler Lu'
p1285
I4
sS'Jiehua Chen'
p1286
I2
sS'Thomas G. Dietterich'
p1287
I3
sS'Wai Lam'
p1288
I2
sS'Yiliao Song'
p1289
I1
sS'Yingzhen Yang'
p1290
I2
sS'Yue Lin'
p1291
I1
sS'Vicente Juli\xc3\xa1n'
p1292
I1
sS'Tony White'
p1293
I1
sS'Arya Irani'
p1294
I1
sS'Randy Goebel'
p1295
I2
sS'Emiliano Lorini'
p1296
I4
sS'Yong Ren'
p1297
I1
sS'Christophe Gonzales'
p1298
I2
sS'Qingming Huang'
p1299
I3
sS'Yu-Feng Li'
p1300
I2
sS'Austin Parker'
p1301
I1
sS'Atsutoshi Kumagai'
p1302
I1
sS'Tracy Hammond'
p1303
I2
sS'Tracy Anne Hammond'
p1304
I1
sS'Robert C. Miller'
p1305
I1
sS'Oren Etzioni'
p1306
I4
sS'Jiang Guo'
p1307
I2
sS'Evgeny Kharlamov'
p1308
I2
sS'Sulin Liu'
p1309
I1
sS'Fuli Feng'
p1310
I1
sS'Davide Zilli'
p1311
I1
sS'Yongjie Yang'
p1312
I1
sS'Changsheng Li'
p1313
I3
sS'Pavlos Peppas'
p1314
I3
sS'Andrea Marrella'
p1315
I1
sS'Vittorio A. Ziparo'
p1316
I1
sS'Gaojian Fan'
p1317
I1
sS'Ze-Yu Zuo'
p1318
I1
sS'Philip P. Kime'
p1319
I1
sS'Nannan Wu'
p1320
I1
sS'Jiho Yoo'
p1321
I1
sS'Prithwijit Guha'
p1322
I1
sS'Boyuan Pan'
p1323
I1
sS'Harikrishna Narasimhan'
p1324
I1
sS'Zolt\xc3\xa1n Szamonek'
p1325
I1
sS'Sara Marie McCarthy'
p1326
I1
sS'Yao Liu'
p1327
I1
sS'Yang Bao'
p1328
I1
sS'Noam Brown'
p1329
I3
sS'Karsten M. Borgwardt'
p1330
I1
sS'Evelina Lamma'
p1331
I1
sS'Benjamin Snyder'
p1332
I1
sS'Piotr Faliszewski'
p1333
I11
sS'Ruben Stranders'
p1334
I1
sS'Ruoyun Huang'
p1335
I1
sS'Jinjin Guo'
p1336
I1
sS'Ben Gao'
p1337
I1
sS'Changying Du'
p1338
I2
sS'Jinglin Xu'
p1339
I3
sS'Duane Szafron'
p1340
I2
sS'Ananth Ranganathan'
p1341
I2
sS'Ondrej Kuzelka'
p1342
I3
sS'Robert Ganian'
p1343
I1
sS'Etienne E. Kerre'
p1344
I1
sS'Qi Liu'
p1345
I7
sS'Anupam Datta'
p1346
I3
sS'Pascal Denis'
p1347
I2
sS'Dong Wang'
p1348
I1
sS'Ninghao Liu'
p1349
I1
sS'Jun Suzuki'
p1350
I1
sS'S. Armagan Tarim'
p1351
I1
sS'Satwik Kottur'
p1352
I1
sS'Xiaohong Li'
p1353
I1
sS'Chaofeng Sha'
p1354
I1
sS'Ciaran McCreesh'
p1355
I3
sS'Michael Reip'
p1356
I1
sS'Halit Bener Suay'
p1357
I1
sS'Stefano Teso'
p1358
I1
sS'Radu Marinescu 0002'
p1359
I3
sS'Yaoliang Yu'
p1360
I1
sS'Jean Oh'
p1361
I2
sS'Jorge Torres'
p1362
I1
sS'Mark H. Burstein'
p1363
I1
sS'Viet Dung Dang'
p1364
I1
sS'Maosong Sun'
p1365
I16
sS'Jun Yan'
p1366
I2
sS'Haoruo Peng'
p1367
I2
sS'Dingjiang Huang'
p1368
I2
sS'Piotr Krzysztof Skowron'
p1369
I2
sS'Fangzhen Lin'
p1370
I3
sS'Shini Chen'
p1371
I1
sS'Marie-Odile Cordier'
p1372
I1
sS'Leslie Pack Kaelbling'
p1373
I6
sS'Karolina Eliasson'
p1374
I1
sS'Zhanhao Xiao'
p1375
I2
sS'Jes\xc3\xbas Cerquides'
p1376
I1
sS'Purnamrita Sarkar'
p1377
I1
sS'Teakgyu Hong'
p1378
I1
sS'Roni Khardon'
p1379
I4
sS'Andrew McCallum'
p1380
I1
sS'Neil D. Lawrence'
p1381
I1
sS'Bilal Kartal'
p1382
I1
sS'Julien Rossit'
p1383
I2
sS'Suchi Saria'
p1384
I2
sS'Guojun Lu'
p1385
I1
sS'Dror Fried'
p1386
I1
sS'Nardine Osman'
p1387
I1
sS'Minlie Huang'
p1388
I3
sS'Jean-Philippe Dubus'
p1389
I2
sS'Susana Fern\xc3\xa1ndez'
p1390
I2
sS'Hanwang Zhang'
p1391
I1
sS'Silvan Sievers'
p1392
I1
sS'Xucheng Luo'
p1393
I1
sS'Joel E. Fischer'
p1394
I3
sS'Fernando A. Tohm\xc3\xa9'
p1395
I1
sS'Yu Zheng'
p1396
I1
sS'Guy W. Mineau'
p1397
I1
sS'Jieshan Lu'
p1398
I1
sS'Joost Broekens'
p1399
I1
sS'Bernard Penz'
p1400
I1
sS'Christopher R\xc3\xa9'
p1401
I1
sS'Joel Oren'
p1402
I2
sS'Brendan Lucier'
p1403
I1
sS'Li Zhao'
p1404
I1
sS'Dongjin Song'
p1405
I3
sS'Haoyuan Peng'
p1406
I1
sS'Omar El Farouk Bourahla'
p1407
I2
sS'Churn-Jung Liau'
p1408
I1
sS'Garrett Hemann'
p1409
I1
sS'Hao Yang'
p1410
I1
sS'Mark Crowley 0001'
p1411
I1
sS'Matthew E. Taylor'
p1412
I5
sS'Konstantinos Tsiakas'
p1413
I1
sS'Hai Zhao'
p1414
I2
sS'Sergei O. Kuznetsov'
p1415
I2
sS'Suvash Sedhain'
p1416
I1
sS'Kai Ming Ting'
p1417
I2
sS'Sutanu Chakraborti'
p1418
I2
sS'Giuseppe Persiano'
p1419
I1
sS'Huanbo Luan'
p1420
I1
sS'Chris Kedzie'
p1421
I2
sS'Jian Sun'
p1422
I1
sS'Erkut Erdem'
p1423
I1
sS'M\xc3\xa1rcio Dorn'
p1424
I1
sS'Evgeniy Bart'
p1425
I1
sS'Marko Grobelnik'
p1426
I1
sS'Tassadit Amghar'
p1427
I1
sS'Irene Moser'
p1428
I1
sS'Akihiro Kishimoto'
p1429
I4
sS'Kamaljeet S. Verma'
p1430
I1
sS'Zhiyong Liu'
p1431
I1
sS'Suiping Zhou'
p1432
I1
sS'Paola Mello'
p1433
I1
sS'Geguang Pu'
p1434
I1
sS'Sukrit Shankar'
p1435
I1
sS'William C. Regli'
p1436
I2
sS'Bryant Chen'
p1437
I1
sS'Tao Lin'
p1438
I1
sS'Fabien Gandon'
p1439
I1
sS'William W. Cohen'
p1440
I4
sS'Oliver Schulte'
p1441
I2
sS'Guowen Yuan'
p1442
I1
sS'Dario Pacino'
p1443
I1
sS'Zhe Wang'
p1444
I4
sS'Mark James Carman'
p1445
I1
sS'Warut Suksompong'
p1446
I2
sS'Andrew Latham'
p1447
I1
sS'Alan Fern'
p1448
I7
sS'Mikko Koivisto'
p1449
I3
sS'Thomas Schmitz'
p1450
I2
sS'Eli Boyarski'
p1451
I1
sS'Cheng Deng'
p1452
I6
sS'Yu-Ta Lu'
p1453
I1
sS'Xuetao Ding'
p1454
I1
sS'Yi Zhang 0010'
p1455
I2
sS'Tao Mei'
p1456
I5
sS'Xiaorui Sun'
p1457
I1
sS'S\xc3\xb6ren Auer'
p1458
I1
sS'Muhannad Al-Omari'
p1459
I1
sS'Minlue Wang'
p1460
I1
sS'Stefan Schaal'
p1461
I1
sS'Pidaparthy S. Sastry'
p1462
I1
sS'Tapana Gupta'
p1463
I1
sS'Yair Zick'
p1464
I13
sS'Natalie Parde'
p1465
I1
sS'Adam Tauman Kalai'
p1466
I1
sS'Kwong-Sak Leung'
p1467
I1
sS'Sophia Yat Mei Lee'
p1468
I1
sS'Alessandro Previti'
p1469
I3
sS'David L. Dowe'
p1470
I1
sS'Ehud Aharoni'
p1471
I1
sS'Rong Yan'
p1472
I1
sS'James J. Clark'
p1473
I1
sS'Sethu Vijayakumar'
p1474
I4
sS'Julian Gutierrez 0001'
p1475
I2
sS'Xuejun Liao'
p1476
I2
sS'Moshe Y. Vardi'
p1477
I8
sS'Shou-De Lin'
p1478
I2
sS'Murray Patterson'
p1479
I1
sS'Abbas Abdolmaleki'
p1480
I1
sS'Katsumi Inoue'
p1481
I4
sS'Marek Grzes'
p1482
I1
sS'Abdul Razak'
p1483
I1
sS'Marc Costa Sitja'
p1484
I1
sS'Guodong Zhou'
p1485
I7
sS'Kirthevasan Kandasamy'
p1486
I1
sS'William Pentney'
p1487
I1
sS'Bernard Levrat'
p1488
I1
sS'Wei Wang'
p1489
I4
sS'Yuying Li'
p1490
I1
sS'Gleb Belov'
p1491
I1
sS'Roberto Rossi'
p1492
I1
sS'Hsiang-Fu Yu'
p1493
I1
sS'Arpita Sinha'
p1494
I1
sS'Ignacio Antonio Salas Donoso'
p1495
I1
sS'Zhe Li'
p1496
I1
sS'Sanmukh R. Kuppannagari'
p1497
I1
sS'Agata Niescieruk'
p1498
I1
sS'Derek Long'
p1499
I4
sS'Bram Ridder'
p1500
I1
sS'Helen Meng'
p1501
I1
sS'Jonathan Ezekiel'
p1502
I1
sS'Xilin Chen'
p1503
I2
sS'Vianney Sicard'
p1504
I1
sS'Derek Hao Hu'
p1505
I4
sS'Phebe Vayanos'
p1506
I1
sS'Oliver Parson'
p1507
I1
sS'Mark O. Riedl'
p1508
I1
sS'Jie Wu'
p1509
I1
sS'Ryan S. Baker'
p1510
I1
sS'Wen Li'
p1511
I1
sS'Jorge P\xc3\xa9rez 0001'
p1512
I1
sS'Marie-Claude Gaudel'
p1513
I1
sS'Wolfgang Faber 0001'
p1514
I3
sS'Micha\xc3\xabl Petit'
p1515
I1
sS'Qiquan Shi'
p1516
I1
sS'Azadeh Alavi'
p1517
I1
sS'Yaming Sun'
p1518
I1
sS'Ana Cristina Mendes'
p1519
I1
sS'Ido Nevat'
p1520
I1
sS'\xc3\x93scar Mart\xc3\xadnez Mozos'
p1521
I1
sS'Alessandro Cimatti'
p1522
I2
sS'Dinesh Garg'
p1523
I1
sS'Angelika Kimmig'
p1524
I4
sS'Xinxin Bai'
p1525
I1
sS'Jisheng Pei'
p1526
I1
sS'Phan Minh Thang'
p1527
I1
sS'Zinovi Rabinovich'
p1528
I6
sS'Phokion G. Kolaitis'
p1529
I1
sS'Peter Norvig'
p1530
I1
sS'Boyang Li'
p1531
I2
sS'Romain G\xc3\xa9rard'
p1532
I1
sS'Andrew Lim'
p1533
I2
sS'Yuhong Guo'
p1534
I10
sS'Benjamin Moseley'
p1535
I1
sS'Hanqi Guo'
p1536
I1
sS'Xiaotong Zhang'
p1537
I2
sS'Jun Liu 0003'
p1538
I1
sS'Xiao Bai 0001'
p1539
I1
sS'Hengameh Irandoust'
p1540
I1
sS'Fazlul Hasan Siddiqui'
p1541
I2
sS'Christos Hadjinikolis'
p1542
I1
sS'Dehong Ma'
p1543
I1
sS'Andrey Kolobov'
p1544
I4
sS'Nathan Nan Liu'
p1545
I2
sS'Marco Faella'
p1546
I3
sS'Jin Huang'
p1547
I4
sS'Yasunori Yamada'
p1548
I1
sS'Jiaya Jia'
p1549
I1
sS'Kevin Ellis'
p1550
I1
sS'Matteo Venanzi'
p1551
I3
sS'Ryan F. Kelly'
p1552
I1
sS'Vladisav Jelisavcic'
p1553
I2
sS'D. Chris Rayner'
p1554
I2
sS'Daokun Zhang'
p1555
I1
sS'Lior Rokach'
p1556
I1
sS'Kamalakar Karlapalem'
p1557
I1
sS'Alexander Kruglyi'
p1558
I1
sS'Mingming Sun'
p1559
I1
sS'Yuanlin Zhang'
p1560
I5
sS'Jeremias Berg'
p1561
I1
sS'Sook-Ling Chua'
p1562
I2
sS'Jun Wang'
p1563
I3
sS'Tal Grinshpoun'
p1564
I3
sS'Prasanna Gowda'
p1565
I1
sS'Jing-Wen Yang'
p1566
I1
sS'Brian C. Williams'
p1567
I1
sS'Anca D. Dragan'
p1568
I2
sS'Yaohang Li'
p1569
I1
sS'Pavithra Babu'
p1570
I1
sS'Gal A. Kaminka'
p1571
I3
sS'Thibaut Munzer'
p1572
I1
sS'Xin Jiang'
p1573
I1
sS'Tim Hutton'
p1574
I1
sS'Achref El Mouelhi'
p1575
I1
sS'Guohui Yao'
p1576
I2
sS'Hao Li'
p1577
I3
sS'Karl Bringmann'
p1578
I1
sS'Paolo Frasconi'
p1579
I2
sS'Frank Neumann'
p1580
I2
sS'Carlos Hern\xc3\xa1ndez'
p1581
I3
sS'Xianling Mao'
p1582
I1
sS'Ying Xu'
p1583
I1
sS'S. Sundararajan'
p1584
I1
sS'Stefan Szeider'
p1585
I5
sS'Gerhard Neumann'
p1586
I1
sS'Yang Liu 0018'
p1587
I1
sS'Jinbo Huang'
p1588
I5
sS'Oliver Brock'
p1589
I1
sS'Anthony G. Cohn'
p1590
I3
sS'Yun Jiang'
p1591
I1
sS'Xiaohua Zhang'
p1592
I1
sS'Tong Wang'
p1593
I1
sS'Yunsong Meng'
p1594
I2
sS'Penousal Machado'
p1595
I3
sS'Swaprava Nath'
p1596
I1
sS'Wee Sun Lee'
p1597
I1
sS'Peter Robinson'
p1598
I1
sS'Ragavendran Gopalakrishnan'
p1599
I2
sS'Fatemeh Nargesian'
p1600
I1
sS'Daniel Fink'
p1601
I1
sS'Mauro Vallati'
p1602
I4
sS'Jianwu Yang'
p1603
I1
sS'Zhu Cao'
p1604
I1
sS'Sebastian Rudolph'
p1605
I9
sS'Jacob W. Crandall'
p1606
I2
sS'Wen Hua'
p1607
I1
sS'Daniel Villatoro'
p1608
I3
sS'Johannes Kulick'
p1609
I1
sS'Tan Yu'
p1610
I1
sS'Kyung-Min Kim'
p1611
I1
sS'Marc van Zee'
p1612
I2
sS'Dayong Wang'
p1613
I1
sS'David C. Noelle'
p1614
I1
sS'Ross Conroy'
p1615
I2
sS'Qian Liu'
p1616
I2
sS'Seyed Sina Mirrazavi Salehian'
p1617
I1
sS'Mark A. Wood'
p1618
I1
sS'Yasuo Tabei'
p1619
I1
sS'Jeff Z. Pan'
p1620
I2
sS'Xuemin Lin'
p1621
I2
sS'Jasmin Christian Blanchette'
p1622
I2
sS'Balaraman Ravindran'
p1623
I6
sS'Mehul Bhatt'
p1624
I2
sS'Zheng Wang 0007'
p1625
I1
sS'Qifan Yang'
p1626
I2
sS'Sumanth Dathathri'
p1627
I1
sS'Chao Zhang'
p1628
I3
sS'Hossein Shahbazi'
p1629
I1
sS'Wei Wei'
p1630
I2
sS'Lianli Gao'
p1631
I1
sS'Xiao-Bing Xue'
p1632
I1
sS'Edwin V. Bonilla'
p1633
I2
sS'Di He'
p1634
I1
sS'Zuoguan Wang'
p1635
I1
sS'C. Anantaram'
p1636
I1
sS'Meysam Aghighi'
p1637
I1
sS'Ahmed Khalifa'
p1638
I1
sS'Long Gao'
p1639
I1
sS'Adrian Weller'
p1640
I1
sS'Fei Mi'
p1641
I1
sS'Nan Li'
p1642
I5
sS'Daniel S. Farenzena'
p1643
I1
sS'Yaliang Li'
p1644
I1
sS'Haifeng Chen'
p1645
I2
sS'Jimeng Sun'
p1646
I1
sS'Ognjen Arandjelovic'
p1647
I2
sS'Michael Spranger'
p1648
I3
sS'Chen Luo'
p1649
I1
sS'Yao Lu'
p1650
I1
sS'Jie Zhou'
p1651
I1
sS'Barry Smyth'
p1652
I3
sS'Yuyun Gong'
p1653
I1
sS'Jingbo Zhu'
p1654
I1
sS'Qin Lv'
p1655
I1
sS'Qin Lu'
p1656
I2
sS'Mark A. Cameron'
p1657
I1
sS'Alessandro Antonucci'
p1658
I1
sS'Kostyantyn M. Shchekotykhin'
p1659
I2
sS'Hector Mu\xc3\xb1oz-Avila'
p1660
I2
sS'Yi Lu'
p1661
I1
sS'Teemu Hankala'
p1662
I1
sS'Yi Li'
p1663
I2
sS'Cornelia Caragea'
p1664
I3
sS'Paul Harrenstein'
p1665
I4
sS'George W. Fitzmaurice'
p1666
I1
sS'Lahari Poddar'
p1667
I1
sS'Haili Dong'
p1668
I1
sS'Nadia Creignou'
p1669
I1
sS'Mohamed Cheriet'
p1670
I1
sS'Sotetsu Iwamura'
p1671
I1
sS'Amy Isard'
p1672
I1
sS'Valerio Santarelli'
p1673
I2
sS'Martin Wehrle'
p1674
I4
sS'Quang Duong'
p1675
I1
sS'Linda Peelen'
p1676
I1
sS'Xuchao Zhang'
p1677
I2
sS'Jing Zhao'
p1678
I1
sS'Igor Rochlin'
p1679
I1
sS'Yoshihiro Maruyama'
p1680
I1
sS'Nodir Kodirov'
p1681
I1
sS'Michal Afek'
p1682
I1
sS'Azadeh Farzan'
p1683
I1
sS'Jiefei Li'
p1684
I2
sS'Li Zhang'
p1685
I1
sS'Haochen Liu'
p1686
I1
sS'Xiang Cheng 0003'
p1687
I1
sS'Nandan Sudarsanam'
p1688
I1
sS'Chen Chen 0001'
p1689
I1
sS'Gerald Berger'
p1690
I1
sS'Adam Summerville'
p1691
I1
sS'Yuchen Guo'
p1692
I6
sS'Ethan L. Schreiber'
p1693
I1
sS'Timo Mennle'
p1694
I1
sS'Przemyslaw Andrzej Walega'
p1695
I2
sS'Dengdi Sun'
p1696
I1
sS'Dan Xie'
p1697
I1
sS'Deiner Mena'
p1698
I1
sS'Jingjing Li'
p1699
I1
sS'Iku Ohama'
p1700
I1
sS'Roni Stern'
p1701
I7
sS'Biao Liu'
p1702
I2
sS'Satyen Kale'
p1703
I2
sS'Jason Baldridge'
p1704
I1
sS'Martin Mladenov'
p1705
I2
sS'Yuval Marom'
p1706
I1
sS'Zeynep G\xc3\xb6zen Saribatur'
p1707
I1
sS'Andrew M. Lovett'
p1708
I1
sS'Francesca Rossi'
p1709
I5
sS'Shuchang Zhou'
p1710
I1
sS'Anarosa Brand\xc3\xa3o'
p1711
I1
sS'Nguyen Thanh Tam'
p1712
I1
sS'Gilles Audemard'
p1713
I4
sS'Bowen Zhou'
p1714
I1
sS'Shoshana Vasserman'
p1715
I1
sS'Lifeng Shang'
p1716
I1
sS'Yangchen Pan'
p1717
I1
sS'Michael H. Bowling'
p1718
I5
sS'Vincent Mousseau'
p1719
I1
sS'Jean-Fran\xc3\xa7ois Condotta'
p1720
I3
sS'Thomas L\xc3\xa9aut\xc3\xa9'
p1721
I1
sS'Elisa Ricci'
p1722
I1
sS'Yufei Han'
p1723
I1
sS'Gerhard Brewka'
p1724
I9
sS'Jiaguang Sun'
p1725
I1
sS'Yong Xu'
p1726
I1
sS'Zhenghua Xu'
p1727
I1
sS'Ronan LeBras'
p1728
I2
sS'Decebal Constantin Mocanu'
p1729
I1
sS'Jialei Wang'
p1730
I1
sS'Pascal Poupart'
p1731
I7
sS'Philippe Cudr\xc3\xa9-Mauroux'
p1732
I1
sS'David Robertson'
p1733
I1
sS'Feng Tian'
p1734
I2
sS'Ruihua Song'
p1735
I2
sS'Yuan Fang'
p1736
I2
sS'Xiaohua Tony Hu'
p1737
I1
sS'Lin Liu'
p1738
I1
sS'Ismail Ilkan Ceylan'
p1739
I3
sS'Canh Hao Nguyen'
p1740
I1
sS'\xc3\x81lvaro Torralba Arias de Reyna'
p1741
I1
sS'Daniel Khashabi'
p1742
I1
sS'Srikanta Bedathur'
p1743
I1
sS'Scott Kiesel'
p1744
I1
sS'Eric Huang'
p1745
I1
sS'Mikolaj Podlaszewski'
p1746
I1
sS'Stephen William Gilroy'
p1747
I1
sS'Muddasser Alam'
p1748
I1
sS'Piji Li'
p1749
I1
sS'Wolfgang H\xc3\xb6nig'
p1750
I1
sS'David Matheson'
p1751
I1
sS'Netantel Hasidi'
p1752
I1
sS'James Pita'
p1753
I1
sS'Martin Holm Jensen'
p1754
I1
sS'Felipe S\xc3\xa1nchez-Mart\xc3\xadnez'
p1755
I1
sS'Jian-Huang Lai'
p1756
I1
sS'Tim Brys'
p1757
I2
sS'Ping Chen'
p1758
I1
sS'Jason Andrew Wolfe'
p1759
I1
sS'Dimitris Fotakis'
p1760
I1
sS'Ranjitha Kumar'
p1761
I1
sS'Florian Nothdurft'
p1762
I1
sS'Zheng Yang'
p1763
I1
sS'Stefan J. Witwicki'
p1764
I3
sS'Pradeep Varakantham'
p1765
I7
sS'Giovanni Pezzulo'
p1766
I2
sS'Alan W. Black'
p1767
I1
sS'Xuanhui Wang'
p1768
I2
sS'Alessandro Moschitti'
p1769
I1
sS'Liang Yang 0002'
p1770
I2
sS"Michael P. O'Mahony"
p1771
I1
sS'Zhaohui Wu'
p1772
I2
sS'Bernadette Mart\xc3\xadnez Hern\xc3\xa1ndez'
p1773
I1
sS'Jean Yang'
p1774
I1
sS'Ying-Xin Li'
p1775
I1
sS'Paolo Dragone'
p1776
I1
sS'Kevin Leyton-Brown'
p1777
I4
sS'Randall Davis'
p1778
I5
sS'Samy Bengio'
p1779
I1
sS'Zhichun Wang'
p1780
I1
sS'Diane E. Kitchin'
p1781
I1
sS'Xingyu Gao'
p1782
I1
sS'Satomi Baba'
p1783
I1
sS'Ben Horsburgh'
p1784
I2
sS'M. A. Jayaram'
p1785
I1
sS'Jianfeng Lu'
p1786
I1
sS'Hong Cheng'
p1787
I1
sS'Ana Ozaki'
p1788
I1
sS'Zoran Obradovic'
p1789
I3
sS'Eyal Amir'
p1790
I6
sS'Keerthiram Murugesan'
p1791
I1
sS'Shuangyin Li'
p1792
I2
sS'Filipe Casal'
p1793
I1
sS'Kwan Hui Lim'
p1794
I1
sS'Guofei Jiang'
p1795
I1
sS'R. Bharat Rao'
p1796
I4
sS'Anton Dries'
p1797
I3
sS'Bas van Gijzel'
p1798
I1
sS'Chien-Tsung Huang'
p1799
I1
sS'Nicol\xc3\xb2 Navarin'
p1800
I1
sS'Abdeslam Boularias'
p1801
I1
sS'Martine De Cock'
p1802
I3
sS'Yang Cao'
p1803
I1
sS'Hidekazu Oiwa'
p1804
I1
sS'Kejun Zhao'
p1805
I1
sS'Nengneng Gao'
p1806
I1
sS'Jaesong Lee'
p1807
I1
sS'Steven Schockaert'
p1808
I9
sS'Roberto Mart\xc3\xadn-Mart\xc3\xadn'
p1809
I1
sS'Manfred Eppe'
p1810
I1
sS'Lu Bai 0001'
p1811
I1
sS'Ilija Ilievski'
p1812
I1
sS'Han The Anh'
p1813
I1
sS'Wei-Chi Tsai'
p1814
I1
sS'Weiyang Liu'
p1815
I1
sS'Chenxia Wu'
p1816
I1
sS'Jia Yuan Yu'
p1817
I1
sS'Mauricio Martel'
p1818
I1
sS'Ehsan Mohammady Ardehaly'
p1819
I2
sS'Riccardo Zese'
p1820
I2
sS'Michael Bowling'
p1821
I4
sS'Eugenia Ternovska'
p1822
I3
sS'Jingyu Cui'
p1823
I1
sS'Samir Loudni'
p1824
I1
sS'David Isele'
p1825
I1
sS'Brahim Hnich'
p1826
I1
sS'Cristina Cornelio'
p1827
I1
sS'Chung-yeon Lee'
p1828
I1
sS'Jan Struyf'
p1829
I1
sS'Hongwei Jin'
p1830
I1
sS'Philip Kilby'
p1831
I1
sS'Luc Steels'
p1832
I2
sS'Tie-Yan Liu'
p1833
I10
sS'Xu-Cheng Yin'
p1834
I1
sS'Panagiotis Kouvaros'
p1835
I4
sS'Deepak Bhadauria'
p1836
I1
sS'Michael J. Maher'
p1837
I1
sS'David A. Meyer'
p1838
I1
sS'Jorge Jambeiro Filho'
p1839
I1
sS'Chee K. Wong'
p1840
I1
sS'C\xc3\xa9lia da Costa Pereira'
p1841
I3
sS'Majid Sarrafzadeh'
p1842
I1
sS'Mason Wright'
p1843
I1
sS'Ohad Shamir'
p1844
I1
sS'Shuai Zheng 0004'
p1845
I1
sS'Hal Daum\xc3\xa9 III'
p1846
I3
sS'Jeff Huang 0002'
p1847
I1
sS'Katrien Beuls'
p1848
I1
sS'Thanh Hong Nguyen'
p1849
I1
sS'Luis Herranz'
p1850
I1
sS'Tingting He'
p1851
I2
sS'Mohamed E. Hussein'
p1852
I2
sS'Takamasa Tanaka'
p1853
I1
sS'Tyrel Russell'
p1854
I1
sS'Bao-Liang Lu'
p1855
I3
sS'S. S. Ravi'
p1856
I1
sS'Amitabha Mukerjee'
p1857
I1
sS'Claudia Henry'
p1858
I1
sS'Zhiwei Xu'
p1859
I1
sS'Mulin Chen'
p1860
I1
sS'Alexander Tuisov'
p1861
I1
sS'Marco Manna'
p1862
I1
sS'Avi Pfeffer'
p1863
I4
sS'See-Kiong Ng'
p1864
I2
sS'Zhu Zhu'
p1865
I1
sS'Xiuwen Yi'
p1866
I1
sS'Hiroshi Kajino'
p1867
I1
sS'Saeed Bagheri Shouraki'
p1868
I1
sS'Lukas Kroc'
p1869
I1
sS'Ivor W. Tsang'
p1870
I5
sS'Joey Tianyi Zhou'
p1871
I1
sS'Kenichi Okuno'
p1872
I1
sS'Antonella Poggi'
p1873
I1
sS'Guillaume Perez'
p1874
I1
sS'Xiao Ding'
p1875
I1
sS'Charu C. Aggarwal'
p1876
I1
sS'Yishu Miao'
p1877
I1
sS'Nicolas Baskiotis'
p1878
I1
sS'Lei Hou'
p1879
I1
sS'Axel Polleres'
p1880
I1
sS'Gianluigi Greco'
p1881
I10
sS'Xipeng Qiu'
p1882
I9
sS'Christopher J. Pal'
p1883
I1
sS'Jan Leike'
p1884
I2
sS'Eric Hsin-Chun Huang'
p1885
I1
sS'M\xc3\xa9lanie K\xc3\xb6nig'
p1886
I2
sS'Charles X. Ling'
p1887
I3
sS'Peter A. Flach'
p1888
I1
sS'Yu Zhang'
p1889
I6
sS'Borja Balle'
p1890
I1
sS'Michael J. Kearns'
p1891
I1
sS'Lutz Schr\xc3\xb6der'
p1892
I4
sS'Nan Yang'
p1893
I1
sS'Xinyu Yan'
p1894
I1
sS'Peter Stone'
p1895
I11
sS'Wanqing Zhao'
p1896
I1
sS'Huifeng Guo'
p1897
I1
sS'Kewei Tu'
p1898
I2
sS'David Hofmeyr'
p1899
I1
sS'Brian Coltin'
p1900
I1
sS'Cristina Feier'
p1901
I1
sS'Tong Zhao'
p1902
I1
sS'Jinye Peng'
p1903
I1
sS'Jizhou Huang'
p1904
I3
sS'Samba Ndiaye'
p1905
I1
sS'Yahia Lebbah'
p1906
I1
sS'Dafang He'
p1907
I1
sS'Ruohui Wang'
p1908
I1
sS'Zhiguo Long'
p1909
I2
sS'Ryan P. Adams'
p1910
I1
sS'Thomas Hofmann'
p1911
I1
sS'Kai Yang'
p1912
I1
sS'Valerie Shute'
p1913
I1
sS'Rui Chen'
p1914
I1
sS'Anqi Cui'
p1915
I1
sS'Chinmay Kulkarni'
p1916
I1
sS'Kaixiang Mo'
p1917
I1
sS'Xiangliang Zhang'
p1918
I1
sS'Krishna P. Miyapuram'
p1919
I1
sS'Hui Jiang'
p1920
I2
sS'Gildas Jeantet'
p1921
I1
sS'Ana Cort\xc3\xa9s'
p1922
I1
sS'Chad Hogg'
p1923
I2
sS'Peter Kissmann'
p1924
I1
sS'Tong Xiao'
p1925
I1
sS'Aniket Chakrabarti'
p1926
I1
sS'Zihe Wang'
p1927
I1
sS'Garrison W. Cottrell'
p1928
I2
sS'Qing Ling'
p1929
I1
sS'Thomas Cederborg'
p1930
I1
sS'Nisarg Shah 0001'
p1931
I3
sS'Junichiro Mori'
p1932
I1
sS'Jan Rupnik'
p1933
I1
sS'Philippe Muller'
p1934
I1
sS'Zhenan Sun'
p1935
I1
sS'Zheng Wang'
p1936
I1
sS'Logan Gittelson'
p1937
I1
sS'Eric A. Hansen'
p1938
I4
sS'Barbara Plank'
p1939
I1
sS'Eric Jeffrey Peterson'
p1940
I1
sS'Chengcheng Xu'
p1941
I1
sS'Zhuotun Zhu'
p1942
I1
sS'Gert Rickheit'
p1943
I1
sS'Mengjiao Xie'
p1944
I1
sS'Meichun Liu'
p1945
I1
sS'Sheng Zhong'
p1946
I1
sS'Xiaowei Ying'
p1947
I1
sS'Timothy M. Hospedales'
p1948
I2
sS'Li-Lun Wang'
p1949
I1
sS'Pablo Samuel Castro'
p1950
I2
sS'Florian Brandl'
p1951
I2
sS'Guillaume Infantes'
p1952
I1
sS'Xiaofang Zhou'
p1953
I3
sS'Makoto Yamada'
p1954
I3
sS'Nigel R. Shadbolt'
p1955
I1
sS'Jungong Han'
p1956
I8
sS'Rajarshi Das'
p1957
I1
sS'Johannes F\xc3\xbcrnkranz'
p1958
I1
sS'Slobodan Vucetic'
p1959
I2
sS'Luis Enrique Sucar'
p1960
I3
sS'Alisa Kovtunova'
p1961
I1
sS'Diego C. Mart\xc3\xadnez'
p1962
I1
sS'Kyoung-Woon On'
p1963
I1
sS'Donghan Wang'
p1964
I1
sS'Maede Rayatidamavandi'
p1965
I1
sS'Shanfeng Zhu'
p1966
I2
sS'Mohamed Siala 0002'
p1967
I2
sS'David Lawless'
p1968
I1
sS'Ondrej Cepek'
p1969
I1
sS'Marian-Andrei Rizoiu'
p1970
I2
sS'Takuya Konishi'
p1971
I1
sS'Zhizhong Li'
p1972
I1
sS'Naonori Ueda'
p1973
I3
sS'Ben Zion Vatashsky'
p1974
I1
sS'Ping Hou'
p1975
I3
sS'Jon M. Kleinberg'
p1976
I1
sS'Mostepha Redouane Khouadjia'
p1977
I1
sS'Guilin Qi'
p1978
I1
sS'Richard Dearden'
p1979
I3
sS'Baharak Rastegari'
p1980
I1
sS'Justus H. Piater'
p1981
I1
sS'Quan Yu'
p1982
I1
sS'Jean-Fran\xc3\xa7ois Baget'
p1983
I4
sS'James Trimble'
p1984
I2
sS'Dimitrios Antos'
p1985
I2
sS'Alfonso Gerevini'
p1986
I1
sS'Ivan Serina'
p1987
I1
sS'Martin Renqiang Min'
p1988
I1
sS'Keith Clark'
p1989
I1
sS'Karthik Sridharan'
p1990
I1
sS'Shen-Yu Miao'
p1991
I1
sS'Jens Otten'
p1992
I1
sS'Daniel Gray Goldstein'
p1993
I1
sS'Zhefeng Wang'
p1994
I1
sS'Hsin-Hsi Chen'
p1995
I1
sS'Eric Eaton'
p1996
I2
sS'Sangho Suh'
p1997
I1
sS'Geoffrey J. Gordon'
p1998
I1
sS'Jingyi Zhang'
p1999
I1
sS'Hai H. Wang'
p2000
I1
sS'Zhen Wen'
p2001
I1
sS'Michael Zakharyaschev'
p2002
I9
sS'Irina Rabkina'
p2003
I1
sS'Clayton T. Morrison'
p2004
I1
sS'Haruhiko Sato'
p2005
I1
sS'Hang Yin'
p2006
I1
sS'Marta R. Costa-Juss\xc3\xa0'
p2007
I1
sS'Hassan L. Hijazi'
p2008
I1
sS'Michel C. A. Klein'
p2009
I1
sS'Andrew H. Sung'
p2010
I1
sS'Caelan Reed Garrett'
p2011
I1
sS'Shiyu Chang'
p2012
I3
sS'Seong Jae Lee'
p2013
I1
sS'Peter Habermehl'
p2014
I1
sS'Namgi Han'
p2015
I1
sS'Yiannis Demiris'
p2016
I1
sS'Pedro Henrique Santana'
p2017
I2
sS'Jun-Ming Xu'
p2018
I1
sS'Taifeng Wang'
p2019
I1
sS'Paul Doran'
p2020
I1
sS'Michal Pechoucek'
p2021
I1
sS'Jianguang Du'
p2022
I1
sS'Hanzhang Song'
p2023
I1
sS'Liangpeng Zhang'
p2024
I1
sS'Ronald de Haan'
p2025
I2
sS'Yunseong Hwang'
p2026
I1
sS'Chunyuan Li'
p2027
I1
sS'Prashant Doshi'
p2028
I4
sS'Peter Organisciak'
p2029
I1
sS'Marc Schoenauer'
p2030
I1
sS'Krzysztof Z. Gajos'
p2031
I1
sS'Evangelos Markakis'
p2032
I1
sS'Huachun Tan'
p2033
I1
sS'Dekai Wu'
p2034
I2
sS'Yisong Wang'
p2035
I2
sS'Patrice Seyed'
p2036
I1
sS'Farokh B. Bastani'
p2037
I1
sS'Iryoung Jeong'
p2038
I1
sS'Katsuhiko Ishiguro'
p2039
I1
sS'Chun-Liang Li'
p2040
I1
sS'Jan Johannsen'
p2041
I1
sS'Sheng Wang'
p2042
I1
sS'Luk\xc3\xa1s Chrpa'
p2043
I5
sS'Zechao Li'
p2044
I2
sS'Holger Billhardt'
p2045
I1
sS'Ansaf Salleb-Aouissi'
p2046
I1
sS'Stefan Trausan-Matu'
p2047
I1
sS'Ian A. Kash'
p2048
I1
sS'Lubin Wang'
p2049
I1
sS'Gerhard Weikum'
p2050
I2
sS'Mohammad Ghavamzadeh'
p2051
I3
sS'Yolanda E.-Mart\xc3\xadn'
p2052
I1
sS'Xianghua Xu'
p2053
I1
sS'Robert Kleinberg'
p2054
I1
sS'Yue Lu'
p2055
I1
sS'Pengjing Zhang'
p2056
I1
sS'Masaru Kitsuregawa'
p2057
I2
sS'Mart\xc3\xad Bosch'
p2058
I1
sS'Rosalind W. Picard'
p2059
I1
sS'Leon Illanes'
p2060
I1
sS'Dirk Walther 0002'
p2061
I2
sS'Guy Shani'
p2062
I4
sS'Dit-Yan Yeung'
p2063
I7
sS'Christopher Jefferson'
p2064
I3
sS'Maxwell Svetlik'
p2065
I2
sS'Rosaria Conte'
p2066
I1
sS'Jos\xc3\xa9 Miguel Hern\xc3\xa1ndez-Lobato'
p2067
I1
sS'Fei Li'
p2068
I1
sS'Haiping Lu'
p2069
I3
sS'Peter Flach'
p2070
I1
sS'Ankush Khandelwal'
p2071
I1
sS'Huayu Li'
p2072
I3
sS'Yong Lai'
p2073
I1
sS'Gim Guan Chua'
p2074
I1
sS'Yiannis Siantos'
p2075
I1
sS'Jiayu Zhou'
p2076
I2
sS'Yi Wu'
p2077
I2
sS'Lorenzo Lepore'
p2078
I1
sS'Yu Sun'
p2079
I1
sS'Daniele Nardi'
p2080
I2
sS'Takayuki Mouri'
p2081
I1
sS'Ayumi Arai'
p2082
I1
sS'Peter Clark'
p2083
I1
sS'Diana Troanca'
p2084
I2
sS'Jeffrey P. Bigham'
p2085
I1
sS'Joshua Goodman'
p2086
I1
sS'Takayuki Osogami'
p2087
I4
sS'Xindong Wu'
p2088
I5
sS'Joel J. Cartwright'
p2089
I1
sS'Takanori Hayashi 0002'
p2090
I1
sS'Dawei Zhou'
p2091
I1
sS'Hoong Chuin Lau'
p2092
I2
sS'Xiang-Yu Guo'
p2093
I2
sS'Aron Culotta'
p2094
I2
sS'Terry L. Zimmerman'
p2095
I1
sS'Xueqiang Lv'
p2096
I1
sS'Zhiqiang Tang'
p2097
I1
sS'Yongjian Wu'
p2098
I1
sS'Ofer Meshi'
p2099
I1
sS'Massimo Mecella'
p2100
I1
sS'Rong Yang'
p2101
I2
sS'Run-ze Wu'
p2102
I1
sS'Bo Liu'
p2103
I1
sS'Muhammad Arshad Ul Abedin'
p2104
I1
sS'Richard G. Gibson'
p2105
I1
sS'Ario Santoso'
p2106
I2
sS'Giovanni Casini'
p2107
I3
sS'Sanmay Das'
p2108
I3
sS'Peter Nov\xc3\xa1k 0001'
p2109
I1
sS'Jie Hao'
p2110
I1
sS'Chang Wan'
p2111
I1
sS'Xin Gao'
p2112
I1
sS'Carlos Grand\xc3\xb3n'
p2113
I1
sS'Aaditya Ramdas'
p2114
I2
sS'Bernhard Pfahringer'
p2115
I2
sS'Xinbo Gao'
p2116
I6
sS'Munindar P. Singh'
p2117
I8
sS'Luca de Alfaro'
p2118
I1
sS'Xiaoming Zhang'
p2119
I1
sS'Javier Romero 0003'
p2120
I1
sS'Tian Gao'
p2121
I1
sS'Wenye Li'
p2122
I2
sS'Phani Divakaruni'
p2123
I1
sS'Jinqiao Wang'
p2124
I1
sS'David W. Patterson'
p2125
I1
sS'George Tsatsaronis'
p2126
I1
sS'Kees van Deemter'
p2127
I1
sS'Gerardo Berbeglia'
p2128
I3
sS'Stephen J. Guy'
p2129
I1
sS'Anton van den Hengel'
p2130
I1
sS'Yannick Pencol\xc3\xa9'
p2131
I2
sS'Paul Duckworth'
p2132
I1
sS'Marc Dymetman'
p2133
I1
sS'Michael Drinkwater'
p2134
I1
sS'Franco Scarselli'
p2135
I1
sS'Yoshinobu Kawahara'
p2136
I1
sS'Anna Helena Reali Costa'
p2137
I2
sS'Shiaokai Wang'
p2138
I1
sS'Jintao Li'
p2139
I3
sS'Son Thanh To'
p2140
I3
sS'Fengzhen Tang'
p2141
I1
sS'Jos\xc3\xa9 Luis Ambite'
p2142
I1
sS'Sergio Esparcia'
p2143
I1
sS'Negar Hariri'
p2144
I1
sS'David Sarne'
p2145
I3
sS'Fano Ramparany'
p2146
I1
sS'Chengqi Zhao'
p2147
I1
sS'Jing Ma'
p2148
I1
sS'Mingkuan Yuan'
p2149
I1
sS'Paulo T. Guerra'
p2150
I1
sS'Yingming Li'
p2151
I1
sS'Weiping Wang'
p2152
I1
sS'Jerry Moorhead'
p2153
I1
sS'Zhi Qiang Zhuang'
p2154
I2
sS'Michael Kirley'
p2155
I1
sS'Gian Piero Favini'
p2156
I2
sS'Evi Micha'
p2157
I1
sS'Zachary B. Rubinstein'
p2158
I1
sS'Guy Avni'
p2159
I1
sS'Pengfei Wei'
p2160
I1
sS'Adam Drake'
p2161
I1
sS'Jiajun Wu'
p2162
I1
sS'Christian Plagemann'
p2163
I2
sS'Zhiang Wu 0001'
p2164
I2
sS'Morten Mossige'
p2165
I1
sS'Young-In Shin'
p2166
I1
sS'Zhenfeng Yuan'
p2167
I1
sS'Cheng Yang'
p2168
I2
sS'Jialie Shen'
p2169
I4
sS'Kevin D. Seppi'
p2170
I1
sS'Tiejun Zhao'
p2171
I2
sS'Tobias Grubenmann'
p2172
I1
sS'Guy Van den Broeck'
p2173
I9
sS'Zhanpeng Fang'
p2174
I1
sS'Bob Price'
p2175
I1
sS'Liang-Chen Wei'
p2176
I1
sS'Guillermo Ricardo Simari'
p2177
I4
sS'Zhengyu Yin'
p2178
I1
sS'Hai Zhuge'
p2179
I1
sS'Rahman Mukras'
p2180
I1
sS'Xiangnan He 0001'
p2181
I3
sS'Xia Hu'
p2182
I5
sS'Priyanka Khante'
p2183
I1
sS'Jose M. Such'
p2184
I2
sS'Ling Jian'
p2185
I1
sS'Mark Craven'
p2186
I1
sS'Derek G. Bridge'
p2187
I1
sS'Marc Denecker'
p2188
I4
sS'Allen Hicken'
p2189
I1
sS'Orna Kupferman'
p2190
I1
sS'Jaakko Peltonen'
p2191
I1
sS'Suming Jeremiah Chen'
p2192
I1
sS'Yang Wang 0023'
p2193
I2
sS'Fei Xia'
p2194
I1
sS'Ren\xc3\xa9 Quiniou'
p2195
I2
sS'Dennis McLeod'
p2196
I1
sS'Sharon Goldwater'
p2197
I1
sS'Jun Zhao 0001'
p2198
I8
sS'Homa B. Hashemi'
p2199
I1
sS'Michail Fasoulakis'
p2200
I1
sS'Ming Gu 0001'
p2201
I1
sS'Yash Raj Shrestha'
p2202
I1
sS"Barry O'Sullivan"
p2203
I11
sS'Yuxin Peng'
p2204
I3
sS'Miguel \xc3\x81. Carreira-Perpi\xc3\xb1\xc3\xa1n'
p2205
I1
sS'Jean-Michel Jolion'
p2206
I1
sS'Radu Florian'
p2207
I1
sS'I-Ling Yen'
p2208
I1
sS'Matthias Knorr'
p2209
I1
sS'Huei Diana Lee'
p2210
I1
sS'Emad A. M. Andrews'
p2211
I1
sS'Xiaoling Wang'
p2212
I1
sS'Takeshi Yamada'
p2213
I1
sS'Leonid Peshkin'
p2214
I1
sS'Huy Mai'
p2215
I1
sS'Yifei Lu'
p2216
I1
sS'Shaul Markovitch'
p2217
I4
sS'Jichen Zhu'
p2218
I2
sS'Djallel Bouneffouf'
p2219
I2
sS'Ewen Maclean'
p2220
I1
sS'Vitor Bosshard'
p2221
I1
sS'Md. Abed Rahman'
p2222
I1
sS'Rebecca Hwa'
p2223
I1
sS'Sibi Venkatesan'
p2224
I1
sS'Gerda Janssens'
p2225
I1
sS'Stratis Skoulakis'
p2226
I1
sS'Rong Zhou 0001'
p2227
I3
sS'Sandip Sen'
p2228
I6
sS'Li Shang'
p2229
I1
sS'Mathias Fleury'
p2230
I1
sS'Yabing Zha'
p2231
I1
sS'Bhavani M. Thuraisingham'
p2232
I1
sS'Qingshan Liu'
p2233
I1
sS'Hanghang Tong'
p2234
I1
sS'Lijun Jiang'
p2235
I1
sS'Qi Wang'
p2236
I2
sS'Arjun Mukherjee'
p2237
I1
sS'Piotr Wieczorek'
p2238
I1
sS'Dirk Pattinson'
p2239
I3
sS'Jun Zhu'
p2240
I8
sS'Kumiko Tanaka-Ishii'
p2241
I1
sS'Panagiotis Kanellopoulos'
p2242
I2
sS'Hadas Kress-Gazit'
p2243
I1
sS'Jia Zhu'
p2244
I1
sS'Cristina Bosco'
p2245
I1
sS'Patrice Boizumault'
p2246
I1
sS'Baihua Xiao'
p2247
I1
sS'Anthony J. Bonner'
p2248
I1
sS'Laurent Soulier'
p2249
I1
sS'Akanksha Shrivastava'
p2250
I1
sS'Guillaume Ravilly-Abadie'
p2251
I1
sS'Ivana Kruijff-Korbayov\xc3\xa1'
p2252
I1
sS'Tessa A. Lau'
p2253
I1
sS'Longbing Cao'
p2254
I8
sS'Toru Ishida'
p2255
I4
sS'Miguel Couceiro'
p2256
I1
sS'Benjamin Bittner'
p2257
I1
sS'Masashi Toyoda'
p2258
I1
sS'David Obdrz\xc3\xa1lek'
p2259
I1
sS'Dorothea Baumeister'
p2260
I1
sS'Girish Chafle'
p2261
I1
sS'Alban Grastien'
p2262
I5
sS'Abdelkader Ouali'
p2263
I1
sS'Bongshin Lee'
p2264
I1
sS'Estefania Argente'
p2265
I1
sS'Weidong Ma'
p2266
I3
sS'Xin Mu'
p2267
I1
sS'Xiao-Xin Li'
p2268
I1
sS'Ziwei Huo'
p2269
I1
sS'Kin-Hong Lee'
p2270
I1
sS'Zhaohong Sun'
p2271
I1
sS'M. Syamala Devi'
p2272
I1
sS'Levente Kocsis'
p2273
I1
sS'Patrick Eyerich'
p2274
I1
sS'Noa Agmon'
p2275
I6
sS'Yan Zhang'
p2276
I3
sS'Jon Doyle'
p2277
I1
sS'Michele Stawowy'
p2278
I1
sS'Yi Fan'
p2279
I2
sS'Yi Liao'
p2280
I1
sS'Elena Bellodi'
p2281
I1
sS'William Yang Wang'
p2282
I2
sS'Bin Cao 0001'
p2283
I2
sS'Bin Wu'
p2284
I1
sS'Tom Diethe'
p2285
I1
sS'Dinesh Manocha'
p2286
I1
sS'German Rigau'
p2287
I1
sS'Zhiwei Zhu'
p2288
I1
sS'Christian Bessi\xc3\xa8re'
p2289
I4
sS'Jingrui He'
p2290
I5
sS'Hong Zhao'
p2291
I1
sS'Wu-Jun Li'
p2292
I7
sS'Agust\xc3\xadn Valverde'
p2293
I1
sS'Johannes Textor'
p2294
I1
sS'Yuyi Wang'
p2295
I1
sS'Carmel Domshlak'
p2296
I3
sS'Daniel J. Navarro'
p2297
I1
sS'Yizheng Zhao'
p2298
I2
sS'Manuele Bicego'
p2299
I2
sS'James Bowen'
p2300
I1
sS'Jake Chandler'
p2301
I1
sS'Juanzi Li'
p2302
I3
sS'Anisse Ismaili'
p2303
I1
sS'Hadrien Cambazard'
p2304
I1
sS'Marcin Jurdzinski'
p2305
I1
sS'Andrew Evdokimov'
p2306
I1
sS'Nicolas Schwind'
p2307
I3
sS'Shirui Pan'
p2308
I4
sS'David Parker 0001'
p2309
I1
sS'Xi C. Chen'
p2310
I1
sS'Vadim Bulitko'
p2311
I5
sS'Lucas M. Tabajara'
p2312
I1
sS'Jingwei Zhuo'
p2313
I2
sS'Pradeep Natarajan'
p2314
I1
sS'J\xc3\xa9r\xc3\xa9mie Mary'
p2315
I1
sS'Congqi Cao'
p2316
I1
sS'Xinwang Liu'
p2317
I4
sS'Daniel Ricks'
p2318
I1
sS'Jure Zabkar'
p2319
I1
sS'Aleksander Kolcz'
p2320
I1
sS'Xuemei Hu'
p2321
I1
sS'Jose Sepulveda'
p2322
I1
sS'Guifeng Wang'
p2323
I1
sS'Tingting Li'
p2324
I1
sS'Mohamed Elsayed Hussein'
p2325
I1
sS'Ken Satoh'
p2326
I1
sS'Kurt De Grave'
p2327
I1
sS'Jos\xc3\xa9 Francisco Ruiz-Mu\xc3\xb1oz'
p2328
I1
sS'Sam Bayless'
p2329
I1
sS'Fabrice Mayran de Chamisso'
p2330
I1
sS'Jackson Paul Matsuura'
p2331
I1
sS'Joachim Gudmundsson'
p2332
I1
sS'Dereck Toker'
p2333
I1
sS'Daoqiang Zhang'
p2334
I1
sS'Brian Williams'
p2335
I1
sS'Cynthia Fisher'
p2336
I1
sS'Guo-Xian Yu'
p2337
I1
sS'Fusun Yaman'
p2338
I2
sS'Manuel Fernandez'
p2339
I1
sS'Xiaojian Wu'
p2340
I1
sS'Glenn Taylor'
p2341
I1
sS'F\xc3\xa9lix Bou'
p2342
I1
sS'Stephanie Valentine'
p2343
I1
sS'Martin M\xc3\xbcller 0003'
p2344
I7
sS'Yuming Zhou'
p2345
I1
sS'Kenneth D. Forbus'
p2346
I5
sS'Matthew Ventura'
p2347
I1
sS'Suda Bharadwaj'
p2348
I1
sS'Nicolas Peltier'
p2349
I1
sS'Lin Xu'
p2350
I2
sS'Alberto Marchesi'
p2351
I1
sS'Tomasz Rej'
p2352
I1
sS'Fatina Shukur'
p2353
I1
sS'Elias Bareinboim'
p2354
I2
sS'Wei Wei 0008'
p2355
I1
sS'Weiru Liu'
p2356
I2
sS'Kuan Li'
p2357
I1
sS'David Hemmi'
p2358
I1
sS'Piotr Tadeusz Bilinski'
p2359
I1
sS'Aur\xc3\xa9lie Favier'
p2360
I1
sS'Mikhail Bilenko'
p2361
I1
sS'P. P. Chakrabarti'
p2362
I1
sS'Guillaume Aucher'
p2363
I3
sS'Lei Shi'
p2364
I4
sS'Joseph C. Osborn'
p2365
I2
sS'Zhenguo Li'
p2366
I1
sS'Jesse Heyninck'
p2367
I1
sS'Gerald Steinbauer'
p2368
I1
sS'Peifeng Yin'
p2369
I1
sS'Patrick Olivier'
p2370
I1
sS'Feng Yu'
p2371
I1
sS'Chao Huang'
p2372
I2
sS'Moshe Mash'
p2373
I2
sS'Anthony M. Harrison'
p2374
I1
sS'Renato Paes Leme'
p2375
I1
sS'Bertrand Mazure'
p2376
I2
sS'Ming Shao'
p2377
I4
sS'David Page'
p2378
I2
sS'Thomas \xc3\x85gotnes'
p2379
I4
sS'Deepan Subrahmanian Palguna'
p2380
I1
sS'Pasquale Foggia'
p2381
I1
sS'Jing Gao'
p2382
I1
sS'Xuegang Hu'
p2383
I1
sS'Joanna Bryson'
p2384
I3
sS'Fr\xc3\xa9d\xc3\xa9ric Koriche'
p2385
I4
sS'Joanna Drummond'
p2386
I2
sS'Ricardo M. Araujo'
p2387
I2
sS'James Shaw'
p2388
I1
sS'Masataro Asai'
p2389
I1
sS'Ming Yin'
p2390
I1
sS'Yizhe Zhang'
p2391
I1
sS"Stephen O'Leary"
p2392
I1
sS'Gholamreza Haffari'
p2393
I1
sS'Jiacheng Xu'
p2394
I1
sS'Shane Halloran'
p2395
I1
sS'Ian Pratt-Hartmann'
p2396
I1
sS'Hady Wirawan Lauw'
p2397
I3
sS'Thanawin Rakthanmanon'
p2398
I1
sS'Sanasam Ranbir Singh'
p2399
I1
sS'Sebastian H\xc3\xb6fer'
p2400
I2
sS'David Minnen'
p2401
I1
sS'Lefei Zhang'
p2402
I2
sS'Fei Wang'
p2403
I2
sS'Francesc Esteva'
p2404
I1
sS'Ju Fan'
p2405
I1
sS'Yexiang Xue'
p2406
I3
sS'Virginia Savova'
p2407
I1
sS'David Leake'
p2408
I1
sS'Michal Valko'
p2409
I1
sS'Nitin Yadav'
p2410
I4
sS'Jorge A. Baier'
p2411
I7
sS'Yiling Chen'
p2412
I3
sS'Jun Yin'
p2413
I1
sS'Vladimir Lifschitz'
p2414
I3
sS'Sam Blasiak'
p2415
I1
sS'Suresh Venkatasubramanian'
p2416
I1
sS'Francesca Toni'
p2417
I2
sS'Dougal Maclaurin'
p2418
I1
sS'Timothy Yee'
p2419
I1
sS'Jian Huang'
p2420
I1
sS'Youzhi Zhang'
p2421
I1
sS'Yue Deng'
p2422
I1
sS'Geoff James'
p2423
I1
sS'Liping Xie'
p2424
I1
sS'Nagiza F. Samatova'
p2425
I3
sS'Yusen Zhan'
p2426
I1
sS'Xiangwen Liao'
p2427
I1
sS'Rui Wang 0015'
p2428
I1
sS'Heiko Wersing'
p2429
I1
sS'Meng Chang'
p2430
I1
sS'Alexander Kleiner'
p2431
I1
sS'Pascal Van Hentenryck'
p2432
I8
sS'Jiayi Ma 0001'
p2433
I1
sS'Sean Padraig Brennan'
p2434
I1
sS'David Billington'
p2435
I1
sS'Chia-chun Lian'
p2436
I1
sS'Bistra Dilkina'
p2437
I1
sS'Giorgos Stoilos'
p2438
I3
sS'Gabriele R\xc3\xb6ger'
p2439
I4
sS'Zhiqian Chen'
p2440
I1
sS'Junfeng Wen'
p2441
I1
sS'Liyun Ru'
p2442
I2
sS'Maria Carolina Monard'
p2443
I1
sS'Yuezhou Lv'
p2444
I1
sS'Jiawei Han 0001'
p2445
I8
sS'V\xc3\xadctor Guti\xc3\xa9rrez-Basulto'
p2446
I3
sS'Andreas Schutt'
p2447
I1
sS'Kathleen McKeown'
p2448
I3
sS'David B. Leake'
p2449
I1
sS'Saher Esmeir'
p2450
I1
sS'Enrico Costanza'
p2451
I1
sS'Richang Hong'
p2452
I2
sS'Ga Wu'
p2453
I1
sS'Eiichiro Sumita'
p2454
I2
sS'Piotr Indyk'
p2455
I1
sS'Jing Dai'
p2456
I1
sS'Marco Benedetti'
p2457
I1
sS'Xiaokang Yang'
p2458
I5
sS'Yonggang Wen'
p2459
I3
sS'Phan Minh Dung'
p2460
I1
sS'Minh Binh Do'
p2461
I4
sS'Darryl Balderas'
p2462
I1
sS'Zhiting Hu'
p2463
I1
sS'Cyrill Stachniss'
p2464
I1
sS'Aurelie C. Lozano'
p2465
I1
sS'Zhenhui Li'
p2466
I1
sS'Sargur N. Srihari'
p2467
I1
sS'Zhihua Zhang'
p2468
I5
sS'Xin Huang'
p2469
I3
sS'Llu\xc3\xads M\xc3\xa0rquez'
p2470
I1
sS'Hu Qin'
p2471
I1
sS'Wei Zhao'
p2472
I1
sS'Yanping Xiang'
p2473
I1
sS'Lihua Wu'
p2474
I1
sS'Toshiharu Sugawara'
p2475
I1
sS'Guoping Long'
p2476
I2
sS'Guoqiang Zhong'
p2477
I1
sS'Dacheng Tao'
p2478
I24
sS'Andrew Koster'
p2479
I1
sS'Xinchi Chen'
p2480
I1
sS'Gerhard Lakemeyer'
p2481
I8
sS'Samuel Thomas'
p2482
I2
sS'Sriram Krishnan'
p2483
I1
sS'Ronny Tjahyadi'
p2484
I1
sS'Shehroz S. Khan'
p2485
I1
sS'Weixi Zhu'
p2486
I1
sS'Thierry Vidal'
p2487
I1
sS'Tom Schaul'
p2488
I2
sS'Ping Wang'
p2489
I1
sS'Amit Kumar Pandey'
p2490
I1
sS'Ingo Pill'
p2491
I3
sS'Longfei Han'
p2492
I1
sS'Cl\xc3\xa1udia Nalon'
p2493
I1
sS'Daniel Francis Schmidt'
p2494
I1
sS'Stefan Reiterer'
p2495
I1
sS'Feiping Nie'
p2496
I36
sS'Ulrich Schaechtle'
p2497
I1
sS'Hans-Joachim W\xc3\xbcnsche'
p2498
I1
sS'Angelina Vidali'
p2499
I1
sS'Pei Yue'
p2500
I1
sS'Jingwen Wang'
p2501
I1
sS'Tarik Hadzic'
p2502
I1
sS'Fabian M. Suchanek'
p2503
I1
sS'Sertan Girgin'
p2504
I1
sS'Carlos Ans\xc3\xb3tegui'
p2505
I4
sS'Yunji Chen'
p2506
I1
sS'Pieter Abbeel'
p2507
I2
sS'Dongxiao He'
p2508
I1
sS'Shohei Ohsawa'
p2509
I1
sS'Rada Chirkova'
p2510
I1
sS'Yoshiyuki Nakamura'
p2511
I1
sS'Sang-Woo Lee'
p2512
I1
sS'Pragnesh Jay Modi'
p2513
I1
sS'Sihong Xie'
p2514
I2
sS'Mehdi Kaytoue'
p2515
I2
sS'Mark Roberts'
p2516
I1
sS'Iyad Rahwan'
p2517
I1
sS'Yunyao Li'
p2518
I1
sS'Kaile Su'
p2519
I9
sS'Rino Falcone'
p2520
I2
sS'Bryan Renne'
p2521
I1
sS'Daniel Bryce'
p2522
I2
sS'Qing Li'
p2523
I1
sS'Sebastian Ordyniak'
p2524
I3
sS'Alejandro Uriel Carbonara'
p2525
I1
sS'Antonio Picariello'
p2526
I2
sS'Han-Jia Ye'
p2527
I2
sS'Markus Stumptner'
p2528
I1
sS'Michael P. Holmes'
p2529
I1
sS'Matthew Grum'
p2530
I1
sS'Mike Smith 0002'
p2531
I1
sS'Johannes Hofbauer'
p2532
I1
sS'Xiaobai Liu'
p2533
I4
sS'Fabio Ramos'
p2534
I4
sS'Daqing Yi'
p2535
I2
sS'Sven Koenig'
p2536
I12
sS'Yue Hu'
p2537
I2
sS'Xin Luo'
p2538
I1
sS'Lincheng Shen'
p2539
I1
sS'Wookhee Min'
p2540
I2
sS'Zhi Qiao'
p2541
I1
sS'Ana Cristina Bicharra Garcia'
p2542
I1
sS'Maleeha Qazi'
p2543
I1
sS'Yuan Qi'
p2544
I2
sS'Arnaud Delhay'
p2545
I1
sS'Jingdong Wang'
p2546
I2
sS'Chao-Chun Liang'
p2547
I2
sS'Ryan B. Hayward'
p2548
I1
sS'Jean-S\xc3\xa9bastien Lerat'
p2549
I1
sS'Joshua Akehurst'
p2550
I1
sS'Kurt M. Dresner'
p2551
I1
sS'Tsuhan Chen'
p2552
I1
sS'Pauline Ezanno'
p2553
I1
sS'Yanxin Shi'
p2554
I1
sS'Xuelong Li'
p2555
I6
sS'Reid G. Simmons'
p2556
I1
sS'Ricardo Ribeiro 0001'
p2557
I1
sS'Piotr Sankowski'
p2558
I1
sS'G. Praveen'
p2559
I1
sS'Ehud Sharlin'
p2560
I1
sS'Jordan Tyler Thayer'
p2561
I2
sS'Alan M. Frisch'
p2562
I1
sS'Qinghua Zheng'
p2563
I3
sS'Yixin Chen'
p2564
I4
sS'Chavalit Likitvivatanavong'
p2565
I2
sS'Duc-Son Pham'
p2566
I1
sS'David Wingate'
p2567
I3
sS'Cesare Alippi'
p2568
I1
sS'Adam Clearwater'
p2569
I1
sS'Franz Baader'
p2570
I2
sS'Michel Wilson'
p2571
I1
sS'Xuefeng Chen'
p2572
I1
sS'Jin-Woo Chung'
p2573
I1
sS'Guibing Guo'
p2574
I2
sS'Cheng Jin'
p2575
I4
sS'Shoushan Li'
p2576
I4
sS'Kathryn Mazaitis'
p2577
I1
sS'Nguyen Quoc Viet Hung'
p2578
I1
sS'Maria Chli'
p2579
I1
sS'Carmine Dodaro'
p2580
I3
sS'Aarti Gupta'
p2581
I1
sS'Solomon Y. Sonya'
p2582
I1
sS'Olivier Pietquin'
p2583
I3
sS'Jie Cao'
p2584
I1
sS'Yrjo Grohn'
p2585
I1
sS'Tim Miller'
p2586
I5
sS'Xuelei Hu'
p2587
I2
sS'Xiaoming Zheng'
p2588
I3
sS'Ivan Donadello'
p2589
I1
sS'Yukun Cheng'
p2590
I1
sS'Moshe Bitan'
p2591
I1
sS'Hugo Gravato Marques'
p2592
I1
sS'Thomas Str\xc3\xb6der'
p2593
I1
sS'Junfa Liu'
p2594
I1
sS'Jon Froehlich'
p2595
I1
sS'Wen-Ji Zhou'
p2596
I1
sS'James Harland'
p2597
I1
sS'Yuxiao Hu'
p2598
I2
sS'Dawson R. Engler'
p2599
I1
sS'Adi Botea'
p2600
I6
sS'Yu Zhou 0001'
p2601
I1
sS'Philipp Sorg'
p2602
I1
sS'Anni-Yasmin Turhan'
p2603
I1
sS'Andrew Perrault'
p2604
I3
sS'Guangyao Shen'
p2605
I2
sS'Federico Heras'
p2606
I2
sS'Juichi Miyamichi'
p2607
I1
sS'Manoj Kumar Chinnakotla'
p2608
I1
sS'Sebastian Bader'
p2609
I1
sS'Ya-Lin Zhang'
p2610
I1
sS'Stefan Wermter'
p2611
I1
sS'Jarryd Martin'
p2612
I1
sS'Kaveh Taghipour'
p2613
I1
sS'Thomas M. Howard'
p2614
I1
sS'Eryk Kopczynski'
p2615
I1
sS'Harald Beck'
p2616
I3
sS'J\xc3\xb6rg Rothe'
p2617
I2
sS'Karel Durkota'
p2618
I1
sS'Yu-Kun Li'
p2619
I1
sS'Ryan Hayward'
p2620
I1
sS'Jianhui Chen'
p2621
I2
sS'Partha Pratim Chakrabarti'
p2622
I1
sS'Elena Cabrio'
p2623
I1
sS'Rahul Malik'
p2624
I1
sS'Frank Pasemann'
p2625
I1
sS'Biwei Huang'
p2626
I2
sS'Jian Su'
p2627
I2
sS'Nir Oren'
p2628
I3
sS'Olivier Buffet'
p2629
I5
sS'Michael Codish'
p2630
I2
sS'Edward Zulkoski'
p2631
I1
sS'Gang Hua'
p2632
I3
sS'Yongdong Zhang'
p2633
I2
sS'Michele Banko'
p2634
I1
sS'Theo P. van der Weide'
p2635
I1
sS'Xiaojin Zhu'
p2636
I1
sS'Wei Zhang'
p2637
I1
sS'Chengqi Zhang'
p2638
I8
sS'Adnan Darwiche'
p2639
I9
sS'Shaoping Ma'
p2640
I6
sS'Ruiping Wang'
p2641
I1
sS'Ting Yuan'
p2642
I1
sS'Daniel Sheldon'
p2643
I2
sS'Thomas Eiter'
p2644
I15
sS'Guangxiang Zeng'
p2645
I1
sS'Daraksha Parveen'
p2646
I1
sS'Xiaolong Wang'
p2647
I1
sS'Saeed Amizadeh'
p2648
I1
sS'Ming Zhou'
p2649
I6
sS'Kiyotaka Uchimoto'
p2650
I1
sS'Han Xiao 0005'
p2651
I1
sS'Joop van de Ven'
p2652
I1
sS'Hendrik Zender'
p2653
I2
sS'Michael Benisch'
p2654
I1
sS'Xu Lu'
p2655
I1
sS'Bo Zhang'
p2656
I5
sS'Yu Hao'
p2657
I2
sS'Yu Han'
p2658
I1
sS'Zhiyong Shen'
p2659
I1
sS'Lu\xc3\xadsa Coheur'
p2660
I1
sS'Masaaki Imaizumi'
p2661
I1
sS'Sarah Eisenstat'
p2662
I1
sS'Haoran Huang'
p2663
I2
sS'Yu Lei'
p2664
I2
sS'Stephan Schiffel'
p2665
I1
sS'David J. Miller 0001'
p2666
I2
sS'Weiwu Hu'
p2667
I1
sS'Zhou Yu'
p2668
I1
sS'De Cheng'
p2669
I1
sS'Sen Su'
p2670
I1
sS'Nicol\xc3\xa1s D. Rotstein'
p2671
I1
sS'Hongchuan Yu'
p2672
I1
sS'Yiyang Yang'
p2673
I1
sS'Changsung Kang'
p2674
I1
sS'Ivan Bratko'
p2675
I1
sS'Shenghua Liu'
p2676
I4
sS'Songlei Jian'
p2677
I1
sS'Alina Strachocka'
p2678
I1
sS'Pablo Noriega'
p2679
I1
sS'Konstantinos Blekas'
p2680
I1
sS'Reuth Mirsky'
p2681
I2
sS'Christophe Labreuche'
p2682
I1
sS'Zhaofeng Li'
p2683
I1
sS'David Sivakoff'
p2684
I1
sS'Enrico Scala'
p2685
I4
sS'Miguel Perez Ayucar'
p2686
I1
sS'Wiktor Mateusz Piotrowski'
p2687
I1
sS'Antonio Lieto'
p2688
I1
sS'Danny Hermelin'
p2689
I1
sS'Yongjoon Joe'
p2690
I1
sS'Wenjun Ma'
p2691
I1
sS'Suat Gedikli'
p2692
I1
sS'Ueli Meier'
p2693
I1
sS'Mina Guirguis'
p2694
I1
sS'Yu Zheng 0004'
p2695
I1
sS'Felipe Maldonado'
p2696
I1
sS'Angel Mora 0001'
p2697
I1
sS'Carleton Coffrin'
p2698
I1
sS'Eleni Tsalapati'
p2699
I1
sS'XiaoJian Wu'
p2700
I4
sS'Shengyu Zhang'
p2701
I2
sS'Haipeng Luo'
p2702
I1
sS'Torsten Schaub'
p2703
I9
sS'Michael Thielscher'
p2704
I6
sS'Yang-Ping Zhu'
p2705
I1
sS'Holger Hoos'
p2706
I1
sS'Ariel Felner'
p2707
I10
sS'Eric Breck'
p2708
I1
sS'Tianji Pang'
p2709
I1
sS'Sven Seuken'
p2710
I5
sS'Jian Lu'
p2711
I1
sS'Xin Wang 0013'
p2712
I1
sS'Wassila Ouerdane'
p2713
I1
sS'Ravi Kothari'
p2714
I1
sS'J. Pablo Munoz'
p2715
I1
sS'Jian Li'
p2716
I2
sS'Andrew Lampert'
p2717
I1
sS'Fangtao Li'
p2718
I2
sS'Selmer Bringsjord'
p2719
I2
sS'Joost Vennekens'
p2720
I2
sS'Nicolas Usunier'
p2721
I1
sS'Dakun Zhang'
p2722
I2
sS'Dennis E. Shasha'
p2723
I1
sS'Tetsuya Nasukawa'
p2724
I1
sS'Brenda Ng'
p2725
I1
sS'Kevin Small'
p2726
I1
sS'Andrei Tchaltsev'
p2727
I1
sS'Haoqi Zhang'
p2728
I1
sS'Maria Polukarov'
p2729
I7
sS'Jeremy Stober'
p2730
I1
sS'Levente Molnar'
p2731
I1
sS'Haozheng Wang'
p2732
I1
sS'Long Lan'
p2733
I1
sS'Benjamin Kaufmann'
p2734
I3
sS'Youming Qiao'
p2735
I1
sS'Xue Chen'
p2736
I1
sS'Alessandro Bozzon'
p2737
I1
sS'Ulrike Sattler'
p2738
I5
sS'Qiong Luo 0001'
p2739
I1
sS'Yuxuan Liang'
p2740
I1
sS'Hooyeon Lee'
p2741
I1
sS'Alessandro Valitutti'
p2742
I1
sS'Vincent Wall'
p2743
I1
sS'Carlos Areces'
p2744
I1
sS'Christopher Griffin'
p2745
I1
sS'Nicola Di Mauro'
p2746
I1
sS'Gangming Zhao'
p2747
I1
sS'Dianhuan Lin'
p2748
I1
sS'Harald Steck'
p2749
I1
sS'Philip S. Yu'
p2750
I6
sS'Philip Moore'
p2751
I1
sS'Cen Chen'
p2752
I1
sS'James Fogarty'
p2753
I1
sS'Michael Bartholomew'
p2754
I2
sS'Xiaolong Wang 0003'
p2755
I1
sS'Tinghuai Wang'
p2756
I1
sS'Giovanni Angelini'
p2757
I1
sS'Mara Abel'
p2758
I1
sS'Thomas Linsbichler'
p2759
I4
sS'Volker Nannen'
p2760
I1
sS'Xudong Liu'
p2761
I1
sS'Mingyu Fan'
p2762
I4
sS'Nithya Rajamani'
p2763
I1
sS'Reza Shoja Ghiass'
p2764
I1
sS'Xiaowei Guo'
p2765
I1
sS'Manuel Giuliani'
p2766
I1
sS'Michael Winikoff'
p2767
I2
sS'Veronika Thost'
p2768
I2
sS'Christel Vrain'
p2769
I2
sS'Praveen K. Paritosh'
p2770
I1
sS'Michael Dahlin'
p2771
I1
sS'Yanhua Cheng'
p2772
I1
sS'Yangqing Jia'
p2773
I1
sS'Maarten de Rijke'
p2774
I1
sS'Ke Tao'
p2775
I1
sS'Michael Fink 0001'
p2776
I4
sS'Abdallah Saffidine'
p2777
I4
sS'Rajiv T. Maheswaran'
p2778
I1
sS'Jens Cla\xc3\x9fen'
p2779
I2
sS'Dezhong Yao'
p2780
I1
sS'Douglas Oliveira Santos'
p2781
I1
sS'Daniele Masato'
p2782
I1
sS'Jeff Yan'
p2783
I1
sS'Senlin Luo'
p2784
I1
sS'H\xc3\xa9ctor Mu\xc3\xb1oz-Avila'
p2785
I3
sS'Sergio Escalera'
p2786
I1
sS'Aris Filos-Ratsikas'
p2787
I2
sS'Kinzang Chhogyal'
p2788
I1
sS'Daniel S\xc3\xa1nchez 0006'
p2789
I1
sS'Stanislav Zivny'
p2790
I2
sS'Maximos A. Kaliakatsos-Papakostas'
p2791
I1
sS'Joel Luis Carbonera'
p2792
I1
sS'Priyanka Agrawal'
p2793
I1
sS'Fei Han'
p2794
I1
sS'Octavian Udrea'
p2795
I3
sS'Renato Zaccaria'
p2796
I1
sS'Alexander Shleyfman'
p2797
I2
sS'Emprise Y. K. Chan'
p2798
I1
sS'Bernhard Hengst'
p2799
I1
sS'Ben Kao'
p2800
I1
sS'Chaoyue Wang'
p2801
I1
sS'Abderrazak Daoudi'
p2802
I1
sS'Jun Han'
p2803
I1
sS'Bin Ke'
p2804
I1
sS'Yee Whye Teh'
p2805
I1
sS'Aur\xc3\xa9lie Beynier'
p2806
I1
sS'Matti J\xc3\xa4rvisalo'
p2807
I7
sS'Tiziano Flati'
p2808
I1
sS'Khaled S. Refaat'
p2809
I1
sS'Soumya Ray'
p2810
I1
sS'Futoshi Naya'
p2811
I1
sS'Russell Greiner'
p2812
I2
sS'Sumit Basu'
p2813
I1
sS'Gyana R. Parija'
p2814
I1
sS'Bin Hong'
p2815
I1
sS'Lei Han'
p2816
I1
sS'Rebecca L. Smith'
p2817
I1
sS'Ian T. Nabney'
p2818
I1
sS'Yi Yu'
p2819
I1
sS'Sridhar Mahadevan'
p2820
I6
sS'Kenichi Kurihara'
p2821
I1
sS'Jon Yaggie'
p2822
I1
sS'Dhivya Eswaran'
p2823
I1
sS'Zenglin Xu'
p2824
I3
sS'Dhanalakshmi Chandrasekaran'
p2825
I1
sS'Wei Bian'
p2826
I2
sS'Chunyu Kit'
p2827
I2
sS'Xiaohua Zhou'
p2828
I1
sS'Isaac Persing'
p2829
I1
sS'Yingzi Jin'
p2830
I1
sS'Brendan Juba'
p2831
I3
sS'Chengwei Zhang'
p2832
I1
sS'Terry R. Payne'
p2833
I1
sS'Xiaoli Fern'
p2834
I1
sS'Michael Pomeranz'
p2835
I1
sS'David Silver'
p2836
I3
sS'Yiping Ke'
p2837
I1
sS'Henning Schnoor'
p2838
I1
sS'Dinggang Shen'
p2839
I1
sS'Adriano Vinhas'
p2840
I1
sS'J. Gregory Trafton'
p2841
I1
sS'Zhaoyin Jia'
p2842
I1
sS'Jaedeug Choi'
p2843
I2
sS'Dewei Chen'
p2844
I1
sS'Pablo Robles-Granda'
p2845
I1
sS'Lingling Zhang'
p2846
I1
sS'David Andrzejewski'
p2847
I1
sS'Weizhu Chen'
p2848
I1
sS'Zhao Song'
p2849
I1
sS'Cyril Nortet'
p2850
I1
sS'Marie-Christine Rousset'
p2851
I1
sS'Bingpeng Ma'
p2852
I1
sS'Benito van der Zander'
p2853
I1
sS'Gerhard J. Woeginger'
p2854
I2
sS'Yue Gao'
p2855
I6
sS'Olivier Simonin 0001'
p2856
I1
sS'Julie Linsey'
p2857
I1
sS'Rawichote Chalodhorn'
p2858
I1
sS'Ngo Anh Vien'
p2859
I2
sS'Guosheng Lin'
p2860
I1
sS'Shaojie Tang'
p2861
I2
sS'Maria Luisa Bonet'
p2862
I3
sS'Zhenhua Duan'
p2863
I2
sS'Yazhou Ren'
p2864
I1
sS'Rongchun Li'
p2865
I2
sS'Steven M. Drucker'
p2866
I1
sS'Bernhard Nebel'
p2867
I5
sS'Salman Ahmad'
p2868
I1
sS'Aimene Belfodil'
p2869
I1
sS'Claude Pasquier'
p2870
I1
sS'Michele Piunti'
p2871
I2
sS'Arnaud Gotlieb'
p2872
I2
sS'Enrique Romero'
p2873
I1
sS'Louis-Xavier Storme'
p2874
I1
sS'James C. Lester'
p2875
I2
sS'Roxane Koitz'
p2876
I1
sS'Qiang Chen'
p2877
I1
sS'Tom Croonenborghs'
p2878
I1
sS'Jun Li 0010'
p2879
I1
sS'Mohan S. Kankanhalli'
p2880
I2
sS'Lei Xu'
p2881
I1
sS'Shipeng Yu'
p2882
I2
sS'Irina Dragoste'
p2883
I1
sS'Daisuke Hatano'
p2884
I3
sS'Yingzi Wang'
p2885
I1
sS'Wei Xue'
p2886
I1
sS'Jie Wang'
p2887
I1
sS'Lijun Zhang 0005'
p2888
I2
sS'Carlos H. C. Ribeiro'
p2889
I1
sS'Lijun Zhang 0001'
p2890
I1
sS'St\xc3\xa9phane Airiau'
p2891
I3
sS'Yanan Sui'
p2892
I1
sS'Emma Rollon'
p2893
I2
sS'Chenwei Cai'
p2894
I1
sS'Youlu Xing'
p2895
I1
sS'Xiaofei Guo'
p2896
I1
sS'Noah D. Goodman'
p2897
I1
sS'Fred Hemery'
p2898
I1
sS'Lawrence B. Holder'
p2899
I1
sS'Michael Kaess'
p2900
I2
sS'You Xu'
p2901
I1
sS'Aniruddha Bhargava'
p2902
I1
sS'Haifeng Liu'
p2903
I2
sS'Jian Cao'
p2904
I2
sS'Michael T. Cox'
p2905
I2
sS'Lars Otten'
p2906
I1
sS'Andreas Pieris'
p2907
I6
sS'Wolfgang Dvor\xc3\xa1k'
p2908
I3
sS'Andreas Steigmiller'
p2909
I1
sS'Haikun Wei'
p2910
I1
sS'Tim Oates'
p2911
I3
sS'Marjon Blondeel'
p2912
I1
sS'I-Fan Shen'
p2913
I1
sS'Michal Penn'
p2914
I1
sS'Alfredo Gabaldon'
p2915
I1
sS'Hong Yang'
p2916
I2
sS'Antonio Di Stasio'
p2917
I1
sS'Andreas Wendemuth'
p2918
I2
sS'Jie Fu'
p2919
I1
sS'Mingyi Zhang'
p2920
I1
sS'Tongzhou Mu'
p2921
I2
sS'Katharina Probst'
p2922
I1
sS'Jaesik Choi'
p2923
I3
sS'Toon van Craenendonck'
p2924
I1
sS'Chen Li 0001'
p2925
I1
sS'Boris Konev'
p2926
I3
sS'Ke Xu 0001'
p2927
I2
sS'Muhao Chen'
p2928
I2
sS'R\xc3\xb3n\xc3\xa1n Mac Ruairi'
p2929
I1
sS'Robin Burke'
p2930
I1
sS'Dingqi Yang'
p2931
I1
sS'Bradford W. Mott'
p2932
I2
sS'Pengfei Zhang'
p2933
I1
sS'Gabriele Kern-Isberner'
p2934
I3
sS'Gianvincenzo Alfano'
p2935
I1
sS'Akira Utsumi'
p2936
I1
sS'Xiao Wang'
p2937
I2
sS'Karteek Addanki'
p2938
I1
sS'Jianping Yin'
p2939
I2
sS'Erik S. Steinmetz'
p2940
I1
sS'Olga C. Santos'
p2941
I1
sS'Xiao Yang'
p2942
I1
sS'Xuanjing Huang'
p2943
I11
sS'Sahil Garg'
p2944
I1
sS'Jianqiang Shen'
p2945
I1
sS'Harry B. Hunt III'
p2946
I1
sS'Michael Fairbank'
p2947
I1
sS'Vassilis Polychronopoulos'
p2948
I1
sS'Nathan Sprague'
p2949
I1
sS'Weiqing Min'
p2950
I1
sS'Nathanael Hyafil'
p2951
I1
sS"Simon Timothy O'Callaghan"
p2952
I1
sS'Joachim Neumann'
p2953
I1
sS'Yijun Wang'
p2954
I1
sS'Michal Feldman'
p2955
I2
sS'Hai-Ming Xu'
p2956
I1
sS'Bo An'
p2957
I14
sS'Michael D. Moffitt'
p2958
I2
sS'Jiaqi Zhang'
p2959
I1
sS'Tong Xu'
p2960
I1
sS'Yiwei Zhang'
p2961
I1
sS'Shoujin Wang'
p2962
I1
sS'Richard S. Sutton'
p2963
I1
sS'Peng Han'
p2964
I1
sS'Jos de Bruijn'
p2965
I2
sS'Xianming Liu'
p2966
I1
sS'Hyunyoung Kil'
p2967
I1
sS'Junwei Liang'
p2968
I1
sS'Levan Uridia'
p2969
I1
sS'Zhao Lu'
p2970
I1
sS'Xueqi Cheng'
p2971
I7
sS'Michael Siebers'
p2972
I1
sS'Fabio Mercorio'
p2973
I1
sS'Nicholas Roy'
p2974
I3
sS'Riccardo Rasconi'
p2975
I1
sS'Tam Van Nguyen'
p2976
I1
sS'Ashwin Ram'
p2977
I3
sS'Mathew Monfort'
p2978
I1
sS'Aaron C. Courville'
p2979
I1
sS'Eisa Alanazi'
p2980
I2
sS'Barteld P. Kooi'
p2981
I2
sS'Xun Yang'
p2982
I1
sS'Aniket Kittur'
p2983
I1
sS'Chandan K. Reddy'
p2984
I1
sS'Diana P\xc3\xa9rez-Mar\xc3\xadn'
p2985
I1
sS'Gabriel Di\xc3\xa9guez'
p2986
I1
sS'Charalampos Chelmis'
p2987
I2
sS'Yiming Yang'
p2988
I1
sS'Daniel Le Berre'
p2989
I1
sS'Huayu Wu'
p2990
I1
sS'Djemel Ziou'
p2991
I1
sS'Alexander Berman'
p2992
I1
sS'Jun Wang 0006'
p2993
I1
sS'Sandeep R. Panta'
p2994
I1
sS'Rajeev Alur'
p2995
I1
sS'Rupert Freeman'
p2996
I1
sS'Serge Gaspers'
p2997
I7
sS'Yusuke Miyao'
p2998
I4
sS'Xiting Wang'
p2999
I1
sS'Tao Han'
p3000
I1
sS'Jieping Ye'
p3001
I8
sS'Aram Galstyan'
p3002
I1
sS'Elizabeth A. Jensen'
p3003
I3
sS'Mauricio Orozco-Alzate'
p3004
I1
sS'Sergey M. Plis'
p3005
I1
sS'L\xc3\xbacio S. Passos'
p3006
I1
sS'Cheston Tan'
p3007
I1
sS'Hiroyuki Kido'
p3008
I1
sS'Ingrid Zukerman'
p3009
I2
sS'Niels Landwehr'
p3010
I2
sS'Pavel Surynek'
p3011
I1
sS'Xuan Guo'
p3012
I1
sS'Jason Jingshi Li'
p3013
I1
sS'J. Andrew Bagnell'
p3014
I3
sS'Nozomi Nori'
p3015
I1
sS'Abraham Othman'
p3016
I1
sS'Hongzhi Yin'
p3017
I1
sS'Wolfgang Mayer'
p3018
I1
sS'Yuko Sakurai'
p3019
I3
sS'Xin Chen'
p3020
I2
sS'Till Mossakowski'
p3021
I2
sS'Fedor V. Fomin'
p3022
I1
sS'Jianke Zhu'
p3023
I4
sS'Xiaojing Huang'
p3024
I1
sS'Gianfranco Lamperti'
p3025
I1
sS'Steven Adriaensen'
p3026
I1
sS'Shiming Xiang'
p3027
I1
sS'Germ\xc3\xa1n Castellanos-Dom\xc3\xadnguez'
p3028
I1
sS'Yanning Zhang'
p3029
I1
sS'Jian Liang'
p3030
I1
sS'Amar Shah'
p3031
I1
sS'Sandrine Lafrogne'
p3032
I1
sS'Min Yang'
p3033
I1
sS'Simon De Deyne'
p3034
I1
sS'Aaron Koolyk'
p3035
I1
sS'Anjin Liu'
p3036
I1
sS'Alice H. Oh'
p3037
I1
sS'Jinchao Zhang'
p3038
I1
sS'Pierfrancesco Veltri'
p3039
I1
sS'Michael Katz 0001'
p3040
I2
sS'Keiichiro Hayakawa'
p3041
I1
sS'Wen-tau Yih'
p3042
I2
sS'Edin Andelic'
p3043
I1
sS'Ravi Palla'
p3044
I2
sS'Srikanth Tamilselvam'
p3045
I1
sS'Bernhard Bliem'
p3046
I3
sS'Zhenming Liu'
p3047
I1
sS'Yan Chuan Sim'
p3048
I1
sS'David Guthrie'
p3049
I1
sS'Johannes Bauer 0002'
p3050
I1
sS'Punam Bedi'
p3051
I1
sS'Shanshan Yu'
p3052
I1
sS'Paolo Morettin'
p3053
I2
sS'Peter Key'
p3054
I1
sS'Julien Lesca'
p3055
I3
sS'Liang Pang'
p3056
I1
sS'Dan Bohus'
p3057
I1
sS'Fei Tian'
p3058
I1
sS'Daling Wang'
p3059
I2
sS'Fei Wang 0001'
p3060
I4
sS'Kunpeng Li'
p3061
I1
sS'Mahsa Baktashmotlagh'
p3062
I1
sS'Dijun Luo'
p3063
I3
sS'Vesile Evrim'
p3064
I1
sS'Diego Figueira'
p3065
I1
sS'Laura Bozzelli'
p3066
I1
sS'Junling Hu'
p3067
I1
sS'Yongcai Wang'
p3068
I1
sS'Tengfei Ma'
p3069
I1
sS'\xc3\x89douard Bonnet'
p3070
I1
sS'Khai N. Truong'
p3071
I1
sS'Erik Talvitie'
p3072
I2
sS'Thanukrishnan Srinivasan'
p3073
I1
sS'Donald S. Fussell'
p3074
I1
sS'Manu Sharma'
p3075
I1
sS'Jacopo Mauro'
p3076
I1
sS'Nico Potyka'
p3077
I2
sS'Mart\xc3\xadn O. Moguillansky'
p3078
I1
sS'Xiaocheng Feng'
p3079
I1
sS'Vikas Shivashankar'
p3080
I2
sS'Siwei Lyu'
p3081
I1
sS'Sunho Park'
p3082
I1
sS'Zhongfei Zhang'
p3083
I3
sS'Marc Yu-San Chee'
p3084
I1
sS'Zhi-Hong Deng'
p3085
I1
sS'Mark Edgington'
p3086
I1
sS'Sharon Beaumont-Bowman'
p3087
I1
sS'Kurt Driessens'
p3088
I1
sS'Jay H. Powell'
p3089
I1
sS'Qing He'
p3090
I6
sS'J\xc3\xbcrgen Schmidhuber'
p3091
I5
sS'Avi Segal'
p3092
I1
sS'Jinchuan Shi'
p3093
I1
sS'Shangmin Guo'
p3094
I1
sS'Takuro Fukunaga'
p3095
I2
sS'Patrik Haslum'
p3096
I6
sS'Bob Huisman'
p3097
I1
sS'Palash Dey'
p3098
I4
sS'Arnon Avron'
p3099
I1
sS'Aude Billard'
p3100
I2
sS'Adrian Muscat'
p3101
I1
sS'James Everett Young'
p3102
I1
sS'Jonathan Lawry'
p3103
I1
sS'Xiang Bai'
p3104
I1
sS'Ruqi Zhang'
p3105
I1
sS'Robert Lothian'
p3106
I1
sS'Dong Huang'
p3107
I1
sS'John Thangarajah'
p3108
I3
sS'Tanveer A. Faruquie'
p3109
I1
sS'Azin Ashkan'
p3110
I1
sS'Huan Liu'
p3111
I11
sS'Yin Zheng'
p3112
I1
sS'Clemens Drews'
p3113
I1
sS'Wu Liu'
p3114
I1
sS'Han Liu'
p3115
I2
sS'Peter Z. Yeh'
p3116
I1
sS'Bo Zheng'
p3117
I1
sS'Han Lin'
p3118
I1
sS'HweeHwa Pang'
p3119
I1
sS'Nguyen Thanh Tri'
p3120
I1
sS'Sashank Varma'
p3121
I1
sS'Jiaqi Zhou'
p3122
I1
sS'Zhongming Jin'
p3123
I2
sS'Bella Robinson'
p3124
I1
sS'Joachim Jansen'
p3125
I1
sS'Zhang Xiong'
p3126
I1
sS'St\xc3\xa9phane Galland'
p3127
I1
sS'Lihuo He'
p3128
I1
sS'Olivier Spanjaard'
p3129
I5
sS'Jiabing Wang'
p3130
I1
sS'Freek Stulp'
p3131
I1
sS'David Merrell'
p3132
I1
sS'Jie Xu'
p3133
I2
sS'Felix Duvallet'
p3134
I1
sS'Ximing Wen'
p3135
I3
sS'Yiqiang Chen'
p3136
I1
sS'Cezary Kaliszyk'
p3137
I1
sS'Sunghun Kim 0001'
p3138
I1
sS'Feiyi Tang'
p3139
I1
sS'Mengxiao Lin'
p3140
I1
sS'Wenqing Chu'
p3141
I1
sS'Tom Schrijvers'
p3142
I1
sS'Arun Rajkumar'
p3143
I1
sS'Makram Bouzid'
p3144
I1
sS'Pierpaolo Basile'
p3145
I2
sS'Kevin Chen-Chuan Chang'
p3146
I1
sS'Mehdi Sadeqi'
p3147
I1
sS'Hiroshi Sawada'
p3148
I3
sS'Shqiponja Ahmetaj'
p3149
I1
sS'Sunil Simon'
p3150
I2
sS'Daniel A. Spielman'
p3151
I1
sS'Ulli Waltinger'
p3152
I1
sS'Novi Quadrianto'
p3153
I1
sS'Hai Wan'
p3154
I6
sS'Zhaodong Wang'
p3155
I1
sS'David Gerault'
p3156
I1
sS'Walid Gomaa'
p3157
I1
sS'Quanxue Gao'
p3158
I1
sS'Ariel Rosenfeld'
p3159
I4
sS'Shirish K. Shevade'
p3160
I1
sS'Roberto Confalonieri 0001'
p3161
I1
sS'Raju S. Bapi'
p3162
I2
sS'Pushmeet Kohli'
p3163
I1
sS'Yingke Chen'
p3164
I1
sS'Yu-Han Chang'
p3165
I1
sS'Lixin Duan'
p3166
I1
sS'Frans Adriaan Oliehoek'
p3167
I2
sS'V\xc3\xadctor Ponce-L\xc3\xb3pez'
p3168
I1
sS'Dan Zhang 0007'
p3169
I1
sS'Martin Gebser'
p3170
I5
sS'Hang Su'
p3171
I3
sS'Ingo Gl\xc3\xb6ckner'
p3172
I1
sS'Xin Sui'
p3173
I2
sS'Ran He'
p3174
I1
sS'Chao He'
p3175
I1
sS'Patrick Kr\xc3\xbcmpelmann'
p3176
I1
sS'Heyan Huang'
p3177
I2
sS'Stephen M. Chu'
p3178
I2
sS'S\xc3\xa9bastien Lahaie'
p3179
I2
sS'Tianrong Rao'
p3180
I1
sS'Xianglong Liu'
p3181
I1
sS'Wanquan Liu'
p3182
I2
sS'Hsuan-Tien Lin'
p3183
I1
sS'Paul Tylkin'
p3184
I1
sS'David R. Thompson'
p3185
I2
sS'Hailun Lin'
p3186
I1
sS'Junier B. Oliva'
p3187
I1
sS'Li Niu'
p3188
I2
sS'Ren\xc3\xa9 van Bevern'
p3189
I1
sS'Pietro Baroni'
p3190
I2
sS'Javad Azimi'
p3191
I1
sS'Zhihua Cai'
p3192
I1
sS'Xu Shen'
p3193
I1
sS'Zizhen Zhang'
p3194
I1
sS'Mingjie Liu'
p3195
I2
sS'Mor Vered'
p3196
I1
sS'Chao Liang'
p3197
I1
sS'Mike Phillips'
p3198
I1
sS'Volkan Vural'
p3199
I1
sS'Floris Roelofsen'
p3200
I1
sS'Dragan Doder'
p3201
I2
sS'Vijay Arya'
p3202
I1
sS'Benjamin Zarrie\xc3\x9f'
p3203
I2
sS'Chuan Zhou'
p3204
I2
sS'Matthias Westphal'
p3205
I4
sS'Xiaodong Zheng'
p3206
I1
sS'Donghao Luo'
p3207
I1
sS'Aaron W. Dennis'
p3208
I1
sS'Daniel H\xc3\xb6ller'
p3209
I1
sS'Elisa Marengo'
p3210
I2
sS'Jaime Teevan'
p3211
I1
sS'Haris Dindo'
p3212
I1
sS'Shijian Li'
p3213
I1
sS'Hylke Buisman'
p3214
I1
sS'Nawal Benabbou'
p3215
I3
sS'Deyu Meng'
p3216
I3
sS'Nicola Gigante'
p3217
I3
sS'Colin Matheson'
p3218
I1
sS'Toshio Uchiyama'
p3219
I1
sS'Kuiyu Chang'
p3220
I1
sS'Thomas R. Hinrichs'
p3221
I1
sS'Tony Jebara'
p3222
I1
sS'Martin Trnecka'
p3223
I2
sS'Mainak Nath'
p3224
I1
sS'Samuel Horlbeck Olsen'
p3225
I1
sS'Ferdous Ahmed Sohel'
p3226
I1
sS'Soumen Chakrabarti'
p3227
I1
sS'Christoph Redl'
p3228
I2
sS'Kai-Wei Chang'
p3229
I1
sS'Mohan Yang'
p3230
I1
sS'Qing Bao'
p3231
I1
sS'Fredrick H. M. Semazzi'
p3232
I1
sS'Mingrui Zhu'
p3233
I1
sS'Kenji Kawaguchi'
p3234
I1
sS'Yujia Li'
p3235
I1
sS'Cheng Si'
p3236
I1
sS'Guandong Xu'
p3237
I2
sS'Michael Dann'
p3238
I1
sS'Quang-Thang Dinh'
p3239
I1
sS'Fran Vallejo'
p3240
I1
sS'Nannan Wang'
p3241
I1
sS'Hui Fang 0002'
p3242
I1
sS'Saket Joshi'
p3243
I3
sS'Gert de Cooman'
p3244
I1
sS'Syed Abbas Z. Naqvi'
p3245
I1
sS'Liron Cohen 0002'
p3246
I3
sS'Jufeng Yang'
p3247
I1
sS'Patrick Thor Kahl'
p3248
I1
sS'Nicholas Mattei'
p3249
I4
sS'Matthijs T. J. Spaan'
p3250
I2
sS'Markus Aschinger'
p3251
I1
sS'Arunesh Sinha'
p3252
I5
sS'Yoshihiko Nakamura'
p3253
I1
sS'Yuchun Fang'
p3254
I1
sS'Despoina Magka'
p3255
I1
sS"Vijay D'Silva"
p3256
I1
sS'Xudong Luo'
p3257
I2
sS'Baihua Zheng'
p3258
I1
sS'Akshay Bhat'
p3259
I1
sS'Zebang Shen'
p3260
I4
sS'Sehun Jeong'
p3261
I1
sS'Chinmay Hegde'
p3262
I1
sS'Jean-Marie Lagniez'
p3263
I8
sS'Daniel Boley'
p3264
I2
sS'Haitham Bou-Ammar'
p3265
I3
sS'Nadia Brauner'
p3266
I1
sS'Amar Prakash Azad'
p3267
I1
sS'Chandrasekar Ramachandran'
p3268
I1
sS'Sven Wachsmuth'
p3269
I1
sS'Giorgos B. Stamou'
p3270
I1
sS'Jose de Gea'
p3271
I1
sS'David Feil-Seifer'
p3272
I1
sS'Reed Jensen'
p3273
I1
sS'Jendrik Seipp'
p3274
I2
sS'Emanuel Sallinger'
p3275
I2
sS'Alessandro Lazaric'
p3276
I2
sS'Ulle Endriss'
p3277
I10
sS'Qiang Yang 0010'
p3278
I3
sS'Naoya Takeishi'
p3279
I1
sS'Siwei Jiang'
p3280
I2
sS'Hui Zhang'
p3281
I1
sS'Conrad Drescher'
p3282
I1
sS'Timothy Furtak'
p3283
I3
sS'Yangtao Wang'
p3284
I1
sS'Nicola Gatti 0001'
p3285
I1
sS'Thomas Keller 0001'
p3286
I2
sS'Claudia Hess'
p3287
I1
sS'Marco Ragni'
p3288
I1
sS'Katja Hose'
p3289
I1
sS'John Augustine'
p3290
I1
sS'Florent Capelli'
p3291
I1
sS'Mercan Topkara'
p3292
I1
sS'Jonathan Masci'
p3293
I1
sS'Peter Nightingale'
p3294
I3
sS'Stuart Moran'
p3295
I1
sS'Qiushi Huang'
p3296
I1
sS'Min-Yen Kan'
p3297
I1
sS'Michael Freed'
p3298
I1
sS'Jiemi Zhang'
p3299
I1
sS'Gavin Rens'
p3300
I1
sS'Changhu Wang'
p3301
I2
sS'Ka Lun Leung'
p3302
I1
sS'Michael Strube 0001'
p3303
I1
sS'Udo Kruschwitz'
p3304
I1
sS'Hui Feng'
p3305
I1
sS'Nicolas Hug'
p3306
I1
sS'Zoran Popovic'
p3307
I2
sS'Yong Fan'
p3308
I1
sS'Kunpeng Zhang'
p3309
I2
sS'Samuel Rota Bul\xc3\xb2'
p3310
I1
sS'S. Shivashankar'
p3311
I1
sS'Carsten Witt'
p3312
I1
sS'Biqing Fang'
p3313
I1
sS'Julien Audiffren'
p3314
I1
sS'Sai P. Selvaraj'
p3315
I1
sS'Yongmei Liu 0001'
p3316
I11
sS'Janne H. Korhonen'
p3317
I1
sS'Danushka Bollegala'
p3318
I4
sS'Shuicheng Yan'
p3319
I5
sS'Guiguang Ding'
p3320
I7
sS'David J. Pym'
p3321
I1
sS'Weixiang Shao'
p3322
I1
sS'James McInerney'
p3323
I1
sS'George Katsirelos'
p3324
I6
sS'Massimiliano Albanese'
p3325
I2
sS'Davide Grossi'
p3326
I7
sS'Zhengming Ding'
p3327
I4
sS'Tom Rodden'
p3328
I2
sS'Peng Wang 0015'
p3329
I1
sS'Zheng Qian'
p3330
I1
sS'Luke Brandl'
p3331
I1
sS'Ryusuke Takahama'
p3332
I1
sS'David Kurokawa'
p3333
I1
sS'Dustin Dannenhauer'
p3334
I3
sS'Leandro L. Minku'
p3335
I1
sS'Robert West 0001'
p3336
I1
sS'Mehran Asadi'
p3337
I1
sS'Yun Liu'
p3338
I1
sS'Elias B. Khalil'
p3339
I3
sS'Dave Mobley'
p3340
I1
sS'Huijie Lin'
p3341
I1
sS'Alok N. Choudhary'
p3342
I3
sS'Kennard Laviers'
p3343
I1
sS'Zhigang Chen'
p3344
I1
sS'Benjamin Van Durme'
p3345
I3
sS'Richard E. Korf'
p3346
I8
sS'Umair Z. Ahmed'
p3347
I1
sS'Jian Lou'
p3348
I2
sS'Ren\xc3\xa9 Sch\xc3\xb6nfelder'
p3349
I1
sS'Thomas Andreas Meyer'
p3350
I3
sS"Mathieu d'Aquin"
p3351
I1
sS'Malek Mouhoub'
p3352
I2
sS'Steffen Michels'
p3353
I2
sS'Catholijn M. Jonker'
p3354
I4
sS'Nancy Fulda'
p3355
I2
sS'Mengyuan Liu'
p3356
I1
sS'Viviana Cotik'
p3357
I1
sS'Krishnaprasad Thirunarayan'
p3358
I1
sS'Nika Haghtalab'
p3359
I1
sS'Saulo Moraes Villela'
p3360
I2
sS'Michael R. Fellows'
p3361
I2
sS'Jinfeng Zhuang'
p3362
I1
sS'Olivier Sigaud'
p3363
I1
sS'Wojciech Jamroga'
p3364
I3
sS'Zhigang Luo'
p3365
I1
sS'Yangqiu Song'
p3366
I10
sS'Deepak Venugopal'
p3367
I1
sS'William Hendrix'
p3368
I2
sS'Kai Zheng 0007'
p3369
I1
sS'Wei Xia'
p3370
I2
sS'Yun Fu'
p3371
I4
sS'Inbal Talgam-Cohen'
p3372
I1
sS'Pedro Meseguer'
p3373
I3
sS'Jimmy Ho-Man Lee'
p3374
I3
sS'Christabel Wayllace'
p3375
I2
sS'Peter Jeavons'
p3376
I1
sS'Zahra Zamani'
p3377
I1
sS'Jaewoo Kang'
p3378
I1
sS'Andreas Herzig'
p3379
I8
sS'Felix A. Fischer'
p3380
I1
sS'Dongwoo Kim'
p3381
I1
sS'Richard Bernstein'
p3382
I1
sS'Jianxin Wu'
p3383
I3
sS'Hirokazu Kameoka'
p3384
I1
sS'Karina Valdivia Delgado'
p3385
I1
sS'Nadeschda Nikitina'
p3386
I1
sS'Karl Aberer'
p3387
I1
sS'Patrick Maupin'
p3388
I1
sS'Javier V\xc3\xa9lez'
p3389
I1
sS'Barry Hurley 0001'
p3390
I2
sS'Joshua Doubleday'
p3391
I1
sS'Victor Lavrenko'
p3392
I1
sS'Baoxin Li'
p3393
I3
sS'Jakob Suchan'
p3394
I2
sS'Min Xiao'
p3395
I1
sS'Naveen Sundar Govindarajulu'
p3396
I2
sS'Dan Ventura'
p3397
I4
sS'Manuel Enciso'
p3398
I1
sS'Tom Heskes'
p3399
I1
sS'Gemma C. Garriga'
p3400
I1
sS'Weigang Zhang'
p3401
I1
sS'K. S. Venkatesh'
p3402
I1
sS'Elias Ruiz'
p3403
I1
sS'Jiaqing Liang'
p3404
I1
sS'Tal Arbel'
p3405
I1
sS'Dhaval Patel'
p3406
I1
sS'Ze-Huan Yuan'
p3407
I1
sS'Tom M. Mitchell'
p3408
I3
sS'Sebastian Sardi\xc3\xb1a'
p3409
I12
sS'Han Zhao'
p3410
I1
sS'Britton Wolfe'
p3411
I1
sS'Kamran Najeebullah'
p3412
I1
sS'Noga Alon'
p3413
I1
sS'Katia P. Sycara'
p3414
I5
sS'Toni Mancini'
p3415
I2
sS'Yunming Ye'
p3416
I1
sS'Judy Goldsmith'
p3417
I1
sS'Wei Chu'
p3418
I1
sS'Wenhao Jiang'
p3419
I2
sS'Matt Duckham'
p3420
I1
sS'Peter J. Stuckey'
p3421
I2
sS'Serena Villata'
p3422
I4
sS'Fatemeh Jahedpari'
p3423
I1
sS'Masaaki Nagata'
p3424
I2
sS'Hector Geffner'
p3425
I16
sS'Ioannis P. Vlahavas'
p3426
I1
sS'Yulei Niu'
p3427
I1
sS'Dana Angluin'
p3428
I1
sS'Stefan R\xc3\xbcmmele'
p3429
I4
sS'Jiming Liu 0001'
p3430
I2
sS'Vicente J. Botti'
p3431
I1
sS'Quanming Yao'
p3432
I3
sS'Banafsheh Rekabdar'
p3433
I1
sS'Andr\xc3\xa9s Legarra'
p3434
I1
sS'Davide Venturelli'
p3435
I1
sS'Piero A. Bonatti'
p3436
I3
sS'Michael Fisher'
p3437
I1
sS'Shinji Ito'
p3438
I1
sS'Jir\xc3\xad Vyskocil'
p3439
I1
sS'Yingwei Pan'
p3440
I1
sS'Frank Kirchner'
p3441
I1
sS'Yuan Yan Tang'
p3442
I1
sS'John P. Dickerson'
p3443
I2
sS'Stefan Schlobach'
p3444
I1
sS'Ruket \xc3\x87akici'
p3445
I1
sS'Stephen P. Ellner'
p3446
I1
sS'Yuichi Yoshida'
p3447
I2
sS'Jianhua Han'
p3448
I1
sS'Hong-Jian Xue'
p3449
I1
sS'Wenyi Fang'
p3450
I1
sS'Fabrizio Riguzzi'
p3451
I1
sS'Yanjing Wang'
p3452
I3
sS'Yali Wang'
p3453
I1
sS'Bo Jiang'
p3454
I1
sS'C. Lee Giles'
p3455
I3
sS'Xu-Yao Zhang'
p3456
I3
sS'Mojtaba Montazery'
p3457
I3
sS'Qiang Lou'
p3458
I1
sS'Matthew Lease'
p3459
I1
sS'Hao Zheng'
p3460
I1
sS'Souhila Kaci'
p3461
I1
sS'Yilin Wang'
p3462
I2
sS'Sayan D. Sen'
p3463
I1
sS'Frank Wolter'
p3464
I18
sS'Martha White'
p3465
I3
sS'Valentin Goranko'
p3466
I1
sS'Paulo Gomes'
p3467
I1
sS'Botong Wu'
p3468
I1
sS'Shivani Agarwal 0001'
p3469
I2
sS'Wang-Cheng Kang'
p3470
I1
sS'Yu-An Chung'
p3471
I1
sS'Xiaofei He'
p3472
I13
sS'Mausam'
p3473
I10
sS"Sidney K. D'Mello"
p3474
I1
sS'Maite L\xc3\xb3pez-S\xc3\xa1nchez'
p3475
I1
sS'Maddalena Nonato'
p3476
I1
sS'Aakanksha Gagrani'
p3477
I1
sS'Jacob Beal'
p3478
I1
sS'Michael Connor'
p3479
I1
sS'Newton Spola\xc3\xb4r'
p3480
I1
sS'Jian Yang 0003'
p3481
I1
sS'Peter Weigele'
p3482
I1
sS'Jonathan May'
p3483
I1
sS'Paul R. Schrater'
p3484
I1
sS'Shri Kant'
p3485
I1
sS'Hao Tang'
p3486
I1
sS'Matt Hunsaker'
p3487
I1
sS'Huan Xu'
p3488
I2
sS'Lizhu Zhou'
p3489
I1
sS'Teddy Candale'
p3490
I1
sS'Giovanni Da San Martino'
p3491
I1
sS'Amrish Patel'
p3492
I1
sS'Kwok Yip Szeto'
p3493
I1
sS'Ronen I. Brafman'
p3494
I5
sS'Zhouchen Lin'
p3495
I2
sS'Andr\xc3\xa9 Neumann'
p3496
I1
sS'Liqing Zhang'
p3497
I1
sS'Jayant Kalagnanam'
p3498
I1
sS'Marvin R. G. Schiller'
p3499
I1
sS'Jussi Rintanen'
p3500
I8
sS'Tadhg Fitzgerald'
p3501
I1
sS'Tao Wang'
p3502
I2
sS'Mengchen Liu'
p3503
I1
sS'Camille Bourgaux'
p3504
I1
sS'Senthilkumar Chandramohan'
p3505
I1
sS'Erik Marchi'
p3506
I2
sS'Fran\xc3\xa7ois Durand'
p3507
I1
sS'Rama Chellappa'
p3508
I1
sS'Marcelo Arenas'
p3509
I3
sS'Arman Melkumyan'
p3510
I2
sS'Damir Lotinac'
p3511
I1
sS'Gerard de Melo'
p3512
I2
sS'Jiancheng Lv'
p3513
I1
sS'Wai Lok Tam'
p3514
I1
sS'Yiqun Shao'
p3515
I1
sS'Hannu Toivonen'
p3516
I1
sS'John K. Lai'
p3517
I1
sS'Florian Gei\xc3\x9fer'
p3518
I2
sS'Chitta Baral'
p3519
I3
sS'Fani Athienitou'
p3520
I1
sS'Simon Docherty'
p3521
I1
sS'Akisato Kimura'
p3522
I2
sS'Jia Liu'
p3523
I2
sS"John O'Donovan"
p3524
I1
sS'Omer Lev'
p3525
I5
sS'Shengfeng He'
p3526
I1
sS'Baris Sertkaya'
p3527
I1
sS'Franco Raimondi'
p3528
I3
sS'Shyam Upadhyay'
p3529
I1
sS'Hong Xu 0003'
p3530
I2
sS'Pengtao Xie'
p3531
I2
sS'C\xc3\xa9line Hudelot'
p3532
I1
sS'Alois Knoll'
p3533
I1
sS'Matteo Gagliolo'
p3534
I1
sS'Sven Behnke'
p3535
I1
sS'Sheng Li 0001'
p3536
I5
sS'Sheng Li 0003'
p3537
I2
sS'Matthew Guzdial'
p3538
I1
sS'Michael J. Wooldridge'
p3539
I1
sS'Tao Qin'
p3540
I8
sS'Garrett Thomas'
p3541
I1
sS'Christian J. Muise'
p3542
I5
sS'Yu Gu'
p3543
I1
sS'Diederik Marijn Roijers'
p3544
I2
sS'Roberto Sebastiani'
p3545
I1
sS'Yong Luo'
p3546
I3
sS'Michael Frank 0002'
p3547
I1
sS'Jeremy L. Wyatt'
p3548
I3
sS'Yili Fang'
p3549
I1
sS'Mengen Chen'
p3550
I1
sS'Christoph Dann'
p3551
I1
sS'Maria Fox'
p3552
I4
sS'Max Welling'
p3553
I2
sS'Nikos Arechiga'
p3554
I1
sS'Domenico Fabio Savo'
p3555
I2
sS'Daixin Wang'
p3556
I1
sS'Elad Yom-Tov'
p3557
I1
sS'John Licato'
p3558
I1
sS'Pallika H. Kanani'
p3559
I1
sS'Nico von Hoyningen-Huene'
p3560
I1
sS'Abdullah Al Mamun'
p3561
I1
sS'Jongmin Lee'
p3562
I2
sS'Mor Sinay'
p3563
I1
sS'Anthony Stentz'
p3564
I1
sS'Barbara Hammer'
p3565
I1
sS'Xin Xin'
p3566
I2
sS'Yuping Liu'
p3567
I1
sS'Xiaodan Zhang'
p3568
I1
sS'Ivan Papusha'
p3569
I1
sS'Yongli Hu'
p3570
I1
sS'Julien Velcin'
p3571
I1
sS'Guido Boella'
p3572
I1
sS'Denis K. Ponomaryov'
p3573
I1
sS'Zhao Xing'
p3574
I1
sS'Bhuwan Dhingra'
p3575
I1
sS'Udayan Khurana'
p3576
I1
sS'Zheng Wen'
p3577
I2
sS'Pasin Manurangsi'
p3578
I1
sS'Noga Talmor'
p3579
I1
sS'Alejandro Javier Garc\xc3\xada'
p3580
I1
sS'Yohannes Kassahun'
p3581
I1
sS'Eric Salvat'
p3582
I1
sS'Xiang Li'
p3583
I2
sS'Eleanor Birrell'
p3584
I1
sS'Tu Dinh Nguyen'
p3585
I1
sS'Yingmin Tang'
p3586
I1
sS'Shlomo Berkovsky'
p3587
I3
sS'T. K. Satish Kumar'
p3588
I3
sS'Francesco Barbieri'
p3589
I1
sS'Ivan Stojkovic'
p3590
I2
sS'Bramley J. Murton'
p3591
I1
sS'Mitsuru Kusumoto'
p3592
I1
sS'Mark Yim'
p3593
I1
sS'William J. Kaiser'
p3594
I2
sS'R\xc3\xb3mer Rosales'
p3595
I3
sS'Everardo B\xc3\xa1rcenas'
p3596
I1
sS'Kian Hsiang Low'
p3597
I3
sS'Xiaodong Zhang'
p3598
I2
sS'James Cussens'
p3599
I1
sS'Viktoriia Sharmanska'
p3600
I1
sS'Wanwei Liu'
p3601
I1
sS'Lu\xc3\xads Cruz-Filipe'
p3602
I1
sS'Navid Amini'
p3603
I1
sS'Bart Selman'
p3604
I10
sS'Benedikt B\xc3\xbcnz'
p3605
I1
sS'Srinivas Medimi'
p3606
I1
sS'George L. Nemhauser'
p3607
I2
sS'Dimitris Margaritis'
p3608
I1
sS'Sandip Aine'
p3609
I2
sS'Tansel Uras'
p3610
I1
sS'Basil Philipp'
p3611
I1
sS'Vibhav Gogate'
p3612
I4
sS'Josep Suy'
p3613
I1
sS'Dongwon Lee 0001'
p3614
I1
sS'Andrei Popescu-Belis'
p3615
I1
sS'Anna C. Gilbert'
p3616
I1
sS'Tsai-Yen Li'
p3617
I1
sS'Romain Laroche'
p3618
I1
sS'Aditya Krishna Menon'
p3619
I1
sS'Mike Shann'
p3620
I1
sS'Songfang Huang'
p3621
I2
sS'Dina Acklin'
p3622
I1
sS'Kostas Stathis'
p3623
I1
sS'Edith Hemaspaandra'
p3624
I5
sS'Kan Chen'
p3625
I1
sS'Jo Devriendt'
p3626
I1
sS'Timothy Arthur Mann'
p3627
I1
sS'Daniel M. Roy'
p3628
I2
sS'F\xc3\xa9lix Ingrand'
p3629
I1
sS'Kun Song'
p3630
I1
sS'Jonathan Malmaud'
p3631
I1
sS'Dov Monderer'
p3632
I1
sS'Yong Shi'
p3633
I1
sS'Alessandro Saffiotti'
p3634
I1
sS'J\xc3\xb6rg St\xc3\xbcckler'
p3635
I1
sS'Kentaro Ishii'
p3636
I1
sS'Zengfu Wang'
p3637
I1
sS'Enrique Machuca'
p3638
I1
sS'Samantha Kleinberg'
p3639
I2
sS'Guosheng Ben'
p3640
I1
sS'Pengcheng Wu'
p3641
I1
sS'Khaled Bachour'
p3642
I1
sS'Joan Ramon Soler'
p3643
I1
sS'Minghua He'
p3644
I2
sS'Mukund Narasimhan'
p3645
I1
sS'Ming Ji'
p3646
I1
sS'Pedro Cruz'
p3647
I1
sS'Weicheng Zhang'
p3648
I1
sS'Khuyagbaatar Batsuren'
p3649
I1
sS'Jun Xu'
p3650
I2
sS'Taghi M. Khoshgoftaar'
p3651
I1
sS'Fr\xc3\xa9d\xc3\xa9ric Saubion'
p3652
I1
sS'Manuel Sorge'
p3653
I1
sS'Marcus Hutter'
p3654
I4
sS'Anshumali Shrivastava'
p3655
I1
sS'Ji Ruan'
p3656
I2
sS'Justin Karneeb'
p3657
I1
sS'Bharat Lal Bhatnagar'
p3658
I1
sS'Latifur Khan'
p3659
I2
sS'Kuang-Yi Hsu'
p3660
I1
sS'Yi Chang'
p3661
I2
sS'Tanzeem Choudhury'
p3662
I3
sS'Mohamed S. Kamel'
p3663
I1
sS'Jasmin Grosinger'
p3664
I2
sS'Pascal Bercher'
p3665
I4
sS'A\xc3\xa4ron Verachtert'
p3666
I1
sS'Mike Chung'
p3667
I1
sS'Anton V. Riabov'
p3668
I2
sS'Eli Ben-Sasson'
p3669
I1
sS'Peng Hou'
p3670
I1
sS'Rowan McAllister'
p3671
I1
sS'Zhouyuan Huo'
p3672
I2
sS'Takayuki Ito'
p3673
I3
sS'Amedeo Cesta'
p3674
I1
sS'Yirui Wu'
p3675
I1
sS'Stefan W\xc3\xb6lfl 0001'
p3676
I5
sS'Efrat Manisterski'
p3677
I2
sS'Tobias Domhan'
p3678
I1
sS'Yi Zhen'
p3679
I3
sS'Michael Novati'
p3680
I1
sS'Eugene C. Freuder'
p3681
I2
sS'Tam V. Nguyen'
p3682
I1
sS'Junge Zhang'
p3683
I1
sS'Klaus Brinker'
p3684
I1
sS'Leila Wehbe'
p3685
I2
sS'Hanna Pasula'
p3686
I1
sS'Vahid Jalali'
p3687
I1
sS'Paola Velardi'
p3688
I3
sS'Gauvain Bourgne'
p3689
I1
sS'Yuli Liu'
p3690
I1
sS'Edward Y. Chang'
p3691
I2
sS'Yajuan Duan'
p3692
I1
sS'Jacobo Rouces'
p3693
I1
sS'Yilin Shen'
p3694
I1
sS'Ji Li'
p3695
I1
sS'Hanjo T\xc3\xa4ubig'
p3696
I1
sS'Marc Pujol-Gonzalez'
p3697
I1
sS'Xuhui Fan'
p3698
I2
sS'Jie Lu'
p3699
I2
sS'En-Liang Hu'
p3700
I1
sS'Saleha Raza'
p3701
I1
sS'Samuel Esler'
p3702
I1
sS'Bin Zhao'
p3703
I1
sS'Hong Sun'
p3704
I2
sS'Xibin Zhao'
p3705
I1
sS'Nicholas Jing Yuan'
p3706
I3
sS'Sumeet Katariya'
p3707
I1
sS'Kohei Hayashi'
p3708
I3
sS'Hong Duan'
p3709
I1
sS'Bernard J. Jansen'
p3710
I1
sS'Aditya Grover'
p3711
I2
sS'Yang Zhou'
p3712
I1
sS'Anastasia Paparrizou'
p3713
I2
sS'Tom Everitt'
p3714
I2
sS'David McSherry'
p3715
I2
sS'James P. McGlothlin'
p3716
I1
sS'Thomas Schneider 0002'
p3717
I4
sS'Vincent Vidal'
p3718
I3
sS'Quan Liu'
p3719
I1
sS'Cunjun Zhang'
p3720
I1
sS'Stuart N. K. Watt'
p3721
I1
sS'Freddy L\xc3\xa9cu\xc3\xa9'
p3722
I3
sS'Maurice Pagnucco'
p3723
I5
sS'Salvatore Ruggieri'
p3724
I1
sS'Nicholas Haltmeyer'
p3725
I1
sS'Florian Wisser'
p3726
I1
sS'Marcelo Finger'
p3727
I1
sS'Amit P. Sheth'
p3728
I1
sS'Annam\xc3\xa1ria Kov\xc3\xa1cs'
p3729
I1
sS'Michael K. P. Ng'
p3730
I1
sS'Ke Wang'
p3731
I3
sS'Xuerui Wang'
p3732
I1
sS'Guni Sharon'
p3733
I2
sS'Baylor Wetzel'
p3734
I1
sS'Hao Jiang'
p3735
I1
sS'Koen V. Hindriks'
p3736
I2
sS'Sachin Kumar'
p3737
I1
sS'Yun Fu 0001'
p3738
I11
sS'Evan Wei Xiang'
p3739
I2
sS'Binbin Li'
p3740
I1
sS'Carlo Zaniolo'
p3741
I2
sS'Domenico Carbotta'
p3742
I1
sS'Yanjun Li'
p3743
I1
sS'Sarah Alice Gaggl'
p3744
I1
sS'Reda Alhajj'
p3745
I2
sS'Mathias Verbeke'
p3746
I1
sS'Honglun Zhang'
p3747
I1
sS'Kazuhiro Fukui'
p3748
I1
sS'Markus Brill'
p3749
I3
sS'Jiaoyan Chen'
p3750
I1
sS'S. R. K. Branavan'
p3751
I1
sS'Wenhui Liao'
p3752
I1
sS'Aaron Isaksen'
p3753
I2
sS'Michelle L. Blom'
p3754
I1
sS'Hui Fang'
p3755
I1
sS'Pietro Sala'
p3756
I1
sS'Charles L. Isbell'
p3757
I1
sS'Yunbo Cao'
p3758
I1
sS'Yu Wu'
p3759
I1
sS'Alexander Reinefeld'
p3760
I1
sS'Lei Chen'
p3761
I1
sS'Andrew Gilpin'
p3762
I1
sS'Jessica Stigile'
p3763
I1
sS'Steffen Bickel'
p3764
I1
sS'Giorgio Corani'
p3765
I1
sS'Teresa Maria Altomare Basile'
p3766
I1
sS'Petr Kucera'
p3767
I2
sS'Jamal Atif'
p3768
I1
sS'Stefano V. Albrecht'
p3769
I1
sS'Hendrik Blockeel'
p3770
I4
sS'Guang Ling'
p3771
I1
sS'Alberto Cerpa'
p3772
I1
sS'Christian Sacarea'
p3773
I1
sS'Conor Hayes'
p3774
I2
sS'Alan Bundy'
p3775
I1
sS'Jie Yang'
p3776
I1
sS'Liu Jiang'
p3777
I1
sS'Gulnar Mehdi'
p3778
I1
sS'Jeremy Kong'
p3779
I1
sS'Yimin Zhang 0002'
p3780
I1
sS'Shoaib Jameel'
p3781
I1
sS'Hideaki Hata'
p3782
I1
sS'Michal Ptaszynski'
p3783
I1
sS'Vishal Soni'
p3784
I1
sS'W. Marco Schorlemmer'
p3785
I2
sS'Harm de Vries'
p3786
I1
sS'Benjamin Sapp'
p3787
I1
sS'Zhaoyan Ming'
p3788
I1
sS'Shizhu He'
p3789
I1
sS'Patrick Prosser'
p3790
I3
sS'Rohan Paul'
p3791
I2
sS'Yohei Fusayasu'
p3792
I1
sS'Shuyang Wang'
p3793
I1
sS'Jill Freyne'
p3794
I1
sS'Babak Saleh'
p3795
I1
sS'Pavel Naumov'
p3796
I1
sS'Julio Godoy'
p3797
I2
sS'Cheng Niu'
p3798
I1
sS'Denis Deratani Mau\xc3\xa1'
p3799
I3
sS'Robert A. Kowalski'
p3800
I1
sS'Matthew Broadhead'
p3801
I2
sS'Andrii Shalaginov'
p3802
I1
sS'Nikos Vlassis'
p3803
I2
sS'Vaibhav Rajan'
p3804
I1
sS'Victor Shnayder'
p3805
I1
sS'Andrei Barbu'
p3806
I1
sS'Rui Xia'
p3807
I2
sS'Marius Messner'
p3808
I1
sS'Poo-Hee Chang'
p3809
I1
sS'Joel Veness'
p3810
I3
sS'Daniel Hewlett'
p3811
I1
sS'Ricardo Aler'
p3812
I1
sS'Yabin Zheng'
p3813
I2
sS'Ronald Parr'
p3814
I2
sS'Longbo Huang'
p3815
I1
sS'Weixiong Zhang'
p3816
I3
sS'Finnegan Southey'
p3817
I2
sS'Xiaobo Wang'
p3818
I1
sS'Fran\xc3\xa7ois Schwarzentruber'
p3819
I7
sS'Furao Shen'
p3820
I1
sS'Zongjie Ma'
p3821
I1
sS'Shih-Fen Cheng'
p3822
I3
sS'Shiqi Zhao'
p3823
I4
sS'Avigdor Gal'
p3824
I2
sS'Weike Pan'
p3825
I3
sS'James MacGlashan'
p3826
I2
sS'Yiu-ming Cheung'
p3827
I3
sS'Genmao Yang'
p3828
I1
sS'De Wang'
p3829
I1
sS'Sarvapali D. Ramchurn'
p3830
I8
sS'Xiaowei Zhong'
p3831
I1
sS'Ankit Agrawal'
p3832
I1
sS'Daniele Theseider Dupr\xc3\xa9'
p3833
I1
sS'Bin Luo'
p3834
I2
sS'Didier Dubois'
p3835
I1
sS'Tommaso Di Noia'
p3836
I2
sS'Jianping Shi'
p3837
I1
sS'Krisztian Balog'
p3838
I1
sS'Jennifer G. Dy'
p3839
I1
sS'Amy Greenwald'
p3840
I1
sS'Xiatian Zhu'
p3841
I1
sS'Paolo Viappiani'
p3842
I4
sS'Pasan Karunaratne'
p3843
I1
sS'Haochen Zhang'
p3844
I1
sS'Xiaoou Tang'
p3845
I3
sS'Peter van Beek'
p3846
I1
sS'Anders Jonsson'
p3847
I4
sS'Andrzej Pronobis'
p3848
I1
sS'Josef Tkadlec'
p3849
I1
sS'Ziyu Wang 0001'
p3850
I1
sS'Alex Teichman'
p3851
I1
sS'Jiliang Tang'
p3852
I6
sS'Marco Cuturi'
p3853
I1
sS'Michael R. Lyu'
p3854
I6
sS'Jiashen Sun'
p3855
I2
sS'Maofu Liu'
p3856
I1
sS'Mark Steedman'
p3857
I1
sS'Orestis Telelis'
p3858
I1
sS'Huayang Wang'
p3859
I1
sS'Zhipeng Xie'
p3860
I1
sS'Jie Jiang'
p3861
I2
sS'Makoto Nakatsuji'
p3862
I1
sS'Danny Wyatt'
p3863
I1
sS'Nicholas R. Jennings'
p3864
I25
sS'Adrian Petcu'
p3865
I2
sS'Shuchin Aeron'
p3866
I1
sS'Shaozhe Tao'
p3867
I2
sS'Yu Kong'
p3868
I1
sS'Paolo Ciancarini'
p3869
I2
sS'Andrew W. Moore 0001'
p3870
I1
sS'Sahbi Benlamine'
p3871
I1
sS'Ana Garc\xc3\xada-Fornes'
p3872
I1
sS'Scott R. Klemmer'
p3873
I1
sS'Zehong Hu'
p3874
I1
sS'Shigeki Sagayama'
p3875
I1
sS'George F. List'
p3876
I1
sS'Arpit Sharma'
p3877
I2
sS'Birte Glimm'
p3878
I4
sS'C. N. Ravikumar'
p3879
I1
sS'Na Fu'
p3880
I1
sS'Xia Ning'
p3881
I1
sS'Xue Li'
p3882
I1
sS'Chen-Wei Xie'
p3883
I1
sS'Dale Schuurmans'
p3884
I5
sS'Yi-Chung Lin'
p3885
I1
sS'Mario Vento'
p3886
I1
sS'Marko Krema'
p3887
I1
sS'Patsorn Sangkloy'
p3888
I1
sS'Andrew Reynolds'
p3889
I1
sS'Santiago Fern\xc3\xa1ndez'
p3890
I1
sS'Alessio Benavoli'
p3891
I1
sS'Carme Torras'
p3892
I1
sS'Zexuan Ji'
p3893
I1
sS'Ricardo Henao'
p3894
I1
sS'Desmond Elliott'
p3895
I1
sS'Liviu Badea'
p3896
I2
sS'Federico Pecora'
p3897
I1
sS'Lu Zhang'
p3898
I2
sS'Mario Alviano'
p3899
I6
sS'Geoff V. Merrett'
p3900
I1
sS'Chengqing Zong'
p3901
I5
sS'Liang Mao'
p3902
I1
sS'Xujin Chen'
p3903
I2
sS'Theodore Patkos'
p3904
I1
sS'Ivan Jos\xc3\xa9 Varzinczak'
p3905
I2
sS'Yurong Chen'
p3906
I1
sS'Dmytro Korzhyk'
p3907
I2
sS'Qiming Tian'
p3908
I1
sS'Mikhail Roshchin'
p3909
I1
sS'Steffen Staab'
p3910
I1
sS'Miquel Ram\xc3\xadrez'
p3911
I5
sS'Rafael Andres'
p3912
I1
sS'Ting Wang'
p3913
I1
sS'Tim Baarslag'
p3914
I4
sS'Jeffrey Junfeng Pan'
p3915
I1
sS'Jiaying Shen'
p3916
I1
sS'Wei Huang'
p3917
I2
sS'Adish Singla'
p3918
I2
sS'Jundong Li'
p3919
I3
sS'Martin Hils'
p3920
I1
sS'Yongyi Mao'
p3921
I2
sS'Tony T. Tran'
p3922
I1
sS'Jianhuang Lai'
p3923
I2
sS'Amir Shareghi Najar'
p3924
I1
sS'Yen-Ling Kuo'
p3925
I1
sS'Anat Hashavit'
p3926
I1
sS'Isabel Navarrete'
p3927
I1
sS'Teppo Mikael Niinim\xc3\xa4ki'
p3928
I3
sS'Georgios Theocharous'
p3929
I1
sS'Felix von Hundelshausen'
p3930
I1
sS'Daniel Borrajo'
p3931
I5
sS'Natasha Alechina'
p3932
I5
sS'Marina Velikova'
p3933
I1
sS'Albert Ali Salah'
p3934
I1
sS'Martial Hebert'
p3935
I1
sS'Saleema Amershi'
p3936
I1
sS'Naoaki Okazaki'
p3937
I2
sS"Claudia P\xc3\xa9rez-D'Arpino"
p3938
I1
sS'Torsten Hahmann'
p3939
I1
sS'Tao Wu'
p3940
I1
sS'Bingquan Liu'
p3941
I1
sS'Zhifeng Hao'
p3942
I2
sS'Neil Yorke-Smith'
p3943
I2
sS'Jiamou Liu'
p3944
I1
sS'Neoklis Polyzotis'
p3945
I1
sS'William K. Cheung'
p3946
I3
sS'Yue Yu'
p3947
I2
sS'Hua Li'
p3948
I1
sS'Ruihe Qian'
p3949
I1
sS'Bita Banihashemi'
p3950
I1
sS'Mary-Anne Williams'
p3951
I1
sS'Peter Bro Miltersen'
p3952
I1
sS'Zhihong Zhang'
p3953
I1
sS'Masakazu Ishihata'
p3954
I1
sS'Zhong-Qiu Zhao'
p3955
I1
sS'Antonela Tommasel'
p3956
I1
sS'Mingjie Qian'
p3957
I1
sS'Chia-Li Kuo'
p3958
I1
sS'Luis Quesada 0001'
p3959
I1
sS'Tom Vodopivec'
p3960
I1
sS'Hideaki Kim'
p3961
I1
sS'Kaiqi Huang'
p3962
I2
sS'Qiguang Miao'
p3963
I1
sS'Shreyas Sekar'
p3964
I1
sS'Elena Kelareva'
p3965
I1
sS'Zhang-Wei Hong'
p3966
I1
sS'Angelos Angelidakis'
p3967
I1
sS'Frank Dellaert'
p3968
I2
sS'Oscar J. Romero'
p3969
I1
sS'Nicol\xc3\xa1s E. Stier Moses'
p3970
I1
sS'Kiyoshi Izumi'
p3971
I1
sS'Michael Beetz'
p3972
I2
sS'Koji Eguchi'
p3973
I1
sS'Leliane Nunes de Barros'
p3974
I2
sS'Fernando Ord\xc3\xb3\xc3\xb1ez'
p3975
I2
sS'Shaowei Cai'
p3976
I7
sS'Clare Dixon'
p3977
I2
sS'Yizhou Sun'
p3978
I2
sS'Marina Zanella'
p3979
I2
sS'Si Li'
p3980
I1
sS'Wensheng Wu'
p3981
I2
sS'Fran\xc3\xa7ois Dubeau'
p3982
I1
sS'Xianyang Chen'
p3983
I1
sS'Shaishav Kumar'
p3984
I1
sS'Scott D. Smith'
p3985
I1
sS'Priyankar Ghosh'
p3986
I1
sS'Chang Xu'
p3987
I8
sS'Bin Xu 0005'
p3988
I1
sS'Kaisong Song'
p3989
I2
sS'Meichun Hsu'
p3990
I1
sS'Huiru Zheng'
p3991
I1
sS'Hootan Nakhost'
p3992
I2
sS'Miaomiao Li'
p3993
I1
sS'Carla P. Gomes'
p3994
I13
sS'Shlomo Zilberstein'
p3995
I17
sS'Huifeng Sun'
p3996
I1
sS'Xiangfeng Wang'
p3997
I2
sS'G\xc3\xb6zde \xc3\x96zbal'
p3998
I2
sS'Lise Getoor'
p3999
I2
sS'Ruihai Dong'
p4000
I2
sS'Kuldeep S. Meel'
p4001
I4
sS'Xin Wang'
p4002
I3
sS'Manish Bansal'
p4003
I1
sS'Valeria Fionda'
p4004
I1
sS'Xi Li'
p4005
I1
sS'Alexandre Goldsztejn'
p4006
I1
sS'Justin Yip'
p4007
I1
sS'Satinder P. Singh'
p4008
I8
sS'Nilanjan Chakraborty'
p4009
I2
sS'Michael Morak'
p4010
I3
sS'Arpita Biswas'
p4011
I2
sS'Taolue Chen'
p4012
I1
sS'Nathana\xc3\xabl Barrot'
p4013
I2
sS'Arpita Ghosh'
p4014
I2
sS'Ting Yao'
p4015
I2
sS'Zi Huang'
p4016
I2
sS'Ian Davidson'
p4017
I2
sS'Rania Ibrahim'
p4018
I1
sS'Matthias Weidlich'
p4019
I1
sS'Peter Zoeteweij'
p4020
I1
sS'Rafal Rzepka'
p4021
I2
sS'Vincent Schickel-Zuber'
p4022
I1
sS'Andrea Giovannucci'
p4023
I1
sS'Altaf Rahman'
p4024
I1
sS'Roland H. C. Yap'
p4025
I2
sS'Raquel Fuentetaja'
p4026
I1
sS'Tsuyoshi Id\xc3\xa9'
p4027
I1
sS'Thanasis Lianeas'
p4028
I1
sS'Ke Tang'
p4029
I5
sS'Joshua T. Guerin'
p4030
I1
sS'Dehua Liu'
p4031
I1
sS'Huaqing Min'
p4032
I1
sS'D. Rama Sanand'
p4033
I1
sS'Isabelle Bloch'
p4034
I1
sS'Mark Bartlett'
p4035
I1
sS'Rolf Pfeifer'
p4036
I1
sS'Gerald DeJong'
p4037
I1
sS'Stan Zhao'
p4038
I1
sS'Hung Bui'
p4039
I2
sS'Wangpeng An'
p4040
I1
sS'Nikhil S. Ketkar'
p4041
I1
sS'Rajesh Gautam'
p4042
I1
sS'Jessica Chemali'
p4043
I1
sS'Guoqing Chao'
p4044
I1
sS'Abdur Rakib'
p4045
I1
sS'Yingli Tian'
p4046
I1
sS'Jean-Fran\xc3\xa7ois Boulicaut'
p4047
I1
sS'Michalis Papakostas'
p4048
I1
sS'Fabian Bohnert'
p4049
I1
sS'Wei Liu 0005'
p4050
I5
sS'Petra Selmer'
p4051
I1
sS'Kangwei Liu'
p4052
I1
sS'Bing Liu'
p4053
I2
sS'Matthew Rognlie'
p4054
I1
sS'Bettina Fazzinga'
p4055
I2
sS'Jianbing Zhang'
p4056
I2
sS'Rebecca Harper'
p4057
I1
sS'Xuan Huo'
p4058
I2
sS'Dongmei Zhang'
p4059
I1
sS'Shuo Wang'
p4060
I1
sS'Rajesh P. N. Rao'
p4061
I3
sS'Shengying Pan'
p4062
I1
sS'Tim French 0002'
p4063
I1
sS'Phan Huy Tu'
p4064
I1
sS'Virginia Dignum'
p4065
I2
sS'Marcelo Armentano'
p4066
I1
sS'Constantinos Papatheodorou'
p4067
I1
sS'Naiqi Li'
p4068
I2
sS'Rajgopal Kannan'
p4069
I1
sS'Shin-ichi Minato'
p4070
I1
sS'Francisco Taboada'
p4071
I1
sS'Dinh Q. Phung'
p4072
I2
sS'Piotr L. Szczepanski'
p4073
I1
sS'Wenji Mao'
p4074
I1
sS'Yi Nicholas Wang'
p4075
I1
sS'Alexander I. Rudnicky'
p4076
I2
sS'Abhaya C. Nayak'
p4077
I3
sS'Honglak Lee'
p4078
I3
sS'Marek Petrik'
p4079
I3
sS'Diego Carrera'
p4080
I1
sS'Mingrui Wu'
p4081
I1
sS'Johannes Heinrich'
p4082
I1
sS'Pg Mohammad Iskandarbin Pg Hj Petra'
p4083
I1
sS'John E. Laird'
p4084
I1
sS'Chao Qian'
p4085
I4
sS'Chen Gong'
p4086
I2
sS'Ashish Sabharwal'
p4087
I4
sS'Mohamed Aounallah'
p4088
I1
sS'Giovanni Semeraro'
p4089
I2
sS'Huada Xu'
p4090
I1
sS'Marco Block'
p4091
I1
sS'Xinxing Xu'
p4092
I1
sS'Carsten Moldenhauer'
p4093
I1
sS'Daniel Lowd'
p4094
I1
sS'Ryosuke Shibasaki'
p4095
I2
sS'Biplav Srivastava'
p4096
I3
sS'Gauthier Picard'
p4097
I1
sS'Veljko Milutinovic'
p4098
I2
sS'Lara Quijano S\xc3\xa1nchez'
p4099
I1
sS'Andrew Y. Ng'
p4100
I5
sS'Massimiliano Cattafi'
p4101
I1
sS'Marco Guerini'
p4102
I1
sS'Eric Horvitz'
p4103
I9
sS'Peter Young'
p4104
I1
sS'Nicola Guido'
p4105
I1
sS'Shengrui Wang'
p4106
I1
sS'Rajeev Kumar'
p4107
I1
sS'Ko Fujimura'
p4108
I1
sS'Gang Wang 0010'
p4109
I1
sS'Oskar Skibski'
p4110
I3
sS'Aaron Hunter'
p4111
I3
sS'Li Liu 0004'
p4112
I1
sS'Anne R. Haake'
p4113
I1
sS'David Pearce 0001'
p4114
I2
sS'Diarmuid Grimes'
p4115
I1
sS'Fei Yu'
p4116
I1
sS'Ruiming Tang'
p4117
I1
sS'Ruoming Jin'
p4118
I1
sS'Mohammad Munshi Shahin Shah'
p4119
I1
sS'Yang Yu 0001'
p4120
I7
sS'Timothy J. Norman'
p4121
I4
sS'Janyce Wiebe'
p4122
I1
sS'Jordi Coll'
p4123
I1
sS'Wei Zhang 0022'
p4124
I2
sS'Marina De Vos'
p4125
I1
sS'Simon Vernhes'
p4126
I1
sS'Matthew Kitching'
p4127
I3
sS'Ziqiang Shi'
p4128
I1
sS'Jicheng Fu'
p4129
I1
sS'Wenliang Zhong'
p4130
I1
sS'\xc3\x89ric Piette'
p4131
I1
sS'Lijuan Cai'
p4132
I1
sS'Qin Zhang 0011'
p4133
I1
sS'Yuguang Yan'
p4134
I1
sS'Raul Kompass'
p4135
I1
sS'Erik Cambria'
p4136
I1
sS'Michael Trick'
p4137
I1
sS'Jean Christoph Jung'
p4138
I4
sS'Zhiyong Feng'
p4139
I1
sS'Andrea Tettamanzi'
p4140
I1
sS'Ioannis Karamouzas'
p4141
I1
sS'Nicolas Gaud'
p4142
I1
sS'Judy Kay'
p4143
I1
sS'Christian Komusiewicz'
p4144
I1
sS'Mathieu Blondel'
p4145
I1
sS'Paolo Guagliardo'
p4146
I1
sS'Jens Kober'
p4147
I1
sS'Lizi Liao'
p4148
I1
sS'Mark H. M. Winands'
p4149
I1
sS'Yejin Choi'
p4150
I1
sS'Zemin Zhang'
p4151
I1
sS'Xiaolong Jin'
p4152
I2
sS'Frantisek Simancik'
p4153
I1
sS'Muhammad Rizwan Saeed'
p4154
I1
sS'Jonathan Ben-Naim'
p4155
I3
sS'Fabrizio Costa'
p4156
I1
sS'Wentao Wei'
p4157
I1
sS'Hitoshi Isahara'
p4158
I1
sS'Kun Zhou'
p4159
I1
sS'S\xc3\xb8ren Tjagvad Madsen'
p4160
I1
sS'Prashant P. Reddy'
p4161
I1
sS'Xiangwu Meng'
p4162
I1
sS'George Konstantinidis'
p4163
I1
sS'Stephan Gspandl'
p4164
I1
sS'Yoshikazu Kobayashi'
p4165
I1
sS'Georgios Amanatidis'
p4166
I1
sS'Zhenying He'
p4167
I1
sS'Qiang Zhang'
p4168
I2
sS'Karthik Dinakar'
p4169
I1
sS'Jiaming Xu'
p4170
I1
sS'Ryen White'
p4171
I1
sS'Aaron Adler'
p4172
I1
sS'Adrian Pino Angulo'
p4173
I1
sS'Tyrone Strangway'
p4174
I1
sS'Fumin Shen'
p4175
I1
sS'Xiaojun Quan'
p4176
I2
sS'Somdeb Sarkhel'
p4177
I1
sS'Sarah Michele Rajtmajer'
p4178
I1
sS'Kevin Regan'
p4179
I2
sS'Luc Mercier'
p4180
I1
sS'Oktie Hassanzadeh'
p4181
I1
sS'Udi Ben-Arie'
p4182
I1
sS'Kijung Shin'
p4183
I1
sS'Rongyao Hu'
p4184
I1
sS'Zhiqiang Sui'
p4185
I1
sS'Xiaoxiao Guo'
p4186
I1
sS'Dimitris N. Metaxas'
p4187
I3
sS'Liang Li 0003'
p4188
I1
sS'Yan Tong'
p4189
I1
sS'Hengshu Zhu'
p4190
I2
sS'Maxim Likhachev'
p4191
I2
sS'Amos J. Storkey'
p4192
I1
sS'Andrew G. Barto'
p4193
I3
sS'Yan Yan'
p4194
I3
sS'Shi Feng'
p4195
I2
sS'Ming Sun'
p4196
I1
sS'Dafna Shahaf'
p4197
I4
sS'Katar\xc3\xadna Cechl\xc3\xa1rov\xc3\xa1'
p4198
I1
sS'Yanghua Xiao'
p4199
I5
sS'Dominik Winterer'
p4200
I1
sS'Aviv Tamar'
p4201
I1
sS'Wenbo Liu'
p4202
I1
sS'Dimitri Ognibene'
p4203
I1
sS'Amin Haji Abolhassani'
p4204
I1
sS'Ke Lu'
p4205
I1
sS'Ruiwei Wang'
p4206
I1
sS'Mnacho Echenim'
p4207
I1
sS'Dario Della Monica'
p4208
I2
sS'Fabrice Lef\xc3\xa8vre'
p4209
I1
sS'Shiqi Shen'
p4210
I1
sS'Xingchi Yuan'
p4211
I1
sS'Patricia Alves-Oliveira'
p4212
I1
sS'Nan Jiang'
p4213
I3
sS'Xiang Yan'
p4214
I1
sS'Fumiya Iida'
p4215
I1
sS'Zeng-Wei Huo'
p4216
I1
sS'Nicolas Meuleau'
p4217
I1
sS'Bei Xu'
p4218
I1
sS'Xudong Zhang'
p4219
I1
sS'Liqiang Xiao'
p4220
I1
sS'Zainul Charbiwala'
p4221
I1
sS'Leong Hou U'
p4222
I1
sS'Shourya Roy'
p4223
I2
sS'Rodrigue Talla Kuate'
p4224
I1
sS'Yunxia Xue'
p4225
I1
sS'Travis Mandel'
p4226
I2
sS'Renu Kurien Bostwick'
p4227
I1
sS'Neha Lodha'
p4228
I1
sS'Masoud Safilian'
p4229
I1
sS'Tathagata Chakraborti'
p4230
I1
sS'Ling Cai'
p4231
I1
sS'Xiuyi Fan'
p4232
I1
sS'Thomas Pl\xc3\xb6tz'
p4233
I2
sS'Sarah L. Hickmott'
p4234
I1
sS'Russell Bent'
p4235
I1
sS'Arnaud Lallouet'
p4236
I3
sS'Liping Jing'
p4237
I1
sS'Yehao Li'
p4238
I1
sS'Valentin Montmirail'
p4239
I1
sS'Ji-Rong Wen'
p4240
I3
sS'Gerhard Weiss'
p4241
I1
sS'Miquel Bofill'
p4242
I2
sS'Peter Hatherly'
p4243
I1
sS'Yundi Qian'
p4244
I1
sS'Guang Dai'
p4245
I2
sS'Antonio Sgorbissa'
p4246
I1
sS'Esther David'
p4247
I1
sS'Tian Xia'
p4248
I1
sS'Nga Lam Law'
p4249
I1
sS'Charles Orgill Gretton'
p4250
I1
sS'Hossam Sharara'
p4251
I1
sS'Ling-Yu Duan'
p4252
I3
sS'Inbal Wiesel-Kapah'
p4253
I1
sS'Yoav Shoham'
p4254
I5
sS'Yanyu Xu'
p4255
I1
sS'Youngsoo Jang'
p4256
I1
sS'Gregory Dudek'
p4257
I1
sS'Mohammad Rostami'
p4258
I1
sS'The Anh Han'
p4259
I2
sS'Guoping Hu'
p4260
I1
sS'Minh Nhut Nguyen'
p4261
I2
sS'Amy McGovern'
p4262
I1
sS'Chen Liang'
p4263
I1
sS'Pierre Talbot'
p4264
I1
sS'Charles F. K. Siu'
p4265
I1
sS'Ola Rozenfeld'
p4266
I1
sS'Jianping Fan 0001'
p4267
I4
sS'Erik Halvorson'
p4268
I1
sS'Hanqing Lu'
p4269
I4
sS'Bin Gu'
p4270
I2
sS'Fei Gao'
p4271
I1
sS'Takuichi Nishimura'
p4272
I1
sS'Amit Sharma'
p4273
I1
sS'Qingxiong Yang'
p4274
I2
sS'Dario Izzo'
p4275
I1
sS'Goldie Nejat'
p4276
I1
sS'Henry Lieberman'
p4277
I1
sS'Marco Roveri'
p4278
I1
sS'Ye Liu'
p4279
I2
sS'Solomon Eyal Shimony'
p4280
I8
sS'Fuchen Long'
p4281
I1
sS'Ivan Mars\xc3\xa1-Maestre'
p4282
I1
sS'Hasan Davulcu'
p4283
I1
sS'Isaac L. Johnson'
p4284
I1
sS'Abder Koukam'
p4285
I1
sS'Roberto Amadini'
p4286
I1
sS'Alneu de Andrade Lopes'
p4287
I2
sS'Dhirendra Singh'
p4288
I2
sS'Andrzej Kaczmarczyk 0001'
p4289
I1
sS'Xin Cao'
p4290
I1
sS'Susanne Hemmann'
p4291
I1
sS'Vitaly Lagoon'
p4292
I1
sS'Can Wang'
p4293
I1
sS'Alexey Ignatiev'
p4294
I3
sS'Lei Li'
p4295
I2
sS'Hannaneh Hajishirzi'
p4296
I1
sS'Benjamin Kiesl'
p4297
I1
sS'Limor Ikar'
p4298
I1
sS'Ming-Yu Liu'
p4299
I1
sS'Alberto Ingenito'
p4300
I1
sS'Rosaldo J. F. Rossetti'
p4301
I1
sS'Dan Yang'
p4302
I1
sS'Konstantine Tsotsos'
p4303
I1
sS'Jianxin Li'
p4304
I3
sS'Hanyang Peng'
p4305
I1
sS'Rico Jonschkowski'
p4306
I1
sS'Kaizhu Huang'
p4307
I1
sS'Michael L. Littman'
p4308
I1
sS'Yannis Dimopoulos'
p4309
I1
sS'Xuming He'
p4310
I1
sS'Jie Qin'
p4311
I1
sS'Antonio Bahamonde'
p4312
I1
sS'Zhaoxiang Zhang'
p4313
I3
sS'Tianyi Luo'
p4314
I1
sS'Xin Niu'
p4315
I1
sS'Jan Treur'
p4316
I4
sS'Jo\xc3\xa3o Gama'
p4317
I1
sS'Muyun Yang'
p4318
I1
sS'David Tyler Bischel'
p4319
I1
sS'Shixia Liu'
p4320
I1
sS'Jo\xc3\xa3o Correia'
p4321
I2
sS'Yizhou Yu'
p4322
I1
sS'Riccardo Rosati'
p4323
I6
sS'Diego Calvanese'
p4324
I11
sS'Zhuo Hui'
p4325
I1
sS'Arne Sieverling'
p4326
I1
sS'Alexander Bochman'
p4327
I1
sS'Roberto Centeno'
p4328
I1
sS'Paul Scerri'
p4329
I1
sS'Partha Sarathi Dutta'
p4330
I2
sS'Peng Zang'
p4331
I3
sS'Willy Cheung'
p4332
I1
sS'Roland Kaminski'
p4333
I1
sS'Zheng Li'
p4334
I1
sS'Narayanan Unny Edakunni'
p4335
I1
sS'Junjie Wu'
p4336
I1
sS'Albert Xin Jiang'
p4337
I8
sS'Mark Hoogendoorn'
p4338
I2
sS'Emir Demirovic'
p4339
I1
sS'Quan Wang'
p4340
I1
sS'Nouhad Amaneddine'
p4341
I1
sS'Michael Mateas'
p4342
I2
sS'Yehuda Koren'
p4343
I1
sS'Pieter Van Hertum'
p4344
I1
sS'Susan Craw'
p4345
I2
sS'Shiqi Zhang'
p4346
I2
sS'Sandra Gabaglio'
p4347
I1
sS'Zongzhang Zhang'
p4348
I1
sS'Josh Bradshaw'
p4349
I1
sS'Christophe Lecoutre'
p4350
I3
sS'Yoshitaka Kameya'
p4351
I1
sS'Victor Naroditskiy'
p4352
I1
sS'Shuming Liu'
p4353
I1
sS'Sanmit Narvekar'
p4354
I2
sS'Scott Sanner'
p4355
I7
sS'Sarah Keren'
p4356
I2
sS'Rick Siow Mong Goh'
p4357
I1
sS'Johan de Kleer'
p4358
I2
sS'Christos Moyzes'
p4359
I1
sS'Julian Padget'
p4360
I1
sS'Andrzej Wasowski'
p4361
I1
sS'Lili Zhao'
p4362
I1
sS'Xiao-Dan Zhu'
p4363
I1
sS'Moritz G\xc3\xb6belbecker'
p4364
I1
sS'Luigi Bellomarini'
p4365
I1
sS'Pieter W. M. Koopman'
p4366
I1
sS'Xingyu Su'
p4367
I2
sS'Aykut Erdem'
p4368
I1
sS'Ufuk Topcu'
p4369
I3
sS'Siddhartha Banerjee'
p4370
I2
sS'Xue-Min Si'
p4371
I1
sS'Yongfeng Zhang'
p4372
I1
sS'Jin-ge Yao'
p4373
I1
sS'Michael Kaisers'
p4374
I2
sS'Yankai Lin'
p4375
I1
sS'Xiaojin Zhu 0001'
p4376
I5
sS'Xiaodan Zhu'
p4377
I1
sS'Houdong Zheng'
p4378
I1
sS'Claire Vernade'
p4379
I1
sS'George Koletsos'
p4380
I1
sS'Jan Noessner'
p4381
I1
sS'Begum Genc'
p4382
I1
sS'Lin Chen 0010'
p4383
I1
sS'Jingyi Yu'
p4384
I1
sS'Liangpei Zhang'
p4385
I1
sS'Kentaro Inui'
p4386
I1
sS'Martin Neil'
p4387
I1
sS'Peter Kontschieder'
p4388
I1
sS'Menkes van den Briel'
p4389
I2
sS'Kustaa Kangas'
p4390
I1
sS'Kevin Leo'
p4391
I1
sS'Jesse Thomason'
p4392
I3
sS'Chaokun Wang'
p4393
I1
sS'Bidisha Samanta'
p4394
I1
sS'Martin Zinkevich'
p4395
I1
sS'Raffaella Bernardi'
p4396
I1
sS'Francesco Ronzano'
p4397
I1
sS'Thomas Quaritsch'
p4398
I2
sS'Ian D. Reid 0001'
p4399
I1
sS'Xiaoqiang Lu'
p4400
I2
sS'Kai Yee Phoebe Chua'
p4401
I1
sS'Dongmo Zhang'
p4402
I3
sS'Zhen-Zhong Lan'
p4403
I1
sS'Maoguo Gong'
p4404
I3
sS'Jude W. Shavlik'
p4405
I2
sS'Yajun Wang'
p4406
I1
sS'Yanfeng Sun'
p4407
I1
sS'Thomas Krennwallner'
p4408
I1
sS'Michael James Gratton'
p4409
I1
sS'Antonius Weinzierl'
p4410
I3
sS'Hans Degroote'
p4411
I1
sS'Benjamin Mathers'
p4412
I1
sS'Pierre Roy'
p4413
I4
sS'Monika Schubert'
p4414
I2
sS'Shanika Karunasekera'
p4415
I2
sS'Matthew D. Luciw'
p4416
I1
sS'Dominik Wojtczak'
p4417
I3
sS'Matteo Bertello'
p4418
I1
sS'Yang Yang'
p4419
I3
sS'Tobias Scheffer'
p4420
I1
sS'Jonathan P. Rowe'
p4421
I2
sS'Elizabeth M. Daly'
p4422
I1
sS'Maurizio Gabbrielli'
p4423
I1
sS'Chun-Yen Chang 0001'
p4424
I1
sS'Robin Boswell'
p4425
I1
sS'Andreas Witzel'
p4426
I1
sS'Jacob Feldman'
p4427
I1
sS'En Zhu'
p4428
I1
sS'Fang Liu'
p4429
I1
sS'Guohong Fu'
p4430
I1
sS'Jennifer Neville'
p4431
I1
sS'Frederik Janssen'
p4432
I1
sS'Kevin Waugh'
p4433
I1
sS'Pedro Larra\xc3\xb1aga'
p4434
I1
sS'Liang Lin'
p4435
I2
sS'F\xc3\xa1bio Gagliardi Cozman'
p4436
I2
sS'Ahmed M. Elgammal'
p4437
I1
sS'Evan Sultanik'
p4438
I2
sS'M. A. Hakim Newton'
p4439
I1
sS'Evgeniy Gabrilovich'
p4440
I1
sS'Gaowen Liu'
p4441
I1
sS'Antonio Criminisi'
p4442
I2
sS'Ko-Hsin Cindy Wang'
p4443
I2
sS'Tianrui Hu'
p4444
I1
sS'Joni Pajarinen'
p4445
I1
sS'Jack Flann'
p4446
I1
sS'Juan R. Velasco'
p4447
I1
sS'Hong Qian'
p4448
I1
sS'Shaogang Gong'
p4449
I1
sS'Junyu Niu'
p4450
I1
sS'Sergio Flesca'
p4451
I1
sS'Reinhold Scherer'
p4452
I1
sS'Fran\xc3\xa7ois Br\xc3\xa9mond'
p4453
I1
sS'Jan Otop'
p4454
I1
sS'Jinjun Wang'
p4455
I2
sS'Emmett Witchel'
p4456
I1
sS'Carlos Linares L\xc3\xb3pez'
p4457
I4
sS'Cassio Polpo de Campos'
p4458
I3
sS'Felipe Leno da Silva'
p4459
I1
sS'Kristian Kersting'
p4460
I7
sS'A. Ricardo Morales'
p4461
I1
sS'Bangsheng Tang'
p4462
I2
sS'Andreas Arzt'
p4463
I1
sS'Yao Hu'
p4464
I2
sS'Haoti Zhong'
p4465
I2
sS'Ming Li'
p4466
I2
sS'Jos\xc3\xa9-Luis P\xc3\xa9rez-de-la-Cruz'
p4467
I1
sS'Jesus Boticario'
p4468
I1
sS'Michael Zuckerman'
p4469
I1
sS'Huihui Wei'
p4470
I1
sS'Wenpeng Yin 0001'
p4471
I1
sS'Alessandro Artale'
p4472
I3
sS'Viliam Lis\xc3\xbd'
p4473
I4
sS'Dmitriy Zheleznyakov'
p4474
I2
sS'Jianmin Ji'
p4475
I3
sS'Stephen H. Muggleton'
p4476
I3
sS'Talma Hendler'
p4477
I1
sS'Tomasz P. Michalak'
p4478
I6
sS'Martin Kronegger'
p4479
I2
sS'Wentao Fan'
p4480
I1
sS'Matthew Wright'
p4481
I1
sS'Alessandro Raganato'
p4482
I1
sS'Abram L. Friesen'
p4483
I1
sS'Nobuaki Hiroshima'
p4484
I1
sS'Ziwei Wang'
p4485
I1
sS'Judea Pearl'
p4486
I1
sS'Ta-Hsin Li'
p4487
I1
sS'Smaranda Muresan'
p4488
I1
sS'Anwitaman Datta'
p4489
I1
sS'Yasuo Ariki'
p4490
I1
sS'Wonsuk Yang'
p4491
I1
sS'Tiansi Dong'
p4492
I1
sS'Yong Gao 0001'
p4493
I1
sS'Chang Liu'
p4494
I1
sS'Stephen Cranefield'
p4495
I2
sS"Ciaran O'Reilly"
p4496
I1
sS'Rohini K. Srihari'
p4497
I1
sS'Glauber De Bona'
p4498
I1
sS'Vishwajeet Singh'
p4499
I1
sS'Marcel Steinmetz'
p4500
I1
sS'Wenhan Shi'
p4501
I1
sS'Sylvie Thi\xc3\xa9baux'
p4502
I7
sS'Shu Tian'
p4503
I1
sS'Tae-Won Kim'
p4504
I1
sS'Andr\xc3\xa9 Platzer'
p4505
I1
sS'Rahul Bhagat'
p4506
I1
sS'Buyue Qian'
p4507
I3
sS'Richard J. Wallace'
p4508
I1
sS'Jin-Kao Hao'
p4509
I1
sS'Clement Gehring'
p4510
I1
sS'Nicolas Maudet'
p4511
I6
sS'Sandor M. Veres'
p4512
I1
sS'Simina Br\xc3\xa2nzei'
p4513
I6
sS'Brett Benyo'
p4514
I1
sS'Adrian Haret'
p4515
I3
sS'Philipp Cimiano'
p4516
I1
sS'Stefano Ermon'
p4517
I3
sS'D. S. Guru'
p4518
I1
sS'Meng Jiang'
p4519
I1
sS'Shoou-I Yu'
p4520
I1
sS'Nikhil Bhargava'
p4521
I1
sS'Yasushi Kawase'
p4522
I2
sS'Hongbin Cai'
p4523
I1
sS'Yinpeng Dong'
p4524
I2
sS'Roberto Basili 0001'
p4525
I1
sS'Alan Hanjalic'
p4526
I1
sS'Song Wang'
p4527
I1
sS'Yichi Xiao'
p4528
I1
sS'Luigi Sauro'
p4529
I3
sS'Shaonan Wang'
p4530
I1
sS'Weiwei Shi'
p4531
I1
sS'Xiaohu Cheng'
p4532
I1
sS'Peng Qian'
p4533
I1
sS'Tao Zhang'
p4534
I1
sS'Eduardo F. Morales'
p4535
I1
sS'V\xc3\xadtor Carvalho'
p4536
I1
sS'Marine Minier'
p4537
I1
sS'Piotr Krysta'
p4538
I1
sS'Michael S. Ryoo'
p4539
I3
sS'Rudolph Triebel'
p4540
I1
sS'Aliaksei Severyn'
p4541
I1
sS'Sylvain Lagrue'
p4542
I2
sS'Karan Goel'
p4543
I1
sS'Jiewen Wu'
p4544
I1
sS'Ayelet Or-Borichov'
p4545
I1
sS'Ara Vartanian'
p4546
I1
sS'Fuzhen Zhuang'
p4547
I5
sS'Hanxiao Shi'
p4548
I1
sS'Zhiwei Zhang'
p4549
I2
sS'Xiaozhao Zhao'
p4550
I1
sS'Enrique Fern\xc3\xa1ndez-Gonz\xc3\xa1lez'
p4551
I2
sS'Ke Zhou'
p4552
I1
sS'Elizabeth S. Burnside'
p4553
I1
sS'Jia-Huai You'
p4554
I2
sS'Tjitze Rienstra'
p4555
I1
sS'Anna Koop'
p4556
I1
sS'Lucas Bordeaux'
p4557
I1
sS'Aitor Soroa'
p4558
I1
sS'Johannes Klaus Fichte'
p4559
I1
sS'Hao Wang 0014'
p4560
I2
sS'Mehmet A. Orgun'
p4561
I1
sS'Ugo Galassi'
p4562
I1
sS'Zhiyuan Pan'
p4563
I1
sS'Ritish Goyal'
p4564
I1
sS'Florian Pommerening'
p4565
I4
sS'Javier Morales'
p4566
I1
sS'Jianlong Fu'
p4567
I1
sS'Ildik\xc3\xb3 Schlotter'
p4568
I1
sS'Cyril Leung'
p4569
I1
sS'Kaiming Xiao'
p4570
I1
sS'Dav Zimak'
p4571
I1
sS'Allam S. Hassanein'
p4572
I1
sS'Sofia Ceppi'
p4573
I1
sS'Krishnendu Chatterjee'
p4574
I1
sS'Karl Tuyls'
p4575
I1
sS'Xiao Ling'
p4576
I1
sS'Maher Chaouachi'
p4577
I1
sS'Marina Danilevsky'
p4578
I1
sS'Shay Deutsch'
p4579
I1
sS'Peilin Zhao'
p4580
I6
sS'Nadin K\xc3\xb6kciyan'
p4581
I1
sS'Dave Cliff'
p4582
I1
sS'Georgios Chalkiadakis'
p4583
I4
sS'Xiaofeng Zhu'
p4584
I1
sS'Yu Su'
p4585
I1
sS'Luiz A. Celiberto'
p4586
I1
sS'Tom Lenaerts'
p4587
I2
sS'Caner Komurlu'
p4588
I1
sS'Ashish Goel'
p4589
I1
sS'Jun Zhang 0017'
p4590
I1
sS'Yingchuan Wong'
p4591
I1
sS'Haiqin Yang'
p4592
I2
sS'Vimal Mathew'
p4593
I1
sS'Anna H. R. Costa'
p4594
I1
sS'Danqing Xu'
p4595
I1
sS'Kathryn E. Merrick'
p4596
I1
sS'Wei-Shi Zheng'
p4597
I5
sS'Micha\xc3\xabl Aupetit'
p4598
I1
sS'Peipei Yang'
p4599
I1
sS'Akinori Fujino'
p4600
I2
sS'Jianguo Wang 0001'
p4601
I1
sS'Dana H. Ballard'
p4602
I1
sS'Vu Nguyen'
p4603
I2
sS'Jon Chamberlain'
p4604
I1
sS'Peter McBurney'
p4605
I2
sS'Chunliang Zhang'
p4606
I1
sS'Subramanian Ramamoorthy'
p4607
I1
sS'Ke Zhang'
p4608
I2
sS'Runcong Li'
p4609
I1
sS'Yunlong Liu'
p4610
I1
sS'Edith Elkind'
p4611
I20
sS'Tiago Stegun Vaquero'
p4612
I2
sS'Claudiu Cristian Musat'
p4613
I3
sS'Maroua Bouzid'
p4614
I2
sS'Jonathan P. Pearce'
p4615
I1
sS'Satoshi Oyama'
p4616
I2
sS'Zhouhui Lian'
p4617
I1
sS'Lingxi Xie'
p4618
I1
sS'Petr Savick\xc3\xbd'
p4619
I1
sS'Jie Zhang'
p4620
I6
sS'Sudeep Marwaha'
p4621
I1
sS'Wei Gao'
p4622
I7
sS'Kacper Sokol'
p4623
I1
sS'Arindam Banerjee'
p4624
I1
sS'Smitha Milli'
p4625
I1
sS'Osamu Watanabe 0001'
p4626
I1
sS'Peng Zhang 0002'
p4627
I1
sS'Stuart J. Russell'
p4628
I6
sS'Jordi Sabater-Mir'
p4629
I3
sS'Bo Wu 0018'
p4630
I1
sS'Junlin Liu'
p4631
I1
sS'Nigel Bosch'
p4632
I1
sS'Rayid Ghani'
p4633
I1
sS'Zitong Zhang'
p4634
I1
sS'Wei Wang 0028'
p4635
I1
sS'Shao-Wen Yang'
p4636
I1
sS'Alessandro Farinelli'
p4637
I6
sS'Siliang Tang'
p4638
I1
sS'Philip J. Willis'
p4639
I1
sS'Andr\xc3\xa1s Gy\xc3\xb6rgy'
p4640
I2
sS'Alexander Borgida'
p4641
I1
sS'Siddharth Suri'
p4642
I1
sS'Phyo Phyo San'
p4643
I1
sS'Sakyajit Bhattacharya'
p4644
I1
sS'Dmitri A. Dolgov'
p4645
I1
sS'Clemens Kupke'
p4646
I1
sS'Lifeng Shen'
p4647
I1
sS'Wenbin Jiang'
p4648
I1
sS'Zhenzhou Ji'
p4649
I1
sS'Li Liu'
p4650
I3
sS'Ronald Alford'
p4651
I2
sS'Yoram Bachrach'
p4652
I9
sS'Aleksy Stanislaw Barcz'
p4653
I1
sS'Jing Zhang 0001'
p4654
I1
sS'Xinhang Song'
p4655
I1
sS'Frank Dignum'
p4656
I1
sS'Jaron Lanier'
p4657
I1
sS'Mandana Hamidi'
p4658
I1
sS'Andreas Krause 0001'
p4659
I8
sS'Thomas S. Huang'
p4660
I5
sS'Pallab Dasgupta'
p4661
I1
sS'Agostino Dovier'
p4662
I1
sS'Nanning Zheng'
p4663
I3
sS'Shibashis Guha'
p4664
I1
sS'Brian Logan'
p4665
I7
sS'Qingyu Guo'
p4666
I3
sS'Philip S. Thomas'
p4667
I1
sS'Gabriella Pigozzi'
p4668
I1
sS'Alvis Cheuk M. Fong'
p4669
I1
sS'Blai Bonet'
p4670
I8
sS'Chenguang Wang'
p4671
I3
sS'Chunbin Lin'
p4672
I1
sS'Bing Zeng'
p4673
I1
sS'Fabio Zambetta'
p4674
I1
sS'Binxing Fang'
p4675
I1
sS'Jaegul Choo'
p4676
I2
sS'Stephen Marsland'
p4677
I2
sS'Gabriele Farina'
p4678
I2
sS'Kai-Uwe K\xc3\xbchnberger'
p4679
I1
sS'Xingxing Wei'
p4680
I1
sS'Tyler McDonnell'
p4681
I1
sS'Patrice Perny'
p4682
I7
sS'Xiao Huang'
p4683
I2
sS'Tengfei Zhou'
p4684
I3
sS'Dongho Kim'
p4685
I1
sS'J. Christopher Beck'
p4686
I4
sS'Josep Llu\xc3\xads Arcos'
p4687
I1
sS'Guido Tack'
p4688
I2
sS'Yifan Zhang'
p4689
I2
sS'Ying-Cong Chen'
p4690
I1
sS'Yoko Nakajima'
p4691
I1
sS'Felip Many\xc3\xa0'
p4692
I5
sS'Yuzhen Niu'
p4693
I1
sS'Yarden Naveh'
p4694
I1
sS'J\xc3\xa9r\xc3\xa9my Sanhes'
p4695
I1
sS'J\xc3\xb6rg P\xc3\xbchrer'
p4696
I1
sS'Hang Li'
p4697
I6
sS'Tobias Lang 0001'
p4698
I1
sS'Shichao Zhang'
p4699
I1
sS'Guillermo M. Albaiceta'
p4700
I1
sS'Stefan Ellmauthaler'
p4701
I1
sS'Maryam Ghasemi'
p4702
I1
sS'Max Barer'
p4703
I1
sS'Brent J. Hecht'
p4704
I1
sS'Zhi Zhong'
p4705
I1
sS'Yang Yu'
p4706
I4
sS'Qi Meng'
p4707
I1
sS'Ethan Fast'
p4708
I1
sS'Vladik Kreinovich'
p4709
I1
sS'Malte Helmert'
p4710
I6
sS'Michel Lecl\xc3\xa8re'
p4711
I3
sS'Matthew J. Rutherford'
p4712
I1
sS'Sriraam Natarajan'
p4713
I3
sS'Claire Monteleoni'
p4714
I1
sS'Levent Bolelli'
p4715
I1
sS'Nathan D. Ratliff'
p4716
I2
sS'Feng Liu'
p4717
I1
sS'Adams Wai-Kin Kong'
p4718
I1
sS'Santiago Franco'
p4719
I3
sS'Hongliang Guo'
p4720
I1
sS'Francesco Lupia'
p4721
I2
sS'Lingjia Deng'
p4722
I1
sS'Vaishak Belle'
p4723
I10
sS'Yizhong Liang'
p4724
I1
sS'Nicol\xc3\xa1s Della Penna'
p4725
I1
sS'Laurent Miclet'
p4726
I1
sS'Lijun Wu'
p4727
I1
sS'Mary Ellen Foster'
p4728
I1
sS'Timo von Oertzen'
p4729
I1
sS'Jiongkun Xie'
p4730
I1
sS'Junzhe Zhang'
p4731
I1
sS'Swee Chuan Tan'
p4732
I1
sS'Tim Roughgarden'
p4733
I2
sS'Wesley Kerr'
p4734
I1
sS'Chris Cameron'
p4735
I1
sS'Kam-Fai Wong'
p4736
I3
sS'Cyril Terrioux'
p4737
I2
sS'Lakhdar Sais'
p4738
I4
sS'Thomas Lukasiewicz'
p4739
I7
sS'Chuan Wang'
p4740
I1
sS'Oliviero Stock'
p4741
I2
sS'David B. Grimes'
p4742
I1
sS'Dmitry Shiryaev'
p4743
I1
sS'Elaine Wah'
p4744
I2
sS'Kotagiri Ramamohanarao'
p4745
I1
sS'Yichen Wang'
p4746
I1
sS'Haifang Li'
p4747
I1
sS'Naiyang Guan'
p4748
I1
sS'Xiaoping Chen'
p4749
I7
sS'Manfred Hild'
p4750
I1
sS'Sicheng Zhao'
p4751
I1
sS'Fei Fang'
p4752
I2
sS'J. K. Aggarwal'
p4753
I1
sS'Iliana M. Petrova'
p4754
I1
sS'Myra Norton'
p4755
I1
sS'Hung Quoc Ngo 0001'
p4756
I1
sS'Maximilian Marx 0001'
p4757
I1
sS'Mario Gorga'
p4758
I1
sS'Weiwei Shen'
p4759
I2
sS'Harmeet Kaur'
p4760
I1
sS'Rafael Pe\xc3\xb1aloza'
p4761
I4
sS'Jiangtao Feng'
p4762
I1
sS'Jiachen Du'
p4763
I1
sS'Erman Acar'
p4764
I1
sS'Giorgio Patrini'
p4765
I1
sS'Andreas G. Hofmann'
p4766
I1
sS'Koby Crammer'
p4767
I3
sS'James Bailey'
p4768
I2
sS'Juhong Xu'
p4769
I1
sS'Debmalya Mandal'
p4770
I1
sS'Martin Aleksandrov'
p4771
I4
sS'Yifan Pi'
p4772
I1
sS'Berk Kapicioglu'
p4773
I1
sS'Bin Zhang 0013'
p4774
I1
sS'Minnan Luo'
p4775
I3
sS'Hang Gao'
p4776
I1
sS'Rafael E. Banchs'
p4777
I1
sS'Sambaran Bandyopadhyay'
p4778
I1
sS'Christopher Raphael'
p4779
I1
sS'Danilo Croce'
p4780
I1
sS'Juan Antonio Recio-Garc\xc3\xada'
p4781
I1
sS'Christopher Makoto Wilt'
p4782
I1
sS'Andreza Sartori'
p4783
I1
sS'Juan Carlos Santamar\xc3\xada'
p4784
I1
sS'Yakoub Salhi'
p4785
I1
sS'Ioannis A. Vetsikas'
p4786
I1
sS'Maria Fasli'
p4787
I1
sS'Carole R. Beal'
p4788
I1
sS'Shuangzhi Wu'
p4789
I1
sS'Peng Zhao'
p4790
I1
sS'Christopher Mears'
p4791
I2
sS'Mark Chavira'
p4792
I1
sS'Linchao Bao'
p4793
I2
sS'Euiwoong Lee'
p4794
I1
sS'Pierre Sav\xc3\xa9ant'
p4795
I1
sS'Alun D. Preece'
p4796
I1
sS'Philip Henderson'
p4797
I1
sS'Fei Tony Liu'
p4798
I1
sS'Paul Piula Taele'
p4799
I1
sS'Christoph Schwering'
p4800
I3
sS'Lyndon Benke'
p4801
I1
sS'Jiji Zhang'
p4802
I1
sS'Aidong Zhang'
p4803
I1
sS'Dengji Zhao'
p4804
I3
sS'Wheeler Ruml'
p4805
I5
sS'Fernando J. Von Zuben'
p4806
I1
sS'Mo Yu'
p4807
I1
sS'Richard B. Borie'
p4808
I1
sS'C\xc3\xa9line Robardet'
p4809
I1
sS'Kewen Wang'
p4810
I3
sS'Tim Rawling'
p4811
I1
sS'Stephen Friedman'
p4812
I1
sS'Knot Pipatsrisawat'
p4813
I1
sS'Eyal Soreq'
p4814
I1
sS'Lin Padgham'
p4815
I2
sS'Junjun Jiang'
p4816
I3
sS'Duong Chi Thang'
p4817
I1
sS'Cam-Tu Nguyen'
p4818
I2
sS'Oleksandr Polozov'
p4819
I1
sS'Sham M. Kakade'
p4820
I1
sS'Scott E. Friedman'
p4821
I1
sS'Richard G. Baraniuk'
p4822
I1
sS'Johannes Peter Wallner'
p4823
I4
sS'Ezgi Iraz Su'
p4824
I1
sS'Harry Halpin'
p4825
I1
sS'Ji Zhou'
p4826
I1
sS'Toby Walsh'
p4827
I24
sS'Craig Boutilier'
p4828
I15
sS'Muhammad Ali'
p4829
I1
sS'Junwei Han'
p4830
I10
sS'Arjen Hommersom'
p4831
I3
sS'Gregor Behnke'
p4832
I2
sS'Alefiya Lightwala'
p4833
I1
sS'Liwei Wang 0001'
p4834
I3
sS'Alvaro Soto'
p4835
I1
sS'Yasutoshi Ida'
p4836
I1
sS'Yang Yang 0002'
p4837
I1
sS'Kotaro Nakayama'
p4838
I1
sS'Qian Yang'
p4839
I1
sS'Franz Wotawa'
p4840
I2
sS'Hongyuan Zha'
p4841
I8
sS'Gian Luca Pozzato'
p4842
I1
sS'Erik Peter Zawadzki'
p4843
I1
sS'Zhengyan Zhang'
p4844
I1
sS'Hema Raghavan'
p4845
I1
sS'Levi H. S. Lelis'
p4846
I4
sS'Vincent W. Zheng'
p4847
I2
sS'Shuji Hao'
p4848
I1
sS'Shonali Krishnaswamy'
p4849
I2
sS'Lei Lin'
p4850
I1
sS'Matteo Denitto'
p4851
I1
sS'Tri-Dung Nguyen'
p4852
I2
sS'Mengchen Zhao'
p4853
I1
sS'Ann Now\xc3\xa9'
p4854
I3
sS'Francis Chi-Moon Lau'
p4855
I1
sS'Yong Ge'
p4856
I6
sS'Giorgio Stefanoni'
p4857
I1
sS'Yang Liu 0021'
p4858
I2
sS'Masahito Kurihara'
p4859
I1
sS'Hugo Gilbert'
p4860
I2
sS'Aleksey Buzmakov'
p4861
I1
sS'Jennifer Elisabeth Buehler'
p4862
I1
sS'Maria Vanina Mart\xc3\xadnez'
p4863
I1
sS'Songcan Chen'
p4864
I5
sS'Lan Yu'
p4865
I2
sS'Chakravarthy Bhagvati'
p4866
I1
sS'Jiri Cermak'
p4867
I2
sS'Marie D. Manner'
p4868
I1
sS'Jianwen Zhang'
p4869
I1
sS'Bing Liu 0001'
p4870
I3
sS'Trong Nghia Hoang'
p4871
I2
sS'Erel Segal-Halevi'
p4872
I1
sS'Gy\xc3\xb6rgy Tur\xc3\xa1n'
p4873
I1
sS'Thomas Bolander'
p4874
I2
sS'Wei Wang 0009'
p4875
I3
sS'Wei Feng'
p4876
I1
sS'Pierre Genev\xc3\xa8s'
p4877
I3
sS'Hexing Zhu'
p4878
I1
sS'Fu Song'
p4879
I1
sS'Pengcheng Yin'
p4880
I1
sS'David Talbot'
p4881
I1
sS'Iadine Chades'
p4882
I2
sS'Kurt Konolige'
p4883
I1
sS'Tieran Zheng'
p4884
I1
sS'Zhongqi Lu'
p4885
I2
sS'Jeffrey O. Kephart'
p4886
I1
sS'Brian Powers'
p4887
I1
sS'Ziqian Zeng'
p4888
I1
sS'Quentin Plazar'
p4889
I1
sS'Ko Endo'
p4890
I1
sS'Weidong Geng'
p4891
I1
sS'S\xc3\xa9bastien Tabary'
p4892
I2
sS'Xiaojie Li'
p4893
I1
sS'Vipin Kumar'
p4894
I2
sS'Ji Zhao 0001'
p4895
I1
sS'Yi Zheng'
p4896
I2
sS'Rong Pan'
p4897
I3
sS'Tom Y. Ouyang'
p4898
I1
sS'Svetan M. Ratchev'
p4899
I1
sS'Shandian Zhe'
p4900
I1
sS'Yalong Bai'
p4901
I1
sS'St\xc3\xa9phane Ross'
p4902
I1
sS'Xiangyu Duan'
p4903
I2
sS'Simon de Givry'
p4904
I3
sS'Vijay Chandrasekhar'
p4905
I1
sS'Zhouyu Fu'
p4906
I2
sS'Yingchun Zhang'
p4907
I1
sS'Zhongliang Li'
p4908
I1
sS'Xiaoyu Ge'
p4909
I2
sS'Sarvnaz Karimi'
p4910
I1
sS'Aijun Bai'
p4911
I2
sS'Barnab\xc3\xa1s P\xc3\xb3czos'
p4912
I3
sS'Liangda Li'
p4913
I1
sS'Christopher J. Hazard'
p4914
I1
sS'Yoram Moses'
p4915
I1
sS'Horacio Saggion'
p4916
I1
sS'Antonio Jimeno-Yepes'
p4917
I1
sS'Dan Goldwasser'
p4918
I1
sS'Qin Iris Wang'
p4919
I1
sS'Henry Anaya-S\xc3\xa1nchez'
p4920
I1
sS'Xiaojun Chen 0004'
p4921
I2
sS'Geert-Jan M. Kruijff'
p4922
I1
sS'Subrata Das'
p4923
I1
sS'Robby Goetschalckx'
p4924
I4
sS'Vijay Menon'
p4925
I1
sS'Francisco S. Melo'
p4926
I1
sS'Umberto Straccia'
p4927
I1
sS'Enhua Wu'
p4928
I1
sS'Roie Zivan'
p4929
I5
sS'Liang Zhao'
p4930
I1
sS'Harsh Dani'
p4931
I1
sS'Xiaoke Zhu'
p4932
I2
sS'Yichen Wei'
p4933
I1
sS'Xi Peng'
p4934
I1
sS'Joseph Y. Halpern'
p4935
I6
sS'Yutaka Matsuo'
p4936
I5
sS'John N. Hooker'
p4937
I1
sS'Changjun Wang'
p4938
I2
sS'Andreia Mordido'
p4939
I1
sS'Yu Hu'
p4940
I2
sS'Yuji Matsumoto'
p4941
I1
sS'Rongrong Ji'
p4942
I5
sS'Pedro Martins 0003'
p4943
I2
sS'Aliakbar Safilian'
p4944
I1
sS'Furu Wei'
p4945
I2
sS'Manish Mehta'
p4946
I1
sS'Oded Betzalel'
p4947
I1
sS'Tatsuya Iwanari'
p4948
I1
sS'Alexander Vandenbroucke'
p4949
I1
sS'Yi Zhou'
p4950
I4
sS'Bo Liu 0015'
p4951
I1
sS'Emilios Cambouropoulos'
p4952
I1
sS'Yuki Ikuno'
p4953
I1
sS'Yong Cheng'
p4954
I3
sS'Dylan Hadfield-Menell'
p4955
I2
sS'Enhuan Chen'
p4956
I1
sS'Meng Liu'
p4957
I1
sS'Alice M. Mulvehill'
p4958
I1
sS'Yue Wang 0009'
p4959
I1
sS'Anthony P. Leclerc'
p4960
I1
sS'Jie Zhou 0001'
p4961
I1
sS'Yuan Jiang'
p4962
I8
sS'Oscar Luaces'
p4963
I1
sS'Or Biran'
p4964
I1
sS'Xiao-Yuan Jing'
p4965
I3
sS'Shenghua Gao'
p4966
I2
sS'Chris Burnett'
p4967
I1
sS'Suraj Narayanan Sasikumar'
p4968
I1
sS'Hiroki Arimura'
p4969
I1
sS'Ramachandra Kota'
p4970
I2
sS'Jing Liu 0001'
p4971
I1
sS'Chaithanya Pichuka'
p4972
I1
sS'Yao Li'
p4973
I1
sS'Karen Braga Enes'
p4974
I1
sS'Hideyuki Nakanishi'
p4975
I1
sS'Longin Jan Latecki'
p4976
I2
sS'De-Chuan Zhan'
p4977
I5
sS'Matthew C. Gombolay'
p4978
I1
sS'Andrew E. Fano'
p4979
I1
sS'Alexandre Niveau'
p4980
I4
sS'Riadh Ksantini'
p4981
I1
sS'Nader Chmait'
p4982
I1
sS'Andrew Coles'
p4983
I1
sS'Valentina Gliozzi'
p4984
I1
sS'Kibok Lee'
p4985
I1
sS'Yanshan Xiao'
p4986
I1
sS'Aniket Bera'
p4987
I1
sS'David Lesaint'
p4988
I1
sS'M\xc3\xa1rcio Alves Diniz'
p4989
I1
sS'Thach-Thao Nguyen Duong'
p4990
I1
sS'Yuma Yonebayashi'
p4991
I1
sS'Peng Cui'
p4992
I1
sS'Stefan Edelkamp'
p4993
I1
sS'Andr\xc3\xa9 A. Cir\xc3\xa9'
p4994
I1
sS'Abdul Sattar 0001'
p4995
I4
sS'Enhong Chen'
p4996
I7
sS'Guillermo P\xc3\xa9rez'
p4997
I1
sS'Irfan A. Essa'
p4998
I1
sS'Enrico Malizia'
p4999
I4
sS'Reinhard Moratz'
p5000
I1
sS'Ian D. Watson'
p5001
I2
sS'Martin Hoefer'
p5002
I1
sS'David R. Winer'
p5003
I1
sS'Yang Zhang'
p5004
I1
sS'Siqi Chen'
p5005
I1
sS'Tommaso Urli'
p5006
I1
sS'Chi Wang 0001'
p5007
I2
sS'Dengsheng Zhang'
p5008
I1
sS'Chengbin Peng'
p5009
I1
sS'Shuai Tian'
p5010
I1
sS'Daniel S. Bernstein'
p5011
I1
sS'Ishaan Grover'
p5012
I1
sS'Varun Raj Kompella'
p5013
I1
sS'Patricia Riddle'
p5014
I1
sS'Juan S. Navarro'
p5015
I1
sS'Marek J. Druzdzel'
p5016
I1
sS'Zheng Zhao'
p5017
I2
sS'S. K. Mirajul Haque'
p5018
I1
sS'Dou Shen'
p5019
I3
sS'Xiaoxun Sun'
p5020
I4
sS'Gianpiero Monaco'
p5021
I1
sS'David Schnizlein'
p5022
I1
sS'Joseph G. Taylor'
p5023
I1
sS'Paul Scott'
p5024
I1
sS'Adolfo Mart\xc3\xadnez Us\xc3\xb3'
p5025
I1
sS'Ankur Kamthe'
p5026
I1
sS'Josef Bajada'
p5027
I1
sS'Yu Zhao'
p5028
I1
sS'Toshihiro Kamishima'
p5029
I1
sS'Shumpei Sano'
p5030
I2
sS'Chenghao Liu'
p5031
I1
sS'Zongting Lv'
p5032
I2
sS'Vijay Pradeep'
p5033
I1
sS'Tuomas Sandholm'
p5034
I20
sS'Shamin Kinathil'
p5035
I1
sS'Alexander Clifford Perzylo'
p5036
I2
sS'Bulusu Lakshmana Deekshatulu'
p5037
I1
sS'Benjamin Kuipers'
p5038
I1
sS'Jochen Renz'
p5039
I10
sS'Miyoung Ko'
p5040
I1
sS'Sariel Har-Peled'
p5041
I1
sS'Chang Xia'
p5042
I1
sS'Kaustubh Kulkarni'
p5043
I1
sS'Peng Zhou'
p5044
I3
sS'Hui Xiong'
p5045
I3
sS'Zhiyuan Liu'
p5046
I12
sS'Zhiguo Wang'
p5047
I1
sS'Stephan Bernard'
p5048
I1
sS'Cristina Conati'
p5049
I4
sS'Fang Wang'
p5050
I1
sS'Xin-Yu Dai'
p5051
I3
sS'Zheng Wang 0010'
p5052
I1
sS'Gerardo Ignacio Simari'
p5053
I1
sS'Xiangjian He'
p5054
I1
sS'Yarin Gal'
p5055
I1
sS'Heather S. Packer'
p5056
I1
sS'Matthew Harding'
p5057
I1
sS'Lorenza Saitta'
p5058
I1
sS'Raymond J. Mooney'
p5059
I5
sS'Jiaxi Tang'
p5060
I1
sS'Gong Cheng'
p5061
I3
sS'Can Erdogan'
p5062
I1
sS'Enric Plaza'
p5063
I1
sS'Robert Mattm\xc3\xbcller'
p5064
I3
sS'Aviv Zohar'
p5065
I2
sS'Wee-Chong Oon'
p5066
I1
sS'Nan Duan'
p5067
I1
sS'Luming Zhang'
p5068
I4
sS'Xing Xie 0001'
p5069
I4
sS'J\xc3\xbcrgen Kuster'
p5070
I1
sS'David S. Rosenberg'
p5071
I1
sS'Giovanni Stilo'
p5072
I1
sS'Yaohui Jin'
p5073
I1
sS'Victoria Krakovna'
p5074
I1
sS'Tuan-Fang Fan'
p5075
I1
sS'Joshua B. Tenenbaum'
p5076
I2
sS'Florence Le Ber'
p5077
I1
sS'Xiaoyu Wang'
p5078
I1
sS'Feng Zheng'
p5079
I1
sS'Yuting Zhang'
p5080
I1
sS'Li Guo 0001'
p5081
I1
sS'Harold Soh'
p5082
I1
sS'Kayur Patel'
p5083
I1
sS'Paolo Ferraris'
p5084
I3
sS'Teng Ma'
p5085
I1
sS'Jakub Michaliszyn'
p5086
I2
sS'Stefan Mengel'
p5087
I1
sS'Bryan Reimer'
p5088
I1
sS'Setsuo Yamada'
p5089
I1
sS'Raul Fonseca Neto'
p5090
I2
sS'Anastasia Moskvina'
p5091
I1
sS'Ronen Feldman'
p5092
I1
sS'Chris H. Q. Ding'
p5093
I9
sS'Peter Jonsson'
p5094
I2
sS'Ming Zhou 0001'
p5095
I2
sS'Arthur Bit-Monnot'
p5096
I1
sS'Duc-Trong Le'
p5097
I1
sS'Boi Faltings'
p5098
I7
sS'Carlo Strapparava'
p5099
I2
sS'Hannes Strass'
p5100
I2
sS'Carles Sierra'
p5101
I3
sS'Guang-Neng Hu'
p5102
I1
sS'Janara Christensen'
p5103
I1
sS'Vikas K. Garg'
p5104
I1
sS'Allen Van Gelder'
p5105
I1
sS'Mao Luo'
p5106
I1
sS'Huaping Liu'
p5107
I3
sS'Houqiang Li'
p5108
I1
sS'Junsong Yuan'
p5109
I2
sS'Reinhard Pichler'
p5110
I5
sS'Wiebe van der Hoek'
p5111
I8
sS'Jiafeng Guo'
p5112
I3
sS'Yves Moinard'
p5113
I1
sS'David M. Pennock'
p5114
I2
sS'Reinaldo A. C. Bianchi'
p5115
I2
sS'Yong Yu'
p5116
I2
sS'Shiliang Sun'
p5117
I4
sS'Wanyun Cui'
p5118
I1
sS'Ruimin Hu'
p5119
I2
sS'Frederico Dusberger'
p5120
I1
sS'Jingkuan Song'
p5121
I1
sS'Bishan Yang'
p5122
I1
sS'Abhay Prakash'
p5123
I1
sS'Xudong Ma'
p5124
I1
sS'Giorgio Dalla Pozza'
p5125
I1
sS'Mohammad Abdulaziz'
p5126
I1
sS'Yifeng Zeng'
p5127
I8
sS'Richard S. Zemel'
p5128
I1
sS'Na Li'
p5129
I1
sS'Heng Li Xu'
p5130
I1
sS'Ruobing Xie'
p5131
I4
sS'Talal Rahwan'
p5132
I8
sS'Toshihiko Yamasaki'
p5133
I2
sS'Gerardo I. Simari'
p5134
I1
sS'Laura Chiticariu'
p5135
I1
sS'Eric Nichols'
p5136
I1
sS'Malcolm Slaney'
p5137
I1
sS'David W. Aha'
p5138
I6
sS'Steven Damer'
p5139
I1
sS'Jaime Sim\xc3\xa3o Sichman'
p5140
I1
sS'Sameep Mehta'
p5141
I2
sS'Mohit Kumar'
p5142
I1
sS'Kan Li'
p5143
I1
sS'Srinivasan Umesh'
p5144
I1
sS'Rui Abreu'
p5145
I2
sS'Nikolaos Gianniotis'
p5146
I1
sS'Luke Zettlemoyer'
p5147
I1
sS'Tingting Zhao'
p5148
I1
sS'He Jiang'
p5149
I1
sS'Fuchun Sun'
p5150
I4
sS'Mark Klein'
p5151
I2
sS'Yo Ehara'
p5152
I1
sS'Nir Lipovetzky'
p5153
I7
sS'Jonathan P. How'
p5154
I1
sS'Sanjay Modgil'
p5155
I4
sS'Moshe Tennenholtz'
p5156
I5
sS'Theofanis Aravanis'
p5157
I1
sS'Ingo Thon'
p5158
I1
sS'Steven Okamoto'
p5159
I1
sS'Liu Yang'
p5160
I1
sS'Jean-Charles R\xc3\xa9gin'
p5161
I2
sS'Hua Wu'
p5162
I1
sS'Riddhiman Ghosh'
p5163
I1
sS'Pranjal Awasthi'
p5164
I2
sS'Daniel Tran'
p5165
I1
sS'Hujun Bao'
p5166
I3
sS'Zhongqing Wang'
p5167
I4
sS'Hao Zhang'
p5168
I1
sS'Eric Sodomka'
p5169
I1
sS'Carlos Guestrin'
p5170
I2
sS'Avinatan Hassidim'
p5171
I2
sS'Reinhard Lafrenz'
p5172
I1
sS'Nick Hawes'
p5173
I3
sS'Tor Lattimore'
p5174
I1
sS'Michael Luck'
p5175
I1
sS'Martin Gasser'
p5176
I1
sS'Peng Zhang 0021'
p5177
I2
sS'Xiaoqing Zheng'
p5178
I2
sS'Zhenglu Yang'
p5179
I3
sS'Gerhard Friedrich'
p5180
I2
sS'Kangjie Chen'
p5181
I1
sS'David Stavens'
p5182
I1
sS'Harish Srinivasan'
p5183
I1
sS'Shenghui Wang'
p5184
I1
sS'Alex John London'
p5185
I1
sS'Christoph Weidenbach'
p5186
I1
sS'Jake K. Aggarwal'
p5187
I1
sS'Songde Ma'
p5188
I1
sS'Xiaona Ren'
p5189
I1
sS'Enric Celaya'
p5190
I1
sS'Xi Peng 0001'
p5191
I1
sS'Robert D. Nowak'
p5192
I1
sS'Wayne Iba'
p5193
I1
sS'Christopher L. Barrett'
p5194
I1
sS'Paul Baumstarck'
p5195
I1
sS'Yingbiao Ling'
p5196
I1
sS'Jan Peters 0001'
p5197
I1
sS'Wenjun Zhang 0001'
p5198
I1
sS'Onkar Bhardwaj'
p5199
I1
sS'Wanxiang Che'
p5200
I2
sS'Danish Contractor'
p5201
I1
sS'Konrad Rawlik'
p5202
I2
sS'Abraham Bernstein'
p5203
I1
sS'Wei Chen 0013'
p5204
I1
sS'Anik\xc3\xb3 Ek\xc3\xa1rt'
p5205
I1
sS'Xiaoyang Wang 0001'
p5206
I1
sS'Fei Sun'
p5207
I1
sS'Ute Schmid'
p5208
I1
sS'Zeynep Kiziltan'
p5209
I2
sS'In\xc3\xaas Lynce'
p5210
I1
sS'Benedikt Bollig'
p5211
I1
sS'Feng Wu'
p5212
I7
sS'Zipei Fan'
p5213
I1
sS'Peng Wang'
p5214
I2
sS'Chang Feng'
p5215
I1
sS'Bernhard Kirchlechner'
p5216
I1
sS'Zeyn A. Saigol'
p5217
I1
sS'Anatoli V. Melechko'
p5218
I1
sS'Guihua Wen'
p5219
I1
sS'Marius Moldovan'
p5220
I1
sS'Zhendong Su'
p5221
I3
sS'Bj\xc3\xb6rn Pelzer'
p5222
I1
sS'Mahesh Mohan'
p5223
I1
sS'Xiangyuan Lan'
p5224
I1
sS'Laura Pandolfo'
p5225
I1
sS'Howard J. Hamilton'
p5226
I1
sS'Yali Du'
p5227
I2
sS'Shiau Hong Lim'
p5228
I1
sS'Jinbo Bi'
p5229
I1
sS'Zhongyuan Wang'
p5230
I3
sS'Nicola Leone'
p5231
I2
sS'Dongyu She'
p5232
I1
sS'Chao Xing'
p5233
I1
sS'Jordi Levy'
p5234
I4
sS'Zhan Xu'
p5235
I1
sS'Long-Kai Huang'
p5236
I3
sS'Giovanni Amendola'
p5237
I2
sS'Wangmeng Zuo'
p5238
I2
sS'Mingdong Ou'
p5239
I1
sS'Vangelis Karkaletsis'
p5240
I1
sS'Yasuhiro Fujiwara'
p5241
I5
sS'Peng Jin'
p5242
I1
sS'Pierre Bourhis'
p5243
I5
sS'Min Wu 0008'
p5244
I1
sS'Yijia Liu'
p5245
I2
sS'Jia Wu'
p5246
I5
sS'Bhupesh Chawda'
p5247
I1
sS'Qing-Yuan Jiang'
p5248
I1
sS'Xinyuan Cai'
p5249
I1
sS'Suhang Wang'
p5250
I2
sS'Gengshen Wu'
p5251
I1
sS'Nathalie Casati'
p5252
I1
sS'Per Austrin'
p5253
I1
sS'Hiroshi Kanasugi'
p5254
I2
sS'Wenbo Hu'
p5255
I1
sS'Rohit Vaish'
p5256
I1
sS'Abdel-Illah Mouaddib'
p5257
I1
sS'Xiaojun Wan 0001'
p5258
I6
sS'Xiaohua Liu'
p5259
I1
sS'Baisheng Lai'
p5260
I1
sS'Jing Chen'
p5261
I1
sS'Daphne Koller'
p5262
I1
sS'Yang Liu 0003'
p5263
I1
sS'Partha Dutta'
p5264
I2
sS'G\xc3\xa9rard G. Medioni'
p5265
I1
sS'Yang Liu 0004'
p5266
I1
sS'Yang Liu 0005'
p5267
I3
sS'Abder Rezak Benaskeur'
p5268
I1
sS'Sung-Hyun Son'
p5269
I1
sS'Duy-Tin Vo'
p5270
I1
sS'Stavros Vassos'
p5271
I2
sS'Isabelle Stanton'
p5272
I1
sS'Hanning Zhou'
p5273
I1
sS'Zihan Zhou'
p5274
I1
sS'Yongkun Wang'
p5275
I1
sS'Stephen Cresswell'
p5276
I1
sS'Emil Keyder'
p5277
I1
sS'Ping Li 0006'
p5278
I1
sS'Alessandro Sperduti'
p5279
I3
sS'Kasia Muldner'
p5280
I1
sS'Radha-Krishna Balla'
p5281
I1
sS'Yingbin Zheng'
p5282
I1
sS'Oliver Kutz'
p5283
I1
sS'Weidong Yang'
p5284
I1
sS'Ngoc Cuong Truong'
p5285
I2
sS'Marc Esteva'
p5286
I1
sS'Michael Katz'
p5287
I1
sS'Zongxu Mu'
p5288
I1
sS'Alexandra Papoutsaki'
p5289
I1
sS'Amirali Aghazadeh'
p5290
I1
sS'Zhuxi Jiang'
p5291
I1
sS'Rapha\xc3\xabl Chenouard'
p5292
I1
sS'Daniel Gildea'
p5293
I1
sS'Gita Sukthankar'
p5294
I1
sS'Shuyang Gao'
p5295
I1
sS'Alex Roper'
p5296
I1
sS'Ruggiero Cavallo'
p5297
I1
sS'Daniel Hern\xc3\xa1ndez-Lobato'
p5298
I1
sS'Brent E. Harrison'
p5299
I1
sS'Fred Popowich'
p5300
I1
sS'Huseyin Sencan'
p5301
I1
sS'Lee-Feng Chien'
p5302
I1
sS'Long Jiang'
p5303
I1
sS'Chen Hajaj'
p5304
I1
sS'Xingyuan Chen'
p5305
I1
sS'Yuan Shi'
p5306
I1
sS'Peter Hansen 0002'
p5307
I2
sS'Heng Zhang'
p5308
I4
sS'Lakesh Kansakar'
p5309
I1
sS'Thad Starner'
p5310
I1
sS'Guy Hachmon'
p5311
I1
sS'Shashank Srivastava'
p5312
I1
sS'Daniele P. Radicioni'
p5313
I1
sS'Maria L. Gini'
p5314
I5
sS'Patricia Gutierrez'
p5315
I2
sS'Jinkun Lin'
p5316
I2
sS'Jin Tian'
p5317
I1
sS'Teng Zhang'
p5318
I2
sS'Zhiyong Wu'
p5319
I1
sS'Floriana Esposito'
p5320
I1
sS'Catherine Moon'
p5321
I2
sS'Valerie Poser'
p5322
I1
sS'Eric Anyung Shieh'
p5323
I1
sS'Wenwu Zhu 0001'
p5324
I2
sS'Hongxun Yao'
p5325
I1
sS'Dahua Lin'
p5326
I2
sS'Eva Thelisson'
p5327
I1
sS'Kazuhiro Seki'
p5328
I1
sS'Antonio Roque'
p5329
I1
sS'Michael J. Cafarella'
p5330
I1
sS'Woontack Woo'
p5331
I1
sS'Angelo Fanelli 0001'
p5332
I1
sS'Ryan Prescott Adams'
p5333
I1
sS'Lu Jiang 0004'
p5334
I1
sS'Niya Chen'
p5335
I1
sS'Richard Edwin Stearns'
p5336
I1
sS'Hong Chang'
p5337
I3
sS'Michel Combacau'
p5338
I1
sS'Zhigang Wang'
p5339
I1
sS'Andrea Vanzo'
p5340
I1
sS'Anthony Hunter'
p5341
I3
sS'Julien Bidot'
p5342
I1
sS'Abner Guzm\xc3\xa1n-Rivera'
p5343
I1
sS'Fan Xiao'
p5344
I1
sS'Xiaoyong Du'
p5345
I1
sS'Pinghua Gong'
p5346
I1
sS'Kai Xiong'
p5347
I3
sS'Renate A. Schmidt'
p5348
I2
sS'Luciana S. Buriol'
p5349
I2
sS'Jia Jia'
p5350
I2
sS'Pierre Le Bodic'
p5351
I1
sS'Benjamin Susman'
p5352
I1
sS'Jost Tobias Springenberg'
p5353
I1
sS'Heiner Stuckenschmidt'
p5354
I3
sS'Raquel Ros'
p5355
I1
sS'Minh Le Nguyen'
p5356
I1
sS'Una Benlic'
p5357
I1
sS'Jesse Hoey'
p5358
I2
sS'Hao Cui'
p5359
I1
sS'Michael C. Hughes'
p5360
I1
sS'Nenghai Yu'
p5361
I3
sS'Sicco Verwer'
p5362
I1
sS'Inan\xc3\xa7 Seylan'
p5363
I5
sS'Shiqiang Ding'
p5364
I2
sS'Felipe W. Trevizan'
p5365
I2
sS'Jeffrey Pound'
p5366
I1
sS'Yevgeny Kazakov'
p5367
I4
sS'Wen Jun Yin'
p5368
I2
sS'Jie Lin'
p5369
I3
sS'Beishui Liao'
p5370
I1
sS'Xian-Xing Zhang'
p5371
I1
sS'Arpit Khurdiya'
p5372
I1
sS'Erez Karpas'
p5373
I5
sS'Kongming Liang'
p5374
I1
sS'Jan Bandouch'
p5375
I1
sS'Lida Li'
p5376
I1
sS'David A. Cohen'
p5377
I2
sS'Quanquan Gu'
p5378
I3
sS'Subhojyoti Mukherjee'
p5379
I1
sS'Wen-Huang Cheng'
p5380
I1
sS'Chetan Arora'
p5381
I1
sS'Jiajun Zhang'
p5382
I4
sS'Piotr Lech Szczepanski'
p5383
I1
sS'Eduardo Candido Xavier'
p5384
I1
sS'Zhao Guo'
p5385
I1
sS'Yunpeng Chen'
p5386
I1
sS'Yang Wang'
p5387
I1
sS'Jon Oberlander'
p5388
I1
sS'Yixing Xu'
p5389
I1
sS'Han La Poutr\xc3\xa9'
p5390
I1
sS'Kalina Yacef'
p5391
I1
sS'Mark Kaminski'
p5392
I3
sS'Alistair Shilton'
p5393
I1
sS'Fred Charles'
p5394
I1
sS'Michael Buro'
p5395
I5
sS'Nazli Ikizler-Cinbis'
p5396
I1
sS'Lorenzo von Ritter'
p5397
I1
sS'Lucian Vlad Lita'
p5398
I1
sS'Shijie Xiao'
p5399
I1
sS'Aviv Nahon'
p5400
I1
sS'Jonathan Mugan'
p5401
I1
sS'Andrea G. B. Tettamanzi'
p5402
I2
sS'Xi Zhang'
p5403
I1
sS'Ken-ichi Kawarabayashi'
p5404
I5
sS'Hung Vu'
p5405
I1
sS'Qi Gao'
p5406
I1
sS'Dong-Hyun Kwak'
p5407
I1
sS'Monika Mandl'
p5408
I1
sS'David B. Smith 0002'
p5409
I2
sS'Yuliya Lierler'
p5410
I2
sS'Janez Demsar'
p5411
I1
sS'Tong Zhang'
p5412
I1
sS'Xiangyan Sun'
p5413
I1
sS'Anna Petrovskaya'
p5414
I1
sS'Lei Le'
p5415
I1
sS'Henrik Reif Andersen'
p5416
I2
sS'Alireza Ensan'
p5417
I1
sS'Mirella Lapata'
p5418
I3
sS'Grant Anderson'
p5419
I1
sS'Zhiqi Shen'
p5420
I2
sS'Shuzhong Zhang'
p5421
I1
sS'Qi Dai'
p5422
I1
sS'Regina Barzilay'
p5423
I2
sS'Xiaowei Wu'
p5424
I1
sS'Shivaram Kalyanakrishnan'
p5425
I2
sS'Victor W. Marek'
p5426
I1
sS'Hantang Liu'
p5427
I1
sS'Daichi Mochihashi'
p5428
I1
sS'Jian-Sheng Wu'
p5429
I1
sS'Stephen Hardy'
p5430
I1
sS'Kalyan Veeramachaneni'
p5431
I1
sS'John G. Stell'
p5432
I1
sS'Zijian Zhao'
p5433
I1
sS'V\xc3\xadctor Codocedo'
p5434
I1
sS'John Aslanides'
p5435
I1
sS'Zhiwu Lu'
p5436
I4
sS'Madalina Croitoru'
p5437
I3
sS'Lu\xc3\xads Paulo Reis'
p5438
I1
sS'Xiao-Tong Yuan'
p5439
I1
sS'Qingliang Chen'
p5440
I3
sS'Xinge Zhu'
p5441
I1
sS'Min Gao'
p5442
I1
sS'Yasin Abbasi-Yadkori'
p5443
I1
sS'Yi Wu 0003'
p5444
I2
sS'Congfu Xu'
p5445
I4
sS'Yu Du'
p5446
I1
sS'Francesco Ricca'
p5447
I2
sS'Jasper De Bock'
p5448
I1
sS'Yao Zhou'
p5449
I1
sS'Quan-Sen Sun'
p5450
I1
sS'John K. Debenham'
p5451
I1
sS'Wei-Yang Qu'
p5452
I1
sS'William Groves'
p5453
I3
sS'Bolei Xu'
p5454
I1
sS'Naveen Prathapaneni'
p5455
I1
sS'Hans Tompits'
p5456
I3
sS'Weinan Zhao'
p5457
I1
sS'Aaron Roth'
p5458
I1
sS'Hua Wang'
p5459
I6
sS'Ramon L\xc3\xb3pez de M\xc3\xa1ntaras'
p5460
I1
sS'Ryohei Fujimaki'
p5461
I2
sS'Christopher H. Lin'
p5462
I1
sS'Mikhail Soutchanski'
p5463
I2
sS'Andrea Moro 0001'
p5464
I1
sS'Dirk Vermeir'
p5465
I1
sS'Oleg Maksimov'
p5466
I2
sS'David Martins de Matos'
p5467
I1
sS'Ayumi Igarashi'
p5468
I1
sS'Yuqing Wang'
p5469
I1
sS'Chris Urmson'
p5470
I1
sS'Martijn de Jongh'
p5471
I1
sS'Amey Karkare'
p5472
I1
sS'Gregory James Duck'
p5473
I1
sS'Laurent Gourv\xc3\xa8s'
p5474
I4
sS'Seung-won Hwang'
p5475
I1
sS'Heng Ji'
p5476
I1
sS'Yinqing Xu'
p5477
I1
sS'Lei Wang 0001'
p5478
I1
sS'Francesco M. Donini'
p5479
I1
sS'Lin Gui 0003'
p5480
I2
sS'Young-Woo Seo'
p5481
I1
sS'Huang Fang'
p5482
I1
sS'Bei Shi'
p5483
I1
sS'Yale Song'
p5484
I3
sS'Miki Hermann'
p5485
I1
sS'Markus Kr\xc3\xb6ll'
p5486
I1
sS'Zun-Jing Wang'
p5487
I1
sS'Charles Pecheur'
p5488
I1
sS'Jinseon You'
p5489
I1
sS'Brammert Ottens'
p5490
I1
sS'Yuehua Xu'
p5491
I1
sS'Luca Pulina'
p5492
I3
sS'Argyrios Deligkas'
p5493
I1
sS'Naoki Marumo'
p5494
I1
sS'Raksha Kumaraswamy'
p5495
I1
sS'Fabio Patrizi'
p5496
I7
sS'Maurizio Lenzerini'
p5497
I3
sS'Deyu Zhou'
p5498
I2
sS'Tong Lu'
p5499
I1
sS'Yasaman Haghpanah'
p5500
I1
sS'Stefan Lattner'
p5501
I1
sS'Nicu Sebe'
p5502
I3
sS'Lu\xc3\xads Moniz Pereira'
p5503
I2
sS'Xiaoqing Li'
p5504
I1
sS'Afsaneh Shirazi'
p5505
I1
sS'Bo Tang'
p5506
I1
sS'Matteo Baldoni'
p5507
I3
sS'Benjamin Rozenfeld'
p5508
I1
sS'Andrew C. Trapp'
p5509
I1
sS'Arjan J. C. van Gemund'
p5510
I3
sS'Zhou Zhao'
p5511
I5
sS'Xiang Yu'
p5512
I1
sS'Pak-Ming Cheung'
p5513
I1
sS'Barry Liu'
p5514
I1
sS'Ming Hou'
p5515
I1
sS'Armando Tacchella'
p5516
I1
sS'Young Chol Song'
p5517
I1
sS'Tianyi Zhou'
p5518
I1
sS'Mo Chen'
p5519
I2
sS'Arzoo Katiyar'
p5520
I1
sS'Hans W. Guesgen'
p5521
I2
sS'Hui Qian'
p5522
I5
sS'Ruimao Zhang'
p5523
I1
sS'Marco Bozzano'
p5524
I2
sS'Jianfeng Wen'
p5525
I1
sS'Sven E. Kr\xc3\xbcger'
p5526
I1
sS'Gilles Simonin'
p5527
I1
sS'Alexander Motzek'
p5528
I1
sS'Erika Mackin'
p5529
I1
sS'Milos Hauskrecht'
p5530
I1
sS'Pingzhong Tang'
p5531
I9
sS'Nicolas Christin'
p5532
I1
sS'Valmi Dufour-Lussier'
p5533
I1
sS'Gabriel Hoffmann'
p5534
I1
sS'Marco Montali'
p5535
I5
sS'Peng Dai'
p5536
I2
sS'Kartik Palani'
p5537
I1
sS'Antony Waldock'
p5538
I1
sS'Matthieu Exbrayat'
p5539
I1
sS'Yueting Zhuang'
p5540
I8
sS'Ming Zhang 0004'
p5541
I6
sS'Oskari Tammelin'
p5542
I1
sS'Handong Zhao'
p5543
I5
sS'Sergio Pajares'
p5544
I1
sS'Joao Marques-Silva'
p5545
I2
sS'Craig A. Tovey'
p5546
I2
sS'Yisen Wang'
p5547
I3
sS"Jun'ichi Tsujii"
p5548
I3
sS'Wei Shen'
p5549
I1
sS'Qiang Liu 0006'
p5550
I1
sS'Jianye Hao'
p5551
I2
sS'Maurice Bruynooghe'
p5552
I1
sS'Zhongjie Yu'
p5553
I1
sS'Radu Stefan Niculescu'
p5554
I1
sS'Xiao-Li Li'
p5555
I1
sS'Jiani Hu'
p5556
I2
sS'Paolo Avesani'
p5557
I1
sS'Yen-Shi Wang'
p5558
I1
sS'Zachary Kincaid'
p5559
I1
sS'Paul Saikko'
p5560
I2
sS'Lin Wu'
p5561
I1
sS'Diodato Ferraioli'
p5562
I2
sS'Adam Hair'
p5563
I1
sS'Jian Pei'
p5564
I1
sS'Le Wu'
p5565
I1
sS'Jibin Gong'
p5566
I1
sS"Eleanor O'Rourke"
p5567
I1
sS'Vidal Alc\xc3\xa1zar'
p5568
I1
sS'Yuhang Wang'
p5569
I1
sS'Marcel Katz'
p5570
I1
sS'Xing Wei'
p5571
I1
sS'Jeremiah Blocki'
p5572
I1
sS'Kai Xu'
p5573
I1
sS'Erich Teppan'
p5574
I1
sS'Fubito Toyama'
p5575
I1
sS'Wenjian Wang'
p5576
I1
sS'Michele Covell'
p5577
I1
sS'Dekang Lin'
p5578
I2
sS'Sajjad Ahmed Siddiqi'
p5579
I3
sS'Marco Ernandes'
p5580
I1
sS'Laura Wynter'
p5581
I1
sS'Nada Abdallah'
p5582
I1
sS'Daniel Lokshtanov'
p5583
I1
sS'Zheng-Jun Zha'
p5584
I1
sS'Katsutoshi Hirayama'
p5585
I2
sS'Zhen Li'
p5586
I1
sS'Hao Zhu'
p5587
I2
sS'Jean-Guy Mailly'
p5588
I3
sS'Xiaoyin Fu'
p5589
I1
sS'Ryan Luna'
p5590
I1
sS'Sildomar T. Monteiro'
p5591
I1
sS'Ant\xc3\xb3nio Morgado'
p5592
I3
sS'Zhipeng L\xc3\xbc'
p5593
I1
sS'Ullrich Hustadt'
p5594
I1
sS'Luiz Augusto Sangoi Pizzato'
p5595
I1
sS'Xiaoli Li 0001'
p5596
I6
sS'Daniil Mirylenka'
p5597
I1
sS'Pablo Hernandez-Leal'
p5598
I1
sS'Jingfei Li'
p5599
I1
sS'Zili Zhang'
p5600
I1
sS'Junbin Gao'
p5601
I1
sS'Christophe Senot'
p5602
I1
sS'Frances A. Rosamond'
p5603
I2
sS'Kangqi Luo'
p5604
I1
sS'Rongcheng Lin'
p5605
I1
sS'Faustine Maffre'
p5606
I1
sS'Adrian Nedea'
p5607
I1
sS'Brandon M. Malone'
p5608
I1
sS'Michael R. James'
p5609
I1
sS'Tao Wang 0003'
p5610
I1
sS'Luo Si'
p5611
I4
sS'Liqiang Nie'
p5612
I7
sS'Samson Abramsky'
p5613
I1
sS'Meeyoung Cha'
p5614
I1
sS'David Allouche'
p5615
I1
sS'Tim Muller'
p5616
I1
sS'Chengqian Li'
p5617
I1
sS'Jesse Davis'
p5618
I7
sS'Ethan Burns'
p5619
I1
sS'Jeremy Frank'
p5620
I2
sS'Marco Cerami'
p5621
I2
sS'Wenjian Yu'
p5622
I1
sS'Heng Tao Shen'
p5623
I3
sS'Micah Hodosh'
p5624
I1
sS'Michael Gr\xc3\xbcninger'
p5625
I1
sS'Livio Robaldo'
p5626
I1
sS'Lawrence Carin'
p5627
I4
sS'Paolo Turrini'
p5628
I4
sS'Jason Sakellariou'
p5629
I1
sS'Christian Stra\xc3\x9fer'
p5630
I1
sS'\xc3\x81lvaro Torralba'
p5631
I5
sS'Alan J. Hu'
p5632
I1
sS'Kingsley Kuan'
p5633
I1
sS'Habiba Drias'
p5634
I1
sS'Chen-Lin Zhang'
p5635
I1
sS'Xinmei Tian'
p5636
I2
sS'Vanathi Gopalakrishnan'
p5637
I1
sS'Weiming Liu'
p5638
I2
sS'Martha Anne Flinders Lewis'
p5639
I1
sS'Bo-Jian Hou'
p5640
I1
sS'Chengcheng Yu'
p5641
I1
sS'Weinan Zhang'
p5642
I2
sS'Ou Hui'
p5643
I1
sS'Xiaochuan Ni'
p5644
I1
sS'Ping Guo'
p5645
I1
sS'Rui Cao'
p5646
I1
sS'Leonardo Rigutini'
p5647
I1
sS'Kolar Purushothama Naveen'
p5648
I1
sS'Rui Cai'
p5649
I1
sS'Hwee Tou Ng'
p5650
I4
sS'Orkunt Sabuncu'
p5651
I1
sS'Zhaochun Ren'
p5652
I1
sS'Xiangyang Xue'
p5653
I10
sS'Doug Downey'
p5654
I2
sS'Amanda Jane Coles'
p5655
I1
sS'Matthieu Geist'
p5656
I2
sS'Jnaneshwar Das'
p5657
I1
sS'Jason Weston'
p5658
I1
sS'Simone Paolo Ponzetto'
p5659
I2
sS'Wen-bing Huang'
p5660
I2
sS'Sam Snodgrass'
p5661
I3
sS'Osamu Furuse'
p5662
I1
sS'Ashish Kapoor'
p5663
I5
sS'Ashiqur R. KhudaBukhsh'
p5664
I1
sS'Tias Guns'
p5665
I2
sS'Chun-Ta Lu'
p5666
I1
sS'Siegfried Nijssen'
p5667
I1
sS'Bo Xu'
p5668
I4
sS'Eamonn J. Keogh'
p5669
I1
sS'Carlos Eduardo Cancino Chac\xc3\xb3n'
p5670
I1
sS'Yonatan Aumann'
p5671
I1
sS'Robin Cohen'
p5672
I1
sS'Agn\xc3\xa8s Rico'
p5673
I1
sS'Miroslaw Truszczynski'
p5674
I1
sS'Michalis Vazirgiannis'
p5675
I1
sS'Yann Dujardin'
p5676
I1
sS'Yi-Dong Shen'
p5677
I7
sS'Fr\xc3\xa9d\xc3\xa9ric Moisan'
p5678
I1
sS'Jes\xc3\xbas Gir\xc3\xa1ldez-Cru'
p5679
I2
sS'Rapha\xc3\xabl F\xc3\xa9raud'
p5680
I1
sS'Tianmin Shu'
p5681
I1
sS'Andr\xc3\xa9 Hernich'
p5682
I1
sS'Norman M. Sadeh'
p5683
I1
sS'Gerhard Widmer'
p5684
I2
sS'Marcin Waniek'
p5685
I1
sS'William John Teahan'
p5686
I1
sS'Yue Yin'
p5687
I3
sS'Jianwen Li'
p5688
I1
sS'Agnes Swadzba'
p5689
I1
sS'Alexandre Klementiev'
p5690
I1
sS'Wesley Loh'
p5691
I1
sS'Carlos Iv\xc3\xa1n Ches\xc3\xb1evar'
p5692
I2
sS'Caterina Urban'
p5693
I1
sS'Scott Shannon'
p5694
I1
sS'Dong Xu'
p5695
I2
sS'C\xc3\xa9dric Piette'
p5696
I1
sS'Marc Lanctot'
p5697
I1
sS'M. C. Nataraja'
p5698
I1
sS'George A. Krimpas'
p5699
I1
sS'Zhongjun He'
p5700
I1
sS'Kai Shu'
p5701
I1
sS'Andrea Bolioli'
p5702
I1
sS'Bart Verheij'
p5703
I1
sS'Erin Steigerwald'
p5704
I1
sS'Puzhao Zhang'
p5705
I1
sS'Cristiano Castelfranchi'
p5706
I3
sS'Birgit Endrass'
p5707
I1
sS'Daojian Zeng'
p5708
I1
sS'Akshat Kumar'
p5709
I5
sS'Sergio N\xc3\xba\xc3\xb1ez'
p5710
I1
sS'Wei Li 0044'
p5711
I1
sS'Holger H. Hoos'
p5712
I5
sS'Cristina Baroglio'
p5713
I3
sS'Xiaojin Gong'
p5714
I1
sS'Michael P. Kim'
p5715
I1
sS'Georg Gottlob'
p5716
I7
sS'Xiaohui Bei'
p5717
I3
sS'Dingwen Zhang'
p5718
I4
sS'Chu-Min Li'
p5719
I1
sS'Gal Chechik'
p5720
I1
sS'Nicholay Topin'
p5721
I1
sS'Vikas Joshi'
p5722
I2
sS'Trevor Scott Standley'
p5723
I1
sS'Toshiharu Nishina'
p5724
I1
sS'Nahla Ben Amor'
p5725
I1
sS'Laura Souza Vonessen'
p5726
I1
sS'Ryoji Kataoka'
p5727
I1
sS'Zhengzhang Chen'
p5728
I4
sS'Nysret Musliu'
p5729
I2
sS'Valentina A. M. Tamma'
p5730
I1
sS'Yong Tang'
p5731
I1
sS'Jamie Schulte'
p5732
I1
sS'Cong Chen'
p5733
I1
sS'Zhi Lu'
p5734
I1
sS'Tom Claassen'
p5735
I1
sS'Christopher De Sa'
p5736
I1
sS'Meng-Li Shih'
p5737
I1
sS'Jonathan Schaeffer'
p5738
I4
sS'S\xc3\xa9bastien Konieczny'
p5739
I5
sS'Nuno Lau'
p5740
I1
sS'Wenliang Chen'
p5741
I1
sS'Daniel T. Halstead'
p5742
I1
sS'Michael Brenner'
p5743
I1
sS'Yuan-Hong Liao'
p5744
I1
sS'Sam T. Roweis'
p5745
I1
sS'Jaya Kawale'
p5746
I2
sS'Fan Bu'
p5747
I2
sS'Alex Kulesza'
p5748
I1
sS'Shan You'
p5749
I1
sS'Agnieszka Kulacka'
p5750
I1
sS'Edith Law'
p5751
I1
sS'Yuqian Li'
p5752
I2
sS'Amnon Meisels'
p5753
I2
sS'Yunhui Guo'
p5754
I3
sS'Sean Luke'
p5755
I1
sS'Yohei Murakami'
p5756
I2
sS'Daniele Zambuto'
p5757
I1
sS'Debasish Ghose'
p5758
I1
sS'Yu Zhu'
p5759
I1
sS'Zengmao Wang'
p5760
I1
sS'Margareta Ackerman'
p5761
I1
sS'Han Jiang'
p5762
I1
sS'Andrew Trusty'
p5763
I1
sS'Gregor Leban'
p5764
I1
sS'Lolita Petit'
p5765
I1
sS'Christopher Leckie'
p5766
I2
sS'Zheng Zhou'
p5767
I1
sS'Prashant J. Shenoy'
p5768
I1
sS'Daisy Zhe Wang'
p5769
I1
sS'Oier Lopez de Lacalle'
p5770
I1
sS'Avi Rosenfeld'
p5771
I2
sS'Zhiyong Cheng'
p5772
I1
sS'Mathijs de Weerdt'
p5773
I1
sS'David Tolpin'
p5774
I3
sS'Zhiming Ma'
p5775
I1
sS'Alan L. Yuille'
p5776
I2
sS'Elena Monta\xc3\xb1\xc3\xa9s'
p5777
I1
sS'Xuandong Li'
p5778
I2
sS'Younes Mechqrane'
p5779
I1
sS'YooJung Choi'
p5780
I1
sS'Boyue Wang'
p5781
I1
sS'Ron van der Meyden'
p5782
I1
sS'Christopher Amato'
p5783
I6
sS'Michael A. Goodrich'
p5784
I1
sS'Anna Zamansky'
p5785
I1
sS'Alexander G. Hauptmann'
p5786
I5
sS'Richard D. Lawrence'
p5787
I1
sS'Yitan Li'
p5788
I1
sS'Sheng Tang'
p5789
I1
sS'Robert Piro'
p5790
I2
sS'Ilana Klovatch'
p5791
I1
sS'Jinhua Gao'
p5792
I1
sS'Jin Wang'
p5793
I1
sS'Randal Nelson'
p5794
I1
sS'Duc Nghia Pham'
p5795
I2
sS'Jaclyn Ocumpaugh'
p5796
I1
sS'Aditya Pal'
p5797
I1
sS'Xiaofang Wang'
p5798
I1
sS'Yichun Yin'
p5799
I2
sS'Kevin Tierney'
p5800
I1
sS'Christof Spanring'
p5801
I2
sS'Benjamin Lubin'
p5802
I3
sS'Yanchao Zhang'
p5803
I1
sS'Yajuan Lv'
p5804
I1
sS'Istv\xc3\xa1n B\xc3\xadr\xc3\xb3'
p5805
I1
sS'Carmine Ventre'
p5806
I2
sS'Qiaoming Zhu'
p5807
I1
sS'Jiajun Chen'
p5808
I4
sS'Andrew Cropper'
p5809
I4
sS'Makoto Yokoo'
p5810
I7
sS'Ka Man Lei'
p5811
I1
sS'Sicun Gao'
p5812
I1
sS'Yuan Yao 0001'
p5813
I1
sS'Fabian Abel'
p5814
I1
sS'Yunhe Wang'
p5815
I1
sS'Mart\xc3\xad S\xc3\xa1nchez-Fibla'
p5816
I1
sS'Wei-Yun Yau'
p5817
I1
sS'Yuejie Zhang'
p5818
I3
sS'Wynne Hsu'
p5819
I1
sS'Go Irie'
p5820
I1
sS'Ramakant Nevatia'
p5821
I1
sS'Nora Ayanian'
p5822
I2
sS'S\xc3\xa9bastien Lall\xc3\xa9'
p5823
I2
sS'Markus Wagner 0007'
p5824
I1
sS'Danny Fernandes'
p5825
I1
sS'Jin Tang'
p5826
I1
sS'Mathijs Michiel de Weerdt'
p5827
I1
sS'Eduardo Ferm\xc3\xa9'
p5828
I1
sS'Andrew Slavin Ross'
p5829
I1
sS'Lei Zhu'
p5830
I3
sS'Cl\xc3\xa9ment Carbonnel'
p5831
I2
sS'Tom\xc3\xa1s Lozano-P\xc3\xa9rez'
p5832
I4
sS'Leting Wu'
p5833
I1
sS'Hiroyuki Shindo'
p5834
I1
sS'Jinshan Zhang 0002'
p5835
I1
sS'Ganesh P. Kumar'
p5836
I1
sS'Julian J. McAuley'
p5837
I1
sS'Rui Dong'
p5838
I1
sS'David C. Hogg'
p5839
I1
sS'Raz Nissim'
p5840
I1
sS'Yoad Lewenberg'
p5841
I4
sS'Tong Shen'
p5842
I1
sS'Shu-Jun Yang'
p5843
I1
sS'Hatim Khouzaimi'
p5844
I1
sS'Min Zhang 0005'
p5845
I2
sS'Min Zhang 0006'
p5846
I6
sS'Nazneen Fatema Rajani'
p5847
I1
sS'Johannes Hoffart'
p5848
I1
sS'Qingyu Yin'
p5849
I1
sS'Natasa Milic-Frayling'
p5850
I1
sS'Enrico Franconi'
p5851
I3
sS'Grigorios Tsoumakas'
p5852
I1
sS'Wentao Tian'
p5853
I1
sS'Victor R. Lesser'
p5854
I2
sS'Xiaoheng Su'
p5855
I1
sS'Youssef Hamadi'
p5856
I2
sS'Jiamin Zhu'
p5857
I1
sS'Rui Yang'
p5858
I1
sS'Stephen F. Smith'
p5859
I4
sS'Rohit Kumar 0001'
p5860
I1
sS'Yan Zhu 0017'
p5861
I1
sS'Tatdow Pansombut'
p5862
I2
sS'David Timothy Lee'
p5863
I1
sS'Wenxuan Huang'
p5864
I1
sS'Rastislav Bod\xc3\xadk'
p5865
I1
sS'Ling Luo'
p5866
I1
sS'J\xc3\xa9r\xc3\xb4me Picault'
p5867
I1
sS'Yuyin Sun'
p5868
I1
sS'J. Benton'
p5869
I2
sS'Yang Lu'
p5870
I1
sS'Xingwei Zhu'
p5871
I1
sS'Shuigeng Zhou'
p5872
I2
sS'Zhaobin Kuang'
p5873
I1
sS'Zhengyan Ma'
p5874
I1
sS'Suguru Ueda'
p5875
I1
sS'Jingwei Xu'
p5876
I1
sS'Tetsuya Takiguchi'
p5877
I1
sS'Sarit Kraus'
p5878
I15
sS'Neeldhara Misra'
p5879
I3
sS'Frank Hutter'
p5880
I5
sS'Fr\xc3\xa9d\xc3\xa9ric Didier'
p5881
I1
sS'Jie Fan'
p5882
I1
sS'Yihong Gong'
p5883
I3
sS'Craig E. Larson'
p5884
I1
sS'Akihiro Yabe'
p5885
I1
sS'Chiara Del Vescovo'
p5886
I1
sS'Wangsheng Zhang'
p5887
I1
sS'Froduald Kabanza'
p5888
I2
sS'Hiromitsu Hattori'
p5889
I1
sS'John Wright'
p5890
I1
sS'Ralf M\xc3\xb6ller'
p5891
I1
sS'Shuo Li'
p5892
I1
sS'Xinxiong Chen'
p5893
I1
sS'Chenhao Xie'
p5894
I1
sS'Xiaoqian Wang'
p5895
I1
sS'Lu Sun'
p5896
I1
sS'Martha Larson'
p5897
I1
sS'Michael Abseher'
p5898
I1
sS'Duy Nguyen'
p5899
I1
sS'Bill Squires'
p5900
I1
sS'Yinliang Yue'
p5901
I1
sS'Eric Rice'
p5902
I1
sS'Shaodi You'
p5903
I1
sS'Tran Cao Son'
p5904
I8
sS'Boaz Lerner'
p5905
I1
sS'Jianbo Yang'
p5906
I1
sS'Junning Gao'
p5907
I2
sS'Trung Le'
p5908
I2
sS'Blaine Christian'
p5909
I1
sS'Elena Papageorgiou'
p5910
I1
sS'Koh Takeuchi'
p5911
I2
sS'Valerio Grossi'
p5912
I1
sS'Claudia Picardi'
p5913
I1
sS'Amine Balafrej'
p5914
I1
sS'Xingquan Zhu'
p5915
I9
sS'Lydia Tlilane'
p5916
I1
sS'Xin Li'
p5917
I2
sS'Eric Tsang'
p5918
I1
sS'Diana Benavides Prado'
p5919
I2
sS'Kazunari Sugiyama'
p5920
I1
sS'Zhong She'
p5921
I1
sS'Alireza Vahdatpour'
p5922
I1
sS'Mahito Sugiyama'
p5923
I1
sS'Bo Jin'
p5924
I2
sS'Boris Motik'
p5925
I5
sS'Wei He'
p5926
I2
sS"Artur S. d'Avila Garcez"
p5927
I2
sS'Yunsong Guo'
p5928
I2
sS'Gregory Hitz'
p5929
I1
sS'Alkim Almila Akdag Salah'
p5930
I1
sS'Manuel Lopes'
p5931
I3
sS'Taisuke Sato'
p5932
I4
sS'Qingyao Wu'
p5933
I1
sS'David Keyes'
p5934
I1
sS'Qian Chen'
p5935
I1
sS'Norman E. Fenton'
p5936
I1
sS'Thomas A. Runkler'
p5937
I1
sS'Bruce M. McLaren'
p5938
I1
sS'Donghong Ji'
p5939
I1
sS'Lei Song'
p5940
I2
sS'Jilles Steeve Dibangoye'
p5941
I4
sS'Frederik Auffenberg'
p5942
I1
sS'Clemente Galdi'
p5943
I1
sS'Bj\xc3\xb6rn W. Schuller'
p5944
I2
sS'Charles Lee Isbell Jr.'
p5945
I4
sS'Karim Tabia'
p5946
I3
sS'Huaimin Wang'
p5947
I1
sS'Wen Sun'
p5948
I2
sS'Steven David Prestwich'
p5949
I1
sS'Berthold V\xc3\xb6cking'
p5950
I1
sS'Xiaxiang Lin'
p5951
I1
sS'Xiao Zhang'
p5952
I1
sS'Anchit Gupta'
p5953
I1
sS'Dongdong Zhang'
p5954
I1
sS'Rodney D. Nielsen'
p5955
I1
sS'Qi Ge'
p5956
I1
sS'Christian Eichhorn'
p5957
I1
sS'Jiangtao Xu'
p5958
I1
sS'Wonhong Nam'
p5959
I1
sS'Fei Peng'
p5960
I1
sS'Franck Gechter'
p5961
I1
sS'Xenophon Chatzigeorgiou'
p5962
I1
sS'Robert Givan'
p5963
I1
sS'Paul M. Newman'
p5964
I1
sS'Min Xu'
p5965
I1
sS'Mantas Simkus'
p5966
I7
sS'Andreas Niskanen'
p5967
I1
sS'Guang Qiu'
p5968
I1
sS'Guanhua Tian'
p5969
I1
sS'Kobi Gal'
p5970
I1
sS'Martin Leucker'
p5971
I2
sS'Daniel McDuff'
p5972
I1
sS'Yat Chiu Law'
p5973
I2
sS'David Weir'
p5974
I1
sS'Haroun Habeeb'
p5975
I1
sS'Zhongyu Wei'
p5976
I1
sS'Michael Gelfond'
p5977
I1
sS'Guohua Hao'
p5978
I1
sS'Giulia Andrighetto'
p5979
I1
sS'Wenqiang Zhang'
p5980
I2
sS'Malcolm R. K. Ryan'
p5981
I1
sS'J\xc3\xa9r\xc3\xb4me Lang'
p5982
I18
sS'Shilei Zhang'
p5983
I1
sS'James H. Faghmous'
p5984
I1
sS'Albert S. Huang'
p5985
I1
sS"Eoin O'Mahony"
p5986
I1
sS'Alexandros A. Voudouris'
p5987
I2
sS'James Fan'
p5988
I1
sS'Somak Aditya'
p5989
I1
sS'Johnathan Mell'
p5990
I1
sS'Songhua Xu'
p5991
I1
sS'Juan Jos\xc3\xa9 del Coz'
p5992
I1
sS'Haris Aziz 0001'
p5993
I14
sS'Ioana Boureanu'
p5994
I1
sS'Daniel J. Rosenkrantz'
p5995
I1
sS'Wei-Long Zheng'
p5996
I2
sS'Ruining He'
p5997
I2
sS'Hava T. Siegelmann'
p5998
I1
sS'Wen-Lian Hsu'
p5999
I1
sS'Chao Xu 0006'
p6000
I4
sS'Michael Weiss'
p6001
I1
sS'Zhiqiang Tao'
p6002
I2
sS'Lei Zhang'
p6003
I1
sS'Irina Trubitsyna'
p6004
I2
sS'Long Zhao'
p6005
I1
sS'Alexander Ferrein'
p6006
I1
sS'Yunqing Xia'
p6007
I1
sS'Michael Cashmore'
p6008
I1
sS'Jacob Arkin'
p6009
I1
sS'Stefano Borgo'
p6010
I2
sS'Ding Zhou'
p6011
I1
sS'Shafiq R. Joty'
p6012
I1
sS'William Cushing'
p6013
I1
sS'Alexander Prange'
p6014
I1
sS'Evdokia Nikolova'
p6015
I2
sS'Philippe Gigu\xc3\xa8re'
p6016
I1
sS'Leila Amgoud'
p6017
I5
sS'Hailong Sun 0001'
p6018
I1
sS'Stephen Soderland'
p6019
I2
sS'Ben Allison'
p6020
I1
sS'Ringo Baumann'
p6021
I3
sS'Amedeo Napoli'
p6022
I3
sS'Liang Jiang'
p6023
I1
sS'Guifei Jiang'
p6024
I1
sS'Christian Drescher'
p6025
I1
sS'Clark Glymour'
p6026
I1
sS'Minh Thanh Khong'
p6027
I1
sS'Kate Larson'
p6028
I8
sS'Han Yu'
p6029
I1
sS'Lawrence Mandow'
p6030
I1
sS'Cristian Molinaro'
p6031
I3
sS'Desney S. Tan'
p6032
I1
sS'Manfred Huber'
p6033
I1
sS'Gregory M. Provan'
p6034
I4
sS'Amelia Harrison'
p6035
I1
sS'Shawn Squire'
p6036
I1
sS'Jane Yung-jen Hsu'
p6037
I3
sS'Deming Zhai'
p6038
I1
sS'Zhonghua Wen'
p6039
I2
sS'Wenqiang Lei'
p6040
I1
sS'Hiroshi Sato'
p6041
I1
sS'Feipeng Zhao'
p6042
I4
sS'Georgia Kastidou'
p6043
I1
sS'Thepchai Supnithi'
p6044
I1
sS'Ulrich Furbach'
p6045
I1
sS'Zhao-Fu Fan'
p6046
I1
sS'Michail Mamakos'
p6047
I1
sS'Sergio Greco'
p6048
I3
sS'Sinno Jialin Pan'
p6049
I9
sS'Shilad Sen'
p6050
I1
sS'Hankz Hankui Zhuo'
p6051
I4
sS'Ingmar Posner'
p6052
I2
sS'Tongliang Liu'
p6053
I3
sS'Ron Bekkerman'
p6054
I2
sS'Shimei Pan'
p6055
I2
sS'Yen-Chen Lin'
p6056
I1
sS'Don Poldermans'
p6057
I1
sS'Jeffrey Chan'
p6058
I2
sS'Mark van der Wilk'
p6059
I1
sS'Fernando Diaz 0001'
p6060
I2
sS'Thierry Petit'
p6061
I6
sS'Michael Wooldridge'
p6062
I9
sS'Richard Booth 0001'
p6063
I4
sS'Robert D\xc3\xb6bbelin'
p6064
I1
sS'Michael Papasimeon'
p6065
I1
sS'David Toman'
p6066
I8
sS'Michael Caldwell'
p6067
I1
sS'Takehisa Yairi'
p6068
I1
sS'Hussein A. Abbass'
p6069
I1
sS'Mingyu Xiao'
p6070
I1
sS'Huabing Zhou'
p6071
I1
sS'Anthony Palmieri'
p6072
I1
sS'Hideyuki Nakashima'
p6073
I1
sS'Wenchao Jiang'
p6074
I1
sS'Ching-Yung Lin'
p6075
I2
sS'Hongfu Liu'
p6076
I4
sS'Jing Wang 0021'
p6077
I1
sS'Joshua Hernandez'
p6078
I1
sS'Pierre Marquis'
p6079
I13
sS'Qing Zhang'
p6080
I1
sS'Seungchan Kim'
p6081
I1
sS'Rahul Parundekar'
p6082
I1
sS'Qifan Wang'
p6083
I4
sS'Heeyoung Kim'
p6084
I1
sS'Wei Liu'
p6085
I5
sS'Xintao Wu'
p6086
I4
sS'Fatih Porikli'
p6087
I1
sS'Shu Wang'
p6088
I1
sS'Min Sun'
p6089
I1
sS'Hidetomo Nabeshima'
p6090
I1
sS'Rudy Raymond'
p6091
I2
sS'Mark B. Ring'
p6092
I2
sS'Sukwon Chung'
p6093
I1
sS'James M. Robins'
p6094
I1
sS'Martin Caminada'
p6095
I1
sS'Mahesh Viswanathan 0001'
p6096
I1
sS'Mingsheng Ying'
p6097
I1
sS'Yangdong Ye'
p6098
I2
sS'Edouard Bonnet'
p6099
I1
sS'Steve Rabin'
p6100
I1
sS'Kiana Hajebi'
p6101
I1
sS'Fan Yang'
p6102
I1
sS'Guoji Zhang'
p6103
I1
sS'Hiroshi Mamitsuka'
p6104
I2
sS'Masashi Shimbo'
p6105
I1
sS'Francis Jeffry Pelletier'
p6106
I1
sS'Markus Schaal'
p6107
I1
sS'Thomas Kalinowski'
p6108
I1
sS'Jennifer L. Barry'
p6109
I1
sS'Georgios Birmpas'
p6110
I1
sS'Jiangfeng Qu'
p6111
I1
sS'Noam Peled'
p6112
I1
sS'Eun-Sol Kim'
p6113
I1
sS'Amir Hossein Yazdavar'
p6114
I1
sS'Shaodan Zhai'
p6115
I1
sS'Eyal Even-Dar'
p6116
I1
sS'Jing He'
p6117
I2
sS'Jinyuan Jia'
p6118
I1
sS'Shahaf S. Shperberg'
p6119
I1
sS'Xifeng Guo'
p6120
I1
sS'Alexandra Goultiaeva'
p6121
I1
sS'Ignazio Palmisano'
p6122
I1
sS'Alice Miller'
p6123
I1
sS'Moritz Tenorth'
p6124
I1
sS'Guillaume Escamocher'
p6125
I1
sS'Xin Liu'
p6126
I4
sS'Jo\xc3\xa3o Martins'
p6127
I1
sS'Alejandro Corbellini'
p6128
I1
sS'Marco Degemmis'
p6129
I1
sS'Tianrui Li'
p6130
I1
sS'Joaqu\xc3\xadn Adiego'
p6131
I1
sS'Chew Lim Tan'
p6132
I1
sS'Zhanshan Li'
p6133
I1
sS'Xavier Lorca'
p6134
I1
sS'Ashwin Lall'
p6135
I1
sS'Garrett Andersen'
p6136
I1
sS'Majd Hawasly'
p6137
I1
sS'Trung Bui'
p6138
I1
sS'Victor S. Sheng'
p6139
I1
sS'Sheila A. McIlraith'
p6140
I5
sS'Hisami Suzuki'
p6141
I1
sS'Hanyang Liu'
p6142
I1
sS'Hongwei Hao'
p6143
I1
sS'Yongjie Liu'
p6144
I1
sS'Arun K. Pujari'
p6145
I1
sS'Thomas F. Stahovich'
p6146
I1
sS'Thomas C. King'
p6147
I1
sS'Andrea Lockerd Thomaz'
p6148
I2
sS'Yue Zhang'
p6149
I7
sS'Marco Aiello 0001'
p6150
I1
sS'Weiwei Cheng'
p6151
I1
sS'Guiyu Xia'
p6152
I1
sS'Michal Koutn\xc3\xbd'
p6153
I1
sS'Shuhui Jiang'
p6154
I1
sS'Marwan Torki'
p6155
I2
sS'Fangkai Yang'
p6156
I2
sS'Tomas Klos'
p6157
I1
sS'Claudio Delli Bovi'
p6158
I1
sS'Khanh Nguyen'
p6159
I1
sS'Micha\xc3\xabl Thomazo'
p6160
I7
sS'Mark Fuge'
p6161
I1
sS'Pradeep Ravikumar'
p6162
I1
sS'Yngve Villanger'
p6163
I1
sS'Ron M. Stewart'
p6164
I1
sS'Yi Shang'
p6165
I1
sS'Shulong Tan'
p6166
I1
sS'Gang Pan'
p6167
I1
sS'Nico Van Cleemput'
p6168
I1
sS'Virginia Vassilevska Williams'
p6169
I2
sS'Yuan Yuan'
p6170
I2
sS'Changqin Huang'
p6171
I1
sS'Jianghui Chen'
p6172
I1
sS'Guido Fiorino'
p6173
I1
sS'H\xc3\xa9ctor Palacios'
p6174
I1
sS'Viktor Losing'
p6175
I1
sS'Carsten Lutz'
p6176
I18
sS'Laszlo Szathmary'
p6177
I1
sS'Hirotaka Hachiya'
p6178
I1
sS'Tiberio Caetano'
p6179
I1
sS'Marc Toussaint'
p6180
I7
sS'Harini Ananthapadmanaban'
p6181
I1
sS'Jacques Nicolas'
p6182
I1
sS'Abdur Chowdhury'
p6183
I1
sS'Alexandre Papadopoulos'
p6184
I2
sS'Andrew M. Finch'
p6185
I1
sS'Valentina Rho'
p6186
I1
sS'Mehdi Dastani'
p6187
I4
sS'Hen-Hsen Huang'
p6188
I1
sS'Richard Schmidt'
p6189
I1
sS'Binyi Chen'
p6190
I1
sS'Joni-Kristian K\xc3\xa4m\xc3\xa4r\xc3\xa4inen'
p6191
I1
sS'Maarten Grachten'
p6192
I2
sS'Jing Wang'
p6193
I1
sS'Yang Liu'
p6194
I2
sS'Lei Zheng'
p6195
I1
sS'B. V. K. Vijaya Kumar'
p6196
I1
sS'Xue Mao'
p6197
I1
sS'Yi Wang'
p6198
I2
sS'Sue Felshin'
p6199
I1
sS'Stewart Massie'
p6200
I2
sS'Swan Rocher'
p6201
I1
sS'Pierre Ouellet'
p6202
I1
sS'Benjamin Recht'
p6203
I1
sS'Mark C. Wilson'
p6204
I1
sS'Peng Zhang'
p6205
I1
sS'Hangzai Luo'
p6206
I1
sS'Maarika Teose'
p6207
I1
sS'Djamal Habet'
p6208
I1
sS'Jiawei Zhang'
p6209
I3
sS'Bruno Lacerda'
p6210
I1
sS'Pierre Rust'
p6211
I1
sS'Friedrich Burkhard von der Osten'
p6212
I1
sS'Wei Li 0002'
p6213
I1
sS'Zaiqing Nie'
p6214
I1
sS'Hongyao Ma'
p6215
I3
sS'Nicola Vitucci'
p6216
I1
sS'Naonori Kakimura'
p6217
I1
sS'Alexander Feldman'
p6218
I3
sS'Boyu Wang'
p6219
I1
sS'Dan Roth'
p6220
I10
sS'Quang-Cuong Pham'
p6221
I1
sS'Junchi Yan'
p6222
I4
sS'Kunle Olukotun'
p6223
I1
sS'Minh Do'
p6224
I2
sS'Harry Wechsler'
p6225
I1
sS'Daniele Pantaleone'
p6226
I1
sS'Joydeep Biswas'
p6227
I1
sS'Deepak Mehta'
p6228
I2
sS'Lidong Bing'
p6229
I2
sS'Mykel J. Kochenderfer'
p6230
I1
sS'Deepak S. Turaga'
p6231
I1
sS'Xu Yang'
p6232
I2
sS'Xiaojun Chang'
p6233
I7
sS'Yiping Song'
p6234
I1
sS'Maria Garcia de la Banda'
p6235
I2
sS'Eibe Frank'
p6236
I1
sS'Dimitris Palyvos-Giannas'
p6237
I1
sS'Bastien Maubert'
p6238
I1
sS'Pengyi Yang'
p6239
I1
sS'Marco Franchini'
p6240
I1
sS'Cong Yu 0001'
p6241
I1
sS'Janusz Marecki'
p6242
I1
sS'Henry Prakken'
p6243
I2
sS'Mads Dam'
p6244
I1
sS'Toniann Pitassi'
p6245
I1
sS'Danyan Lv'
p6246
I1
sS'Zequn Qin'
p6247
I1
sS'Svetha Venkatesh'
p6248
I3
sS'Elsa Lopes'
p6249
I1
sS'Xi Li 0001'
p6250
I6
sS'Steven Shapiro'
p6251
I1
sS'Chuan Luo'
p6252
I3
sS'John Dunagan'
p6253
I1
sS'Alistair Reid 0001'
p6254
I1
sS'Aries Arditi'
p6255
I1
sS'Zhu Sun'
p6256
I2
sS'Jiawan Zhang'
p6257
I1
sS'Xuan Zhu'
p6258
I2
sS'Martin Schaff\xc3\xb6ner'
p6259
I1
sS'Makoto Kitaki'
p6260
I1
sS'Jun Ren'
p6261
I1
sS'Xiaowei Huang'
p6262
I5
sS'James Laskey'
p6263
I1
sS'Nando de Freitas'
p6264
I1
sS'Doina Precup'
p6265
I8
sS'Hong Cao'
p6266
I1
sS'Sudanthi N. R. Wijewickrema'
p6267
I1
sS'Michael Quist'
p6268
I1
sS'Pablo Morales-Mombiela'
p6269
I2
sS'Horst Samulowitz'
p6270
I4
sS'Leandro Chaves R\xc3\xaago'
p6271
I1
sS'Mineichi Kudo'
p6272
I1
sS'Irena Koprinska'
p6273
I2
sS'Shixiang Lu'
p6274
I1
sS'Anal\xc3\xada Amandi'
p6275
I1
sS'Hoda Heidari'
p6276
I1
sS'Pong C. Yuen'
p6277
I1
sS'Zhen Wang'
p6278
I1
sS'Sahisnu Mazumder'
p6279
I1
sS'Christopher D. Rosin'
p6280
I1
sS'Morteza Dehghani'
p6281
I1
sS'Junzhou Huang'
p6282
I1
sS'Loizos Michael'
p6283
I6
sS'Lejian Liao'
p6284
I3
sS'Xiaofeng Yu'
p6285
I1
sS'L. Venkata Subramaniam'
p6286
I4
sS'Jiashi Feng'
p6287
I4
sS'Lirong Xia'
p6288
I12
sS'Jos\xc3\xa9 Hern\xc3\xa1ndez-Orallo'
p6289
I1
sS'Klaus Stein'
p6290
I1
sS'Fang Chen'
p6291
I2
sS'Lipika Dey'
p6292
I1
sS'Vittorio Perera'
p6293
I1
sS'Maria-Florina Balcan'
p6294
I1
sS'Alessandro Dal Pal\xc3\xb9'
p6295
I1
sS'Denver Dash'
p6296
I1
sS'Hongwei Peng'
p6297
I1
sS'Gang Chen 0003'
p6298
I1
sS'Wai K. Yeap'
p6299
I1
sS'Sebastian Stein 0001'
p6300
I6
sS'ChengXiang Zhai'
p6301
I1
sS'Hongfei Li'
p6302
I1
sS'Antonino Rotolo'
p6303
I1
sS'Vincent Wenchen Zheng'
p6304
I2
sS'Takuya Iwamura'
p6305
I1
sS'Biao Chang'
p6306
I1
sS'Ilgaz Sungur'
p6307
I1
sS'Andr\xc3\xa9s Abeliuk'
p6308
I3
sS'Thomas M. Moerland'
p6309
I1
sS'Richard M. Murray'
p6310
I1
sS'Lilian Berton'
p6311
I1
sS'Xiaoqin Zhang'
p6312
I3
sS'Jian Pu'
p6313
I1
sS'Huawei Shen'
p6314
I5
sS'Adrian Kaehler'
p6315
I1
sS'Rafi Bojmel'
p6316
I1
sS'Wei Chen'
p6317
I4
sS'Xiuzi Ye'
p6318
I2
sS'Inan\xc3\xa7 Birol'
p6319
I1
sS'Michael Barz'
p6320
I1
sS'Changwei Hu'
p6321
I1
sS'Maoying Qiao'
p6322
I1
sS'Mengqiu Wang'
p6323
I1
sS'Chao Chen'
p6324
I2
sS'Ikuko Yairi'
p6325
I1
sS'Balaji Krishnapuram'
p6326
I1
sS'Peter J. F. Lucas'
p6327
I4
sS'Wenguang Jin'
p6328
I1
sS'Markus Kr\xc3\xb6tzsch'
p6329
I6
sS'Jaehoon Choi'
p6330
I1
sS'Martha E. Pollack'
p6331
I1
sS'K\xc3\xb4iti Hasida'
p6332
I1
sS'Ido Bachelet'
p6333
I1
sS'Yishay Mansour'
p6334
I1
sS'Boris Katz'
p6335
I1
sS'Mark T. Keane'
p6336
I2
sS'Yves Deville'
p6337
I1
sS'Ehsan Abbasnejad'
p6338
I2
sS'Handy Wicaksono'
p6339
I1
sS'Qikun Xiang'
p6340
I1
sS'Anika Schumann'
p6341
I1
sS'Jing Yuan'
p6342
I1
sS'Fabian Hadiji'
p6343
I1
sS'Manuel Roveri'
p6344
I1
sS'Alex Graves'
p6345
I1
sS'Wenchao Yu'
p6346
I1
sS'Faez Ahmed'
p6347
I1
sS'Bo Li 0005'
p6348
I1
sS'Inon Zuckerman'
p6349
I3
sS'Yann Chevaleyre'
p6350
I3
sS'Petr Kalina'
p6351
I1
sS'Defu Lian'
p6352
I3
sS'Nirav Ajmeri'
p6353
I1
sS'Xu-Ying Liu'
p6354
I1
sS'Mike Barley'
p6355
I2
sS'George Konidaris'
p6356
I5
sS'Ran Zhao'
p6357
I1
sS'Hao Ding'
p6358
I1
sS'Xincheng Yuan'
p6359
I1
sS'Zhirun Liu'
p6360
I1
sS'Jialu Liu'
p6361
I1
sS'Claude Sammut'
p6362
I1
sS'Supratik Chakraborty'
p6363
I2
sS'A. E. Eiben'
p6364
I1
sS'Zhiyuan Chen'
p6365
I1
sS'Alex Krimkevitch'
p6366
I1
sS'Yong Rui'
p6367
I4
sS'Mingyan Liu'
p6368
I1
sS'Biao Xiang'
p6369
I1
sS'Shumeet Baluja'
p6370
I1
sS'Paul Ruvolo'
p6371
I1
sS'Jingjing Wang'
p6372
I3
sS'Christoph Erkinger'
p6373
I1
sS'Haoyi Zhou'
p6374
I1
sS'Fran\xc3\xa7ois Laviolette'
p6375
I1
sS'Mithun Chakraborty'
p6376
I2
sS'Nianyi Li'
p6377
I1
sS'Wen Shen'
p6378
I1
sS'Kang Liu 0001'
p6379
I4
sS'Hao Wu'
p6380
I3
sS'Zichen Zhu'
p6381
I3
sS'Chen Li 0013'
p6382
I1
sS'Cunchao Tu'
p6383
I3
sS'Sumit Gulwani'
p6384
I6
sS'Tanmay Randhavane'
p6385
I1
sS'Ana-Maria Popescu'
p6386
I1
sS'Miao Liu'
p6387
I2
sS'Takuo Hamaguchi'
p6388
I1
sS'Qingguo Wang'
p6389
I1
sS'Shengping Zhang'
p6390
I1
sS'Aniello Murano'
p6391
I4
sS'Miao Lin'
p6392
I1
sS'Rasoul Rahmani'
p6393
I1
sS'Alexandros Karatzoglou'
p6394
I1
sS'Faria Nassiri Mofakham'
p6395
I1
sS'Mehdi Mashayekhi'
p6396
I1
sS'Christopher Archibald'
p6397
I3
sS'Cees Witteveen'
p6398
I2
sS'Keith Sullivan'
p6399
I2
sS'Grant Miller'
p6400
I1
sS'Huzefa Rangwala'
p6401
I2
sS'Xueying Qiu'
p6402
I1
sS'Yang Hu'
p6403
I1
sS'Seiya Miyazaki'
p6404
I1
sS'Benjamin Fish'
p6405
I1
sS'Lifan Su'
p6406
I1
sS'Khalil Challita'
p6407
I1
sS'Wenlong Mou'
p6408
I1
sS'S\xc3\xa9bastien Bardin'
p6409
I1
sS'Zied Bouraoui'
p6410
I2
sS'Esra Erdem'
p6411
I1
sS'Tengjiao Wang'
p6412
I1
sS'Oliver Lemon'
p6413
I1
sS'Maciej Grabon'
p6414
I1
sS'Lucie Galand'
p6415
I2
sS'Tristan Cazenave'
p6416
I2
sS'Yun Shen'
p6417
I1
sS'Milind Tambe'
p6418
I17
sS'Sujian Li'
p6419
I1
sS'Fr\xc3\xa9d\xc3\xa9ric Flouvat'
p6420
I1
sS'Miao Xu'
p6421
I1
sS'Xiaohua Hu'
p6422
I2
sS'Anthony R. Dick'
p6423
I1
sS'Linlin Wang'
p6424
I1
sS'Alexander Felfernig'
p6425
I2
sS'Ruta Mehta'
p6426
I1
sS'Bingbing Ni'
p6427
I2
sS'Koushik Kar'
p6428
I1
sS'Jiarui Gan'
p6429
I4
sS'Jian Yang'
p6430
I1
sS'Ganesh Ramakrishnan'
p6431
I1
sS'Adway Mitra'
p6432
I1
sS'Yu Song'
p6433
I1
sS'Tony Ribeiro'
p6434
I1
sS'Gangyuan Jing'
p6435
I1
sS'Marijn J. H. Heule'
p6436
I1
sS'Gurunath Gurrala'
p6437
I1
sS'Alex Kendall'
p6438
I1
sS'May H. C. Woo'
p6439
I1
sS'Ziyang Chen'
p6440
I1
sS'Yagil Engel'
p6441
I1
sS'Fabio Persia'
p6442
I1
sS'Thomas L. Griffiths'
p6443
I1
sS'Egor V. Kostylev'
p6444
I4
sS'Roman Vitek'
p6445
I1
sS'Francesco Belardinelli'
p6446
I9
sS'Jaelle Scheuerman'
p6447
I1
sS'Gary R. Bradski'
p6448
I1
sS'Ivan Beschastnikh'
p6449
I1
sS'Zhengheng Deng'
p6450
I1
sS'Wei Li'
p6451
I2
sS'Nicolas Catusse'
p6452
I1
sS'Sara Rouhani'
p6453
I1
sS'Khaled Belahc\xc3\xa8ne'
p6454
I1
sS'Yi Ren'
p6455
I1
sS'Niloy Ganguly'
p6456
I1
sS'Farhad Zafari'
p6457
I2
sS'Xingjun Ma'
p6458
I1
sS'Ben Murdoch'
p6459
I1
sS'Jose L. Part'
p6460
I1
sS'Qi Lyu'
p6461
I1
sS'Xiaodong Hu'
p6462
I2
sS'Aws Albarghouthi'
p6463
I1
sS'David Danks'
p6464
I1
sS'Steffen H\xc3\xb6lldobler'
p6465
I1
sS'Zhiwei Li'
p6466
I1
sS'Masrour Zoghi'
p6467
I1
sS'Javier Segovia Aguas'
p6468
I3
sS'Shane Legg'
p6469
I1
sS'Shao-Bo Wang'
p6470
I1
sS'Fengli Zhang'
p6471
I1
sS'Massimiliano Giacomin'
p6472
I2
sS'Geert-Jan Houben'
p6473
I1
sS'Alex Francois-Nienaber'
p6474
I1
sS'Pengfei Zhu'
p6475
I2
sS'Dana S. Nau'
p6476
I3
sS'Jie Fang'
p6477
I1
sS'Samantha Lam'
p6478
I1
sS'Kyle Hollins Wray'
p6479
I3
sS'Nian-Ze Lee'
p6480
I1
sS'Yiqun Liu'
p6481
I6
sS'Andr\xc3\xa9 Abram\xc3\xa9'
p6482
I1
sS'Ted Kremenek'
p6483
I1
sS'Vincent Conitzer'
p6484
I16
sS'Dmitry Moor'
p6485
I1
sS'Chen Cheng'
p6486
I1
sS'Lina Wei'
p6487
I1
sS'Dongdai Lin'
p6488
I1
sS'Mucahid Kutlu'
p6489
I1
sS'Haixun Wang'
p6490
I8
sS'Enrico Pontelli'
p6491
I4
sS'Kyle Reing'
p6492
I1
sS'Luoqi Liu'
p6493
I1
sS'X. Sean Wang'
p6494
I1
sS'Maria Vanina Martinez'
p6495
I3
sS'Shao-Yuan Li'
p6496
I1
sS'David S. Rosenblum'
p6497
I2
sS'Leiting Chen'
p6498
I1
sS'Qiang Yang 0001'
p6499
I20
sS'Christian Geist'
p6500
I2
sS'V. S. Subrahmanian'
p6501
I4
sS'Chiragkumar Patel'
p6502
I1
sS'Peter Struss'
p6503
I2
sS'Christoph Lange 0002'
p6504
I1
sS'Luo Luo'
p6505
I1
sS'Richard Yi Da Xu'
p6506
I1
sS'Xiaoliang Wang'
p6507
I1
sS'Ratul Mahajan'
p6508
I1
sS'Mauro Zucchelli'
p6509
I1
sS'Avshalom Elmalech'
p6510
I1
sS'Vladislav Ryzhikov'
p6511
I5
sS'Santiago Onta\xc3\xb1\xc3\xb3n'
p6512
I7
sS'Zahy Bnaya'
p6513
I1
sS'Babak Ahmadi'
p6514
I1
sS'Paul E. Dunne'
p6515
I4
sS'Liang Xie'
p6516
I2
sS'Bertrand Neveu'
p6517
I1
sS'Bill N. Schilit'
p6518
I1
sS'Zheng Yu'
p6519
I1
sS'Mal\xc3\xba Castellanos'
p6520
I1
sS'Gary Doran'
p6521
I2
sS'Hajar Sadeghi Sokeh'
p6522
I1
sS'Yizhou Wang'
p6523
I1
sS'Lianghao Li'
p6524
I1
sS'Michael Benedikt'
p6525
I3
sS'Huiling Wang'
p6526
I1
sS'Maxime Latulippe'
p6527
I1
sS'Nemanja Djuric'
p6528
I2
sS'Nediyana Daskalova'
p6529
I1
sS'Balder ten Cate'
p6530
I1
sS'Min-Oh Heo'
p6531
I1
sS'Qingzhong Liu'
p6532
I1
sS'Sung Wook Yoon'
p6533
I3
sS'Irman Abdic'
p6534
I1
sS'Junqing Xie'
p6535
I1
sS'Julien Cojan'
p6536
I1
sS'Senjian An'
p6537
I1
sS'Jay Pujara'
p6538
I1
sS'Sabyasachi Saha'
p6539
I1
sS'Eleanor G. Rieffel'
p6540
I1
sS'Y. Narahari'
p6541
I2
sS'Xusheng Luo'
p6542
I1
sS'Kenneth D. Bogert'
p6543
I1
sS'Kazuo Miyashita'
p6544
I1
sS'Zhao Xu'
p6545
I2
sS'Faiza Khan Khattak'
p6546
I1
sS'Hongyang Qu 0001'
p6547
I1
sS'Nadja Betzler'
p6548
I2
sS'John Grant'
p6549
I2
sS'Heider Berlink'
p6550
I1
sS'Sairam Gurajada'
p6551
I1
sS'Dandan Song'
p6552
I1
sS'Haizhong Wang'
p6553
I1
sS'Jaime G. Carbonell'
p6554
I5
sS'Alexandry Augustin'
p6555
I1
sS'Cosmin Paduraru'
p6556
I1
sS'Laurent Simon'
p6557
I4
sS'Min Wen'
p6558
I2
sS'Eyal Dechter'
p6559
I1
sS'Lachlan McCalman'
p6560
I1
sS'Xunpeng Huang'
p6561
I1
sS'Harald Frostel'
p6562
I1
sS'Zakaria Mhammedi'
p6563
I1
sS'Shu-Tao Xia'
p6564
I3
sS'Federico Ulliana'
p6565
I1
sS'David Liu'
p6566
I1
sS'Yanzhu Liu'
p6567
I1
sS'Amin Karbasi'
p6568
I1
sS'Nils Y. Hammerla'
p6569
I2
sS'Xu Sun'
p6570
I1
sS'Sanjiang Li'
p6571
I6
sS'Hans Georg Seedig'
p6572
I2
sS'Marco Calautti'
p6573
I1
sS'Xiaohong Hao'
p6574
I1
sS'Arvind Agarwal'
p6575
I2
sS'James A. Thomson'
p6576
I1
sS'Sylvain Lamprier'
p6577
I1
sS'Samuel Kaski'
p6578
I1
sS'Shinji Wanatabe'
p6579
I1
sS'Mengmeng Li'
p6580
I1
sS'Ian Horrocks'
p6581
I9
sS'Paul Beame'
p6582
I1
sS'Kshitij Judah'
p6583
I1
sS'Stefano Ferilli'
p6584
I1
sS'Tristan Charrier'
p6585
I1
sS'Qiang Li'
p6586
I1
sS'Chunhua Shen'
p6587
I3
sS'Omid Madani'
p6588
I1
sS'XianPing Tao'
p6589
I1
sS'J\xc3\xa9r\xc3\xb4me Euzenat'
p6590
I2
sS'Jianbin Tang'
p6591
I1
sS'Chunjie Zhang'
p6592
I1
sS'Zhiguo Gong'
p6593
I2
sS'Negar Ghourchian'
p6594
I1
sS'Duc Tam Hoang'
p6595
I1
sS'Alex Bowyer'
p6596
I1
sS'Rong Bi'
p6597
I1
sS'Roman Bart\xc3\xa1k'
p6598
I1
sS'Peter James Stuckey'
p6599
I1
sS'Bikramjit Banerjee'
p6600
I1
sS'Mingkui Tan'
p6601
I2
sS'Xuemeng Song'
p6602
I1
sS'Carlotta Domeniconi'
p6603
I1
sS'Dongxia Wang'
p6604
I2
sS'Kai Zhao'
p6605
I1
sS'Xiaotie Deng'
p6606
I1
sS'Francis Bisson'
p6607
I1
sS'R\xc3\xa9gis Sabbadin'
p6608
I1
sS'Aaron Schlenker'
p6609
I1
sS'Jo\xc3\xa3o P. Marques Silva'
p6610
I1
sS'Jing Jiang'
p6611
I1
sS'Siddharth Srivastava'
p6612
I1
sS'Xiao-Feng Xie'
p6613
I1
sS'Dzung T. Phan'
p6614
I1
sS'Xiaodan Liang'
p6615
I1
sS'Mahdieh Soleymani Baghshah'
p6616
I1
sS'Juli\xc3\xa1n Mestre'
p6617
I1
sS'W. T. Luke Teacy'
p6618
I1
sS'Fulvio Mastrogiovanni'
p6619
I1
sS'Vincenzo Moscato'
p6620
I1
sS'Ronghua Liang'
p6621
I1
sS'Aixin Sun'
p6622
I1
sS'Kalpa Gunaratna'
p6623
I1
sS'Shaojun Wang'
p6624
I1
sS'Ming Liu 0004'
p6625
I1
sS'Radim Belohl\xc3\xa1vek'
p6626
I2
sS'Jicheng Zhao'
p6627
I1
sS'Pietro Torasso'
p6628
I1
sS'Yin Zhang'
p6629
I1
sS'Tiago de Lima'
p6630
I1
sS'P. Alex Dow'
p6631
I1
sS'Seong-Ho Choi'
p6632
I1
sS'Guoqing Liu'
p6633
I1
sS'Chang-Tien Lu'
p6634
I3
sS'Chun Chen'
p6635
I2
sS'Elliot Anshelevich'
p6636
I2
sS'Rui Li 0002'
p6637
I1
sS'Santu Rana'
p6638
I1
sS'Masud Moshtaghi'
p6639
I2
sS'Lawson L. S. Wong'
p6640
I1
sS'Barbara Dunin-Keplicz'
p6641
I1
sS'Deyi Xiong'
p6642
I2
sS'Roger Mailler'
p6643
I1
sS'Tong Yu'
p6644
I1
sS'Liang Zhang'
p6645
I1
sS'Jean Lieber'
p6646
I3
sS'Shuguang Wang'
p6647
I1
sS'Xiaoming Li'
p6648
I2
sS'Yevgeniy Vorobeychik'
p6649
I4
sS'Chenggang Wang'
p6650
I1
sS'Xiaojie Guo'
p6651
I4
sS'Marco de Gemmis'
p6652
I1
sS'Zhifang Sui'
p6653
I1
sS'David Buchman'
p6654
I1
sS'Jun Wang 0018'
p6655
I1
sS'Shuai Huang'
p6656
I1
sS'Chaohui Wang'
p6657
I1
sS'Cheng-Lin Liu'
p6658
I2
sS'Sho Yokoi'
p6659
I1
sS'Domenico Lembo'
p6660
I4
sS'Alan Holland'
p6661
I1
sS'Qianli Ma'
p6662
I1
sS'Xin Guo'
p6663
I1
sS'Lei Duan'
p6664
I1
sS'Kaimeng Xu'
p6665
I1
sS'Michael W. Boldt'
p6666
I1
sS'Luca Console'
p6667
I1
sS'James P. Delgrande'
p6668
I9
sS'Seyed Majid Zahedi'
p6669
I1
sS'Francesco Parisi'
p6670
I2
sS'Christian Bessiere'
p6671
I8
sS'Arun Venkatraman'
p6672
I1
sS'Jianmin Wang 0001'
p6673
I1
sS'Alex Ferguson'
p6674
I1
sS'Martina Troesch'
p6675
I1
sS'Armen Aghasaryan'
p6676
I1
sS'Yikang Liao'
p6677
I1
sS'Mark Voortman'
p6678
I1
sS'Yuexian Hou'
p6679
I2
sS'Hau Chan'
p6680
I3
sS'Mathias Niepert'
p6681
I1
sS'Tiep Le'
p6682
I1
sS'Yang Gao'
p6683
I1
sS'Sanatan Sukhija'
p6684
I1
sS'Srinivasan Parthasarathy 0001'
p6685
I1
sS'Claudia V. Goldman'
p6686
I2
sS'Meinolf Sellmann'
p6687
I2
sS'Jiqing Han'
p6688
I1
sS'Dixin Luo'
p6689
I1
sS'Yi-Qi Hu'
p6690
I1
sS'Masaki Aono'
p6691
I1
sS'Jos\xc3\xa9-Marcio Luna'
p6692
I1
sS'Li Dong'
p6693
I2
sS'Chaoyan Wang'
p6694
I1
sS'Eduard Eiben'
p6695
I1
sS'Kai Chen'
p6696
I1
sS'Chu Min Li'
p6697
I3
sS'Thomas T. Tran'
p6698
I1
sS'Robert N. Lass'
p6699
I1
sS'Hanna Sumita'
p6700
I2
sS'Kaiser Asif'
p6701
I1
sS'Liming Zhao'
p6702
I1
sS'Jianfei Cai'
p6703
I2
sS'Francisco C. Santos'
p6704
I2
sS'Elise Bonzon'
p6705
I1
sS'Qi Yu'
p6706
I1
sS'Ruifeng Xu'
p6707
I2
sS'Magdalena Ortiz'
p6708
I8
sS'Priel Levy'
p6709
I1
sS'Houfeng Wang'
p6710
I3
sS'Sudhir Kumar'
p6711
I1
sS'Guibo Zhu'
p6712
I1
sS'Lorenzo Gatti'
p6713
I1
sS'Pascal Hitzler'
p6714
I1
sS'Jianfeng He'
p6715
I1
sS'Alberto Finzi'
p6716
I1
sS'Daniel S. Weld'
p6717
I5
sS'Rajdeep K. Dash'
p6718
I1
sS'R. Preston McAfee'
p6719
I1
sS'Yunya Song'
p6720
I1
sS'Edward Cheung'
p6721
I1
sS'Hugo Larochelle'
p6722
I1
sS'Aaron Heller'
p6723
I1
sS'M. G. Suraj'
p6724
I1
sS'Jie Tang'
p6725
I7
sS'Laura Martin'
p6726
I1
sS'Goce Trajcevski'
p6727
I1
sS'Wilton de Paula Filho'
p6728
I1
sS'Alessandro Limongiello'
p6729
I1
sS'Il-Chul Moon'
p6730
I1
sS'Zongxiong Dai'
p6731
I1
sS'Liang Hu'
p6732
I2
sS'Paolo Felli'
p6733
I5
sS'Yibing Song'
p6734
I2
sS'Xiaojun Ye'
p6735
I1
sS'Alessio Lomuscio'
p6736
I13
sS'Hiroshi Motoda'
p6737
I1
sS'Jinyan Li'
p6738
I1
sS'Chi Xu'
p6739
I1
sS'Xiaofeng Meng'
p6740
I2
sS'Oana Tifrea-Marciuska'
p6741
I3
sS'Logan Brooks'
p6742
I1
sS'Lei Xiao'
p6743
I1
sS'Vincent Ng'
p6744
I5
sS'Guoping Qiu'
p6745
I1
sS'Luis Enrique Pineda'
p6746
I3
sS'Michael Gleicher'
p6747
I1
sS'Jan M. Broersen'
p6748
I1
sS'Utku Sirin'
p6749
I1
sS'Weixue Lu'
p6750
I1
sS'Chun-Yi Liu'
p6751
I1
sS'Lizhen Qu'
p6752
I1
sS'Himanshu S. Bhatt'
p6753
I1
sS'Thiago de Paulo Faleiros'
p6754
I1
sS'Nicholas Gibbins'
p6755
I1
sS'Martin Diller'
p6756
I1
sS"Li'ang Yin"
p6757
I1
sS'S\xc3\xa9bastien Andler'
p6758
I1
sS'Jinwei Qi'
p6759
I1
sS'Glenn Fung'
p6760
I3
sS'Wei Liang'
p6761
I1
sS'Hsu-Chieh Hu'
p6762
I1
sS'Manuel Bodirsky'
p6763
I2
sS'Zhongzhi Shi'
p6764
I3
sS'Li Zhou'
p6765
I1
sS'Benjamin W. Wah'
p6766
I1
sS'Takeo Igarashi'
p6767
I1
sS'Christian Bauckhage'
p6768
I1
sS'Amarjeet Singh 0001'
p6769
I2
sS'Mathieu Ramona'
p6770
I1
sS'John Postl'
p6771
I1
sS'Xiaoqiang Yan'
p6772
I2
sS'Siyu Xia'
p6773
I1
sS'Guido Sciavicco'
p6774
I3
sS'Changshui Zhang'
p6775
I8
sS'Xu Miao'
p6776
I1
sS'Luigi Palopoli'
p6777
I3
sS'Eugenio Di Sciascio'
p6778
I1
sS'Haiyang Xu'
p6779
I1
sS'Duyu Tang'
p6780
I2
sS"Una-May O'Reilly"
p6781
I1
sS'Venkatesan T. Chakaravarthy'
p6782
I1
sS'Tu Bao Ho'
p6783
I2
sS'Yu Yang'
p6784
I2
sS'Rina Dechter'
p6785
I6
sS'Geoffrey Chu'
p6786
I3
sS'Hongyi Zhang'
p6787
I2
sS'Yixin Zhu'
p6788
I1
sS'Tian Liu'
p6789
I1
sS'Peng Wang 0004'
p6790
I1
sS'Josep Argelich'
p6791
I1
sS'Thassilo Gadermaier'
p6792
I1
sS'Ambuj Tewari'
p6793
I2
sS'Claire Cardie'
p6794
I1
sS'Javier Larrosa'
p6795
I2
sS'Bilal Piot'
p6796
I2
sS'Joakim Arfvidsson'
p6797
I1
sS'Tianbao Yang'
p6798
I1
sS'Filipe Assun\xc3\xa7\xc3\xa3o'
p6799
I1
sS'Yukino Baba'
p6800
I2
sS'Nuno Belard'
p6801
I1
sS'Ahmed ElMolla'
p6802
I1
sS'James K. Miller'
p6803
I1
sS'Tieniu Tan'
p6804
I2
sS'Hongying Du'
p6805
I1
sS'Shuo Chen'
p6806
I2
sS'Benjamin Scott Mashford'
p6807
I1
sS'Ang Li'
p6808
I1
sS'Shamil Chollampatt'
p6809
I2
sS'Xianchao Zhang'
p6810
I2
sS'Xiaojie Jin'
p6811
I2
sS'John-Jules Ch. Meyer'
p6812
I1
sS'Eunho Yang'
p6813
I1
sS'Kazuko Takahashi'
p6814
I1
sS'Tomoharu Iwata'
p6815
I5
sS'Daniel Sonntag'
p6816
I2
sS'Ankita Gupta'
p6817
I1
sS'Shuo Zhou'
p6818
I1
sS'Sofie De Clercq'
p6819
I1
sS'Amirali Salehi-Abari'
p6820
I1
sS'Catarina Ma\xc3\xa7\xc3\xa3s'
p6821
I1
sS'Hong Wang'
p6822
I1
sS'Minh Dao-Tran'
p6823
I3
sS'Juan-Zi Li'
p6824
I1
sS'Mong-Li Lee'
p6825
I1
sS'Preetjot Singh'
p6826
I1
sS'St\xc3\xa9phane Le Roux 0001'
p6827
I1
sS'Constanze Vorwerg'
p6828
I1
sS'Branislav Bosansk\xc3\xbd'
p6829
I4
sS'Ole J. Mengshoel'
p6830
I1
sS'Ji Feng'
p6831
I1
sS'Chunyan Miao'
p6832
I7
sS'Sheng Li'
p6833
I1
sS'Marcus Ritt'
p6834
I1
sS'Nina Narodytska'
p6835
I10
sS'Meishan Zhang'
p6836
I2
sS'Long Tran-Thanh'
p6837
I6
sS'Stefan Winkler 0001'
p6838
I1
sS'Guangquan Zhang'
p6839
I1
sS'Biao Zhang'
p6840
I1
sS'Amulya Yadav'
p6841
I1
sS'Jo\xc3\xa3o Leite'
p6842
I3
sS'Matthew Johnson'
p6843
I1
sS'Sunil Kumar Gupta 0001'
p6844
I1
sS'Emmanuel Lonca'
p6845
I1
sS'Joshua C. Peterson'
p6846
I1
sS'Rodrigo Agerri'
p6847
I1
sS'Qiang Ji'
p6848
I4
sS'Yu Wang 0021'
p6849
I1
sS'Long Chen'
p6850
I1
sS'Zekai Jacob Gao'
p6851
I1
sS'James Henderson'
p6852
I1
sS'Lianwen Jin'
p6853
I1
sS'Kiyan Ahmadizadeh'
p6854
I1
sS'Sai Nageswar Satchidanand'
p6855
I1
sS'Silvia Richter'
p6856
I1
sS'Zhang Zhen'
p6857
I1
sS'Maria Silvia Pini'
p6858
I4
sS'Ji Liu 0002'
p6859
I2
sS'Qiyong Guo'
p6860
I1
sS'Jeff A. Bilmes'
p6861
I2
sS'Louise Guthrie'
p6862
I1
sS'Motaz El-Saban'
p6863
I2
sS'Sepehr Eghbali'
p6864
I1
sS'John Bigham'
p6865
I1
sS'Vitaly Mirkis'
p6866
I1
sS'Pinar Yolum'
p6867
I1
sS'Edmund H. Durfee'
p6868
I1
sS'Jacek Kisynski'
p6869
I1
sS'Masahiro Kimura'
p6870
I1
sS'Zheng Qin'
p6871
I1
sS'Sylvain Bouveret'
p6872
I5
sS'Jiwon Kim'
p6873
I1
sS'Josep Valls-Vargas'
p6874
I2
sS'Abhijnan Chakraborty'
p6875
I1
sS'Maur\xc3\xadcio D. Lu\xc3\xads Reis'
p6876
I1
sS'Quanjun Yin'
p6877
I1
sS'J\xc3\xa9r\xc3\xb4me Monnot'
p6878
I3
sS'G\xc3\xa1bor Bella'
p6879
I1
sS'Takayuki Katsuki'
p6880
I1
sS'Yorick Wilks'
p6881
I1
sS'Hao Liu'
p6882
I1
sS'Axel-Cyrille Ngonga Ngomo'
p6883
I1
sS'Robert E. Schapire'
p6884
I1
sS'Ryo Takahashi'
p6885
I1
sS'Liz Sonenberg'
p6886
I2
sS'Remi Coletta'
p6887
I3
sS'Miguel A. L\xc3\xb3pez-Carmona'
p6888
I1
sS'Nobuhiro Kaji'
p6889
I1
sS'Myra Spiliopoulou'
p6890
I1
sS'Siu Cheung Hui'
p6891
I3
sS'Jing Tang'
p6892
I1
sS'Emanuele Bastianelli'
p6893
I1
sS'Marco De Luca'
p6894
I1
sS'Mika Cohen'
p6895
I1
sS'Guorong Li'
p6896
I1
sS'Jing-Cheng Shi'
p6897
I3
sS'Paola Merlo'
p6898
I1
sS'Volker Tresp'
p6899
I1
sS'Mihajlo Grbovic'
p6900
I1
sS'Jeffrey Nichols'
p6901
I1
sS'Sonia Chernova'
p6902
I1
sS'Christine Solnon'
p6903
I1
sS'Sebastijan Dumancic'
p6904
I2
sS'Hakjoo Oh'
p6905
I1
sS'Justin Helbert'
p6906
I1
sS'Nikos Gorogiannis'
p6907
I1
sS'Yu Qing Zhou'
p6908
I1
sS'Qi Guo'
p6909
I2
sS'Pushpak Burange'
p6910
I1
sS'Nuria Oliver'
p6911
I2
sS'Shanshan Feng'
p6912
I1
sS'Antonio Morales'
p6913
I1
sS'Harri Oinas-Kukkonen'
p6914
I1
sS'Dan Claudiu Ciresan'
p6915
I1
sS'Nicholas Ruozzi'
p6916
I1
sS'Olivier Bachem'
p6917
I1
sS'Ruijiang Li'
p6918
I1
sS'Venkatraman Narayanan'
p6919
I1
sS'Bingning Wang'
p6920
I2
sS'Marc G. Bellemare'
p6921
I4
sS'David E. Smith'
p6922
I2
sS'Zahra Nazari'
p6923
I1
sS'Prateek Jindal'
p6924
I1
sS'Kevin J. Lang'
p6925
I1
sS'Daria Stepanova 0001'
p6926
I1
sS'Yadong Mu'
p6927
I2
sS'Ece Kamar'
p6928
I7
sS'Alex Rogers'
p6929
I9
sS'Naoki Yoshinaga 0001'
p6930
I1
sS'Daniele Porello'
p6931
I2
sS'Peng Yu'
p6932
I2
sS'Roberto Navigli'
p6933
I7
sS'Lavindra de Silva'
p6934
I1
sS'Nadia Pantidi'
p6935
I1
sS'H\xc3\xa9l\xc3\xa8ne Fargier'
p6936
I7
sS'Zhengzheng Lou'
p6937
I1
sS'Marco Gori'
p6938
I2
sS'Yong Wang'
p6939
I1
sS'Jinhyuk Lee'
p6940
I1
sS'Chunyang Xiao'
p6941
I1
sS'Murat Dundar'
p6942
I1
sS'Markus Mairitsch'
p6943
I1
sS'Lijing Qin'
p6944
I1
sS'Hanrui Wu'
p6945
I1
sS'Xiao-Peng Zhang'
p6946
I1
sS'Federico Nespoli'
p6947
I1
sS'Stefano Faralli'
p6948
I2
sS'Donghee Choi'
p6949
I1
sS'Seunghak Lee'
p6950
I1
sS'Charalampos Nikolaou'
p6951
I1
sS'Fran\xc3\xa7ois Pachet'
p6952
I5
sS'Carolyn Penstein Ros\xc3\xa9'
p6953
I1
sS'Edwin R. Hancock'
p6954
I1
sS'Yanyan Lan'
p6955
I2
sS'Kristian Woodsend'
p6956
I1
sS'Bernhard Sch\xc3\xb6lkopf'
p6957
I2
sS'Saroj Kaushik'
p6958
I1
sS'Jinpeng Huai'
p6959
I1
sS'Tushar Khot'
p6960
I1
sS'Daniel J. Lizotte'
p6961
I1
sS'Yufen Shao'
p6962
I1
sS'Rachel Ben-Eliyahu-Zohary'
p6963
I1
sS'Giordano Cabral'
p6964
I1
sS'Clemens Puppe'
p6965
I1
sS'S. Sathiya Keerthi'
p6966
I1
sS'Vishalaksh Aggarwal'
p6967
I1
sS'Gurkanwal Singh'
p6968
I1
sS'Henry A. Kautz'
p6969
I7
sS'Mehrdad Oveisi'
p6970
I1
sS'Clemens Eppner'
p6971
I1
sS'Abir De'
p6972
I1
sS'Shravan Matthur Narayanamurthy'
p6973
I1
sS'J\xc3\xb6rg Hoffmann 0001'
p6974
I8
sS'Benoit Desouter'
p6975
I1
sS'Facundo Bromberg'
p6976
I1
sS'Cheng Zhu'
p6977
I2
sS'Shuai Xiao'
p6978
I2
sS'Shinji Watanabe'
p6979
I1
sS'Nizar Bouguila'
p6980
I1
sS'Hsun-Ping Hsieh'
p6981
I1
sS'Ildik\xc3\xb3 Flesch'
p6982
I1
sS'Adam M. Smith'
p6983
I1
sS'Alice X. Zheng'
p6984
I2
sS'Dana Fisman'
p6985
I1
sS'Biao Qin'
p6986
I2
sS'Jian Zhang 0003'
p6987
I1
sS'Josef Urban'
p6988
I1
sS'Peifeng Li'
p6989
I1
sS'Guillem Franc\xc3\xa8s'
p6990
I3
sS'Vijil Chenthamarakshan'
p6991
I1
sS'Alberto Barr\xc3\xb3n-Cede\xc3\xb1o'
p6992
I1
sS'Robert C. Holte'
p6993
I4
sS'Parisa Kordjamshidi'
p6994
I1
sS'Jens Witkowski'
p6995
I2
sS'Ivett Szab\xc3\xb3'
p6996
I1
sS'Kenny Q. Zhu'
p6997
I1
sS'Gera Weiss'
p6998
I1
sS'Pierre Le Maigat'
p6999
I1
sS'Xutao Li'
p7000
I1
sS'Ling Shao'
p7001
I4
sS'Gabriele Barbieri'
p7002
I1
sS'Sabine Ploux'
p7003
I1
sS'Wannes Meert'
p7004
I2
sS'Thorsten Sch\xc3\xbctt'
p7005
I1
sS'Yan Zhang 0003'
p7006
I2
sS'Narayanan Chatapuram Krishnan'
p7007
I1
sS'Xiangchu Feng'
p7008
I1
sS'Francesco Orsini'
p7009
I1
sS'Jon McCormack'
p7010
I1
sS'Bi-ke Chen'
p7011
I1
sS'Vincent J. Koeman'
p7012
I2
sS'Mohsen Jamali'
p7013
I1
sS'Yuan Su'
p7014
I1
sS'Kazunori Ohta'
p7015
I1
sS'Vasant G. Honavar'
p7016
I1
sS'John K. Slaney'
p7017
I1
sS'Xinyu Ou'
p7018
I1
sS'Mehdi Samadi'
p7019
I1
sS'Alejandro L\xc3\xb3pez-Ortiz'
p7020
I1
sS'Mich\xc3\xa8le Sebag'
p7021
I1
sS'Federico Fogolari'
p7022
I1
sS'Lakhdar Loukil'
p7023
I1
sS'Xiao Cai'
p7024
I2
sS'Andr\xc3\xa9 Grahl Pereira'
p7025
I1
sS'Joonseok Lee'
p7026
I1
sS'Meir Goldenberg'
p7027
I1
sS'Gao Cong'
p7028
I1
sS'Chengxiang Zhai'
p7029
I1
sS'Eyke H\xc3\xbcllermeier'
p7030
I2
sS'Alexander T. Ihler'
p7031
I1
sS'Pascal Rubini'
p7032
I1
sS'Topi Talvitie'
p7033
I1
sS'Gabriele Musillo'
p7034
I1
sS'Lilyana Mihalkova'
p7035
I1
sS'Zhi-Hua Zhou'
p7036
I29
sS'Gal Raz'
p7037
I1
sS'Ning Chen'
p7038
I4
sS'Anthony Fader'
p7039
I1
sS'Sebasti\xc3\xa1n Moreno'
p7040
I1
sS'Qingqing Wang'
p7041
I1
sS'Kun Zhang 0001'
p7042
I2
sS'Roberto Togneri'
p7043
I1
sS'Jonathan Wildstrom'
p7044
I1
sS'Hongsong Li'
p7045
I1
sS'Fan Xie'
p7046
I1
sS'Emmanuel Hadoux'
p7047
I1
sS'Csaba Szepesv\xc3\xa1ri'
p7048
I4
sS'Marko van Dooren'
p7049
I1
sS'Pedro Cabalar'
p7050
I1
sS'Yun-En Liu'
p7051
I1
sS'Krzysztof Magiera'
p7052
I1
sS'Anna Cinzia Squicciarini'
p7053
I2
sS'Jiaying Liu'
p7054
I1
sS'Giuseppe Perelli'
p7055
I2
sS'Takanori Maehara'
p7056
I1
sS'Si Wei'
p7057
I2
sS'Huan Wang'
p7058
I2
sS'V\xc3\xadtor Santos Costa'
p7059
I1
sS'Maciej Liskiewicz'
p7060
I1
sS'Tara A. Estlin'
p7061
I1
sS'Faruk Polat'
p7062
I2
sS'Shizhou Zhang'
p7063
I1
sS'Cheng-Te Li'
p7064
I2
sS'Shahab Tasharrofi'
p7065
I1
sS'Keishi Okamoto'
p7066
I1
sS'Ariel D. Procaccia'
p7067
I18
sS'Minming Li'
p7068
I1
sS'Zhiqiang Zhuang'
p7069
I3
sS'Jayanth Krishna Mogali'
p7070
I1
s.