(dp1
S'Lizhu Zhou'
p2
I2
sS'Noam Koenigstein'
p3
I1
sS'Matthew Kerr'
p4
I1
sS'Stan Matwin'
p5
I1
sS'Adria Jewell'
p6
I1
sS'Ian N. Davidson'
p7
I3
sS'Linli Xu'
p8
I1
sS'Pablo Robles-Granda'
p9
I1
sS'Lingfei Wu'
p10
I1
sS'Noriaki Kawamae'
p11
I1
sS'Junming Shao'
p12
I3
sS'Santanu Das'
p13
I1
sS'Ahmed Metwally'
p14
I2
sS'Alina Beygelzimer'
p15
I1
sS'Peggy L. Peissig'
p16
I2
sS'Carl Shan'
p17
I1
sS'Gargi Banerjee Dasgupta'
p18
I1
sS'Jos\xc3\xa9 Carlos Gonz\xc3\xa1lez'
p19
I1
sS'Makoto Yamada'
p20
I1
sS'Katja Hofmann'
p21
I1
sS'Gita Sukthankar'
p22
I1
sS'Satyanarayana Reddy Janga'
p23
I1
sS"Damien O'Malley"
p24
I1
sS'Jayant Kalagnanam'
p25
I1
sS'Yun Chi'
p26
I4
sS'Gui-Rong Xue'
p27
I2
sS'Arun S. Maiya'
p28
I2
sS'Vinayaka Pandit'
p29
I1
sS'Xiwang Yang'
p30
I1
sS'Zhang Xiong'
p31
I1
sS'Pei Lee'
p32
I2
sS'Youngsuk Park'
p33
I1
sS'Alfredo Alba'
p34
I1
sS'Yoshua Bengio'
p35
I1
sS'Shupeng Wang'
p36
I1
sS'Tom Quisel'
p37
I1
sS'Shen Wang'
p38
I1
sS'Vinay Bettadapura'
p39
I1
sS'Long Jiang'
p40
I1
sS'Pranay Anchuri'
p41
I2
sS'Stanley Kok'
p42
I1
sS'Larisa Shwartz'
p43
I3
sS'Matthias Schubert'
p44
I1
sS'Yaojia Zhu'
p45
I2
sS'John S. Brownstein'
p46
I2
sS'Yi-Ming Chen'
p47
I1
sS'Klaus Ackermann'
p48
I1
sS'Wook-Shin Han'
p49
I3
sS'Wei Tang'
p50
I1
sS'Tao Zhou'
p51
I1
sS'Ahmet Bugdayci'
p52
I1
sS'Michael Shtutman'
p53
I1
sS'Xavier Amatriain'
p54
I1
sS'Emily Cohn'
p55
I1
sS'Marco Zaffalon'
p56
I1
sS'Shaobo Liu'
p57
I1
sS'Machar Reid'
p58
I1
sS'Jun-Hong Lin'
p59
I1
sS'Stefan Savage'
p60
I3
sS'Aaron Schein'
p61
I1
sS'Siva Gurumurthy'
p62
I1
sS'Silvio Lattanzi'
p63
I3
sS'Michael Berk'
p64
I1
sS'Jasmina Bogojeska'
p65
I2
sS'Bo-Yu Chu'
p66
I1
sS'Goce Ristanoski'
p67
I1
sS'Sridhar Machiraju'
p68
I1
sS'Hossam Sharara'
p69
I1
sS'Xuanhui Wang'
p70
I3
sS'Karen E. Blackmon'
p71
I1
sS'Limei Jiao'
p72
I1
sS'Hannu Toivonen'
p73
I2
sS'Benjamin C. M. Fung'
p74
I4
sS'Franco Turini'
p75
I2
sS'Jingbo Zhou'
p76
I1
sS'Yanmin Zhu'
p77
I1
sS"Rami Al-Rfou'"
p78
I1
sS'Jaroslav M. Fowkes'
p79
I1
sS'Nena M. Marin'
p80
I1
sS'Chung-Min Chen'
p81
I1
sS'Andre Suchitra'
p82
I1
sS'Samet Ayhan'
p83
I1
sS'Anton Mityagin'
p84
I1
sS'Cindy Xide Lin'
p85
I3
sS'Shannon Quinn'
p86
I1
sS'Martin Klinkigt'
p87
I1
sS'Shih-Fu Chang'
p88
I1
sS'Teng Zhang'
p89
I1
sS'Shaohua Sun'
p90
I1
sS'Zhi-Li Zhang'
p91
I2
sS'Rong Ge 0002'
p92
I2
sS'E. Daniel Hirleman'
p93
I1
sS'Lantao Yu'
p94
I1
sS'Jie Liu 0001'
p95
I1
sS'Jakub Piskorski'
p96
I1
sS'Thomas A. Trikalinos'
p97
I1
sS'Gang Zhao'
p98
I1
sS'Takuya Akiba'
p99
I2
sS'Rainer Gemulla'
p100
I1
sS'Qingyuan Zhao'
p101
I1
sS'Stefano Cresci'
p102
I1
sS'Ming Yang'
p103
I3
sS'Yan Liu 0002'
p104
I8
sS'Norbou Buchler'
p105
I1
sS'Susan P. Imberman'
p106
I1
sS'Hillol Kargupta'
p107
I2
sS'Bistra N. Dilkina'
p108
I1
sS'Mehryar Mohri'
p109
I1
sS'Wenwu Zhu 0001'
p110
I8
sS'Hannes Heikinheimo'
p111
I1
sS'Guillaume Saint-Jacques'
p112
I1
sS'Ying Zhang'
p113
I1
sS'S. Muthukrishnan'
p114
I1
sS'Zhongzhi Shi'
p115
I3
sS'Blaz Fortuna'
p116
I1
sS'Tom Boulos'
p117
I1
sS'Kai Ren'
p118
I1
sS'Dahua Lin'
p119
I1
sS'Wei Wu'
p120
I2
sS'Ramendra K. Sahoo'
p121
I1
sS'Sara Johansson'
p122
I1
sS'Christine Largou\xc3\xabt'
p123
I1
sS'Hong Cheng'
p124
I4
sS'Zhe Zhang'
p125
I1
sS'Maurizio Patrignani'
p126
I1
sS'David W. Cheung'
p127
I2
sS'Junqi Jin'
p128
I1
sS'Zoran Obradovic'
p129
I3
sS'Yukitaka Kusumura'
p130
I1
sS'Lu Su'
p131
I5
sS'K. P. Unnikrishnan'
p132
I1
sS'Thomas Brennan'
p133
I1
sS'Martin Becker 0003'
p134
I1
sS'Kazumi Saito'
p135
I1
sS'Erheng Zhong'
p136
I8
sS'Pengtao Xie'
p137
I2
sS'Edo Liberty'
p138
I4
sS'Mohamed Medhat Gaber'
p139
I1
sS'Amr Awadallah'
p140
I1
sS'Subhodeep Moitra'
p141
I1
sS'Torsten Suel'
p142
I1
sS'Jan Ramon'
p143
I1
sS'Stanley Wasserman'
p144
I1
sS'Christopher W. Clifton'
p145
I1
sS'Sheng Li 0001'
p146
I1
sS'Linda Kato'
p147
I2
sS'Kee Yuan Ngiam'
p148
I1
sS'Ramakrishnan Kannan'
p149
I1
sS'Yujie He'
p150
I1
sS'Ioana M. Boier-Martin'
p151
I1
sS'Xin Jin'
p152
I1
sS'Guofei Jiang'
p153
I3
sS'Furong Li'
p154
I1
sS'Todd Porter'
p155
I1
sS'R. Bharat Rao'
p156
I2
sS'Aoying Zhou'
p157
I1
sS'Robin Li'
p158
I1
sS'Jian-Tao Sun'
p159
I2
sS'Lu Zheng'
p160
I1
sS'Jun Wu'
p161
I1
sS'Constantine Dovrolis'
p162
I1
sS'De Wang'
p163
I1
sS'Martine De Cock'
p164
I1
sS'Cory Kirk'
p165
I1
sS'Yang Cao'
p166
I1
sS'Sriram Srinivasan 0001'
p167
I1
sS'Xiaoyong Du'
p168
I1
sS'Yu Cheng'
p169
I2
sS'Nicole Kr\xc3\xa4mer'
p170
I1
sS'Sachindra Joshi'
p171
I1
sS'Srinivas Vadrevu'
p172
I1
sS'Jimmy J. Lin'
p173
I2
sS'Sumiko R. Mekaru'
p174
I1
sS'Nathan Self'
p175
I4
sS'Nam Nguyen'
p176
I1
sS'Shayok Chakraborty'
p177
I1
sS'Daron Green'
p178
I1
sS'Frank Nielsen'
p179
I1
sS'Jonathan Betz'
p180
I1
sS'Le Wu'
p181
I1
sS'Bo Zhao'
p182
I1
sS'Cheng-Xia Chang'
p183
I2
sS'Xiaoyan Zhu'
p184
I1
sS'Jianfeng Zhang'
p185
I2
sS'Tijl De Bie'
p186
I3
sS'Yossi Matias'
p187
I1
sS'Abdullah Mueen'
p188
I4
sS'Alice Leung'
p189
I1
sS'Luc De Raedt'
p190
I2
sS'Tim Guleri'
p191
I1
sS'Guobin Wu'
p192
I1
sS'Max Welling'
p193
I3
sS'Arnold P. Boedihardjo'
p194
I2
sS'Pritam Gundecha'
p195
I2
sS'Qiaozhu Mei'
p196
I9
sS'Min Bae'
p197
I1
sS'Ashish Verma'
p198
I1
sS'Scott Alcorn'
p199
I1
sS'Daixin Wang'
p200
I1
sS'Julie Moeyersoms'
p201
I1
sS'William R. Pulleyblank'
p202
I1
sS'Walter F. Stewart'
p203
I2
sS'David F. Gleich'
p204
I8
sS'Moses Mugisha'
p205
I1
sS'Grant Marshall'
p206
I1
sS'Andrew Y. Ng'
p207
I1
sS'Christopher Potts'
p208
I1
sS'Kimberly Carlson'
p209
I1
sS'Anon Plangprasopchok'
p210
I1
sS'Ryen W. White'
p211
I2
sS'Nenghai Yu'
p212
I1
sS'Chris Giannella'
p213
I1
sS'Hesam Amoualian'
p214
I1
sS'Jeff Jacobs'
p215
I1
sS'Yuhong Xiong'
p216
I1
sS'Michael Schueppert'
p217
I1
sS'Dimitrios Kotsakos'
p218
I1
sS'Greg Corrado'
p219
I1
sS'Ioakeim Perros'
p220
I1
sS'Akshai K. Aggarwal'
p221
I1
sS'Parikshit Ram'
p222
I3
sS'Shin Matsushima'
p223
I1
sS'Pannaga Shivaswamy'
p224
I1
sS'Hisashi Kashima'
p225
I3
sS'Yaron Singer'
p226
I1
sS'Soumen Chakrabarti'
p227
I5
sS'Maimuna S. Majumder'
p228
I1
sS'Bradley A. Malin'
p229
I1
sS'Caimei Lu'
p230
I2
sS'Ian H. Jarman'
p231
I1
sS'Shuigeng Zhou'
p232
I1
sS'Pedram Pedarsani'
p233
I1
sS'Bernd Wachmann'
p234
I1
sS'Scott W. Fancher'
p235
I1
sS'Zhen Liao'
p236
I1
sS'Vasilis Verroios'
p237
I1
sS'Cody L. Moser'
p238
I1
sS'Stephen E. Fienberg'
p239
I1
sS'Lise Getoor'
p240
I10
sS'Danai Koutra'
p241
I4
sS'Ji Meng Loh'
p242
I1
sS'Yuto Yamaguchi'
p243
I1
sS'Christian B\xc3\xb6hm'
p244
I8
sS'John V. Guttag'
p245
I5
sS'Chun-Nam John Yu'
p246
I1
sS'Siong Thye Goh'
p247
I1
sS'Xiaodan Zhang'
p248
I1
sS'Zhibo Chen 0002'
p249
I1
sS'Guangzhong Sun'
p250
I2
sS'Jaideep Vaidya'
p251
I1
sS'Shaili Jain'
p252
I1
sS'Pranali Yawalkar'
p253
I1
sS'Huasen Wu'
p254
I1
sS'Ashwin Venkataraman'
p255
I1
sS'Lei Zheng'
p256
I2
sS'Cong Zhao'
p257
I1
sS'Anand Iyer'
p258
I2
sS'Atish Das Sarma'
p259
I3
sS'David Hallac'
p260
I3
sS'Tong Zhang'
p261
I3
sS'Asim Kadav'
p262
I1
sS'Furui Liu'
p263
I1
sS'Kin Hou Lei'
p264
I2
sS'Tie-Yan Liu'
p265
I3
sS'Nicola Barbieri'
p266
I1
sS'Saurabh Agrawal'
p267
I1
sS'Yoshihisa Abe'
p268
I1
sS'Hyun Ah Song'
p269
I1
sS'Jing Feng'
p270
I2
sS'Paul Ogilvie'
p271
I1
sS'C\xc3\xa9line Rouveirol'
p272
I1
sS'Kaiping Zheng'
p273
I1
sS'Ardian Kristanto Poernomo'
p274
I2
sS'Dino Pedreschi'
p275
I5
sS'Brandon Norick'
p276
I1
sS'Gaurav Pandey'
p277
I2
sS'David A. Meyer'
p278
I1
sS'Alexander Ulanov'
p279
I1
sS'Susmitha Wunnava'
p280
I1
sS'Xuan Che'
p281
I1
sS'Ting-Wei Lin'
p282
I3
sS'Mitul Tiwari'
p283
I2
sS'Fei-Fei Li'
p284
I1
sS'Anbu K. Adikesavan'
p285
I1
sS'Chris Whidden'
p286
I1
sS'Gang Wei'
p287
I2
sS'Lin Xiao'
p288
I1
sS'C\xc3\xa9cile Germain-Renaud'
p289
I1
sS'Xiang Li'
p290
I1
sS'Milad Makkie'
p291
I1
sS'Geoff Outhred'
p292
I1
sS'Joseph Bugajski'
p293
I1
sS'Guannan Liu'
p294
I4
sS'Arlei Silva'
p295
I1
sS'Guan Wang'
p296
I3
sS'Rajiv Khanna'
p297
I2
sS'Adam Fleisher'
p298
I1
sS'Enrico Bertini'
p299
I1
sS'Maria Lupetini'
p300
I1
sS'Shlomo Berkovsky'
p301
I1
sS'Ariel Fuxman'
p302
I3
sS'Henrik Bostr\xc3\xb6m'
p303
I1
sS'Xiaoming Fan'
p304
I1
sS'Yang Wang'
p305
I1
sS'Orlando Ohashi'
p306
I1
sS'Wee Siong Ng'
p307
I3
sS'Richard Peng'
p308
I1
sS'Yichi Liu'
p309
I1
sS'Alex Davies'
p310
I1
sS'Robert Patro'
p311
I1
sS'Karsten Steinhaeuser'
p312
I3
sS'Andrew Haines'
p313
I1
sS'Ling-Jyh Chen'
p314
I1
sS'Mitsuru Kusumoto'
p315
I1
sS'Tingting He'
p316
I1
sS'Tak-Lam Wong'
p317
I1
sS'Bryan Hooi'
p318
I2
sS'Shifei Jin'
p319
I1
sS'Po Hu'
p320
I1
sS'Fabrizio Sebastiani 0001'
p321
I1
sS'Yong Zhao'
p322
I1
sS'Siyu Yang'
p323
I1
sS'Polina Rozenshtein'
p324
I3
sS'James Evans'
p325
I1
sS'R\xc3\xb3mer Rosales'
p326
I4
sS'Minglu Li 0001'
p327
I2
sS'Yue Ning'
p328
I1
sS'Nicholas Valler'
p329
I1
sS'Yucheng Low'
p330
I2
sS'Maurizio Tesconi'
p331
I1
sS'Peter Andreae'
p332
I1
sS'Manolis Platakis'
p333
I1
sS'Prantik Bhattacharyya'
p334
I2
sS'Chao Chen'
p335
I1
sS'Xi Zhang'
p336
I1
sS'Auroop R. Ganguly'
p337
I3
sS'Srinivasan H. Sengamedu'
p338
I2
sS'Marco Arlorio'
p339
I1
sS'Fengjiao Wang'
p340
I2
sS'Joel Brooks'
p341
I1
sS'Mark Tremayne'
p342
I1
sS'Inderjit S. Dhillon'
p343
I7
sS'David Bindel'
p344
I1
sS'Lei Zhang 0001'
p345
I3
sS'Pang-Ning Tan'
p346
I3
sS'Frank Lin'
p347
I1
sS'Yadong Mu'
p348
I1
sS'Chaoran Cheng'
p349
I1
sS'Faris Alqadah'
p350
I1
sS'See-Kiong Ng'
p351
I2
sS'Matthew Botvinick'
p352
I1
sS'Rashmi Raghu'
p353
I1
sS'Susan L. Brantley'
p354
I1
sS'Nikolaj Tatti'
p355
I7
sS'Phil Anno'
p356
I1
sS'Mike Colagrosso'
p357
I1
sS'Xiuwen Yi'
p358
I1
sS'Chengxi Zang'
p359
I2
sS'Renato Paes Leme'
p360
I1
sS'Lexin Li'
p361
I1
sS'Yexi Jiang'
p362
I3
sS'Isabel M. Kloumann'
p363
I1
sS'Muhan Zhang'
p364
I1
sS'Markus Ojala'
p365
I1
sS'Jinfeng Yi'
p366
I1
sS'Ivor W. Tsang'
p367
I1
sS'Richie Frost'
p368
I1
sS'Kjetil N\xc3\xb8rv\xc3\xa5g'
p369
I1
sS'Steven Luis'
p370
I2
sS'Karl Schultz'
p371
I1
sS'Aditya G. Parameswaran'
p372
I4
sS'Ramesh Nallapati'
p373
I2
sS'Bai Sun'
p374
I1
sS'Yupeng Gu'
p375
I2
sS'Dawei Wang'
p376
I2
sS'Lisa Friedland'
p377
I3
sS'Jeffrey Chan'
p378
I2
sS'Katja Niemann'
p379
I1
sS'Nils Pohlmann'
p380
I1
sS'Lei Li'
p381
I8
sS'Shinya Suzumura'
p382
I1
sS'Adriano Veloso'
p383
I1
sS'Mohamed Bouguessa'
p384
I1
sS'Li Tu'
p385
I1
sS'Tamir Tassa'
p386
I1
sS'Amit Sasturkar'
p387
I1
sS'Mark Last'
p388
I1
sS'Srujana Merugu'
p389
I1
sS'Bryan L. Matthews'
p390
I4
sS'Lei Li 0001'
p391
I3
sS'Michael J. Cafarella'
p392
I1
sS'Bo Zhao 0001'
p393
I9
sS'Alejandro Mottini'
p394
I1
sS'Ya Zhang'
p395
I1
sS'Yaniv Ovadia'
p396
I1
sS'Ke Wang 0001'
p397
I2
sS'Graham Williams'
p398
I1
sS'Tapani Raiko'
p399
I1
sS'Oana Goga'
p400
I1
sS'Cyril Furtlehner'
p401
I1
sS'Marco T\xc3\xbalio Ribeiro'
p402
I1
sS'Joshua Hartman'
p403
I1
sS'Zhiyuan Chen 0001'
p404
I3
sS'Shobana Balakrishnan'
p405
I1
sS'Fangshuang Tang'
p406
I1
sS'Yusuke Ichikawa'
p407
I1
sS'Jiangyun Mao'
p408
I1
sS'Konrad Feldman'
p409
I1
sS'Sameer Tharakan'
p410
I1
sS'Qiuling Pan'
p411
I1
sS'Yanjie Fu'
p412
I8
sS'Nisheeth Srivastava'
p413
I1
sS'Ashish Jain'
p414
I1
sS'Srivatsava Ranjit Ganta'
p415
I1
sS'Shuai Yuan'
p416
I2
sS'Avi Feller'
p417
I1
sS'Po-Sen Huang'
p418
I1
sS'Ming Tan'
p419
I1
sS'Mat\xc3\xadas Tealdi'
p420
I1
sS'Arnar Mar Hrafnkelsson'
p421
I1
sS'Joyce C. Ho'
p422
I1
sS'H\xc3\xa9ctor Ruiz'
p423
I2
sS'Jonathan Chang'
p424
I1
sS'John William Paisley'
p425
I1
sS'Peter Carr 0001'
p426
I2
sS'Yajun Wang'
p427
I3
sS'Shoko Wakamiya'
p428
I1
sS'Charles X. Ling'
p429
I3
sS'Shwetabh Khanduja'
p430
I1
sS'Fei Wu 0007'
p431
I1
sS'Ting Chen'
p432
I2
sS'Shan Jiang'
p433
I1
sS'Adrian Albert'
p434
I1
sS'Eytan Bakshy'
p435
I1
sS'Weiwei Chen'
p436
I1
sS'Jiwen Li'
p437
I1
sS'Ben Green'
p438
I1
sS'John Leahy'
p439
I1
sS'Andy Doyle'
p440
I2
sS'Lexiang Ye'
p441
I1
sS'Michael J. Kearns'
p442
I1
sS'Haibin Liu'
p443
I1
sS'Noah Lee'
p444
I1
sS'Natalie S. Glance'
p445
I1
sS'Yong Shi'
p446
I2
sS'Zhi Wang'
p447
I1
sS'Haixin Ma'
p448
I1
sS'Xinyu Yan'
p449
I1
sS'Xiaohui Wu'
p450
I1
sS'Elias Boutros Khalil'
p451
I1
sS'Yuntian Deng'
p452
I1
sS'Bronwyn Woods'
p453
I1
sS'Kostas Tsioutsiouliklis'
p454
I2
sS'Jiebo Luo'
p455
I3
sS'Andrew R. Michaelis'
p456
I1
sS'Ashay Tamhane'
p457
I1
sS'Kun Gai'
p458
I1
sS'Georgia Koloniari'
p459
I1
sS'Hwanjun Song'
p460
I1
sS'Ling Chen'
p461
I3
sS'Caifeng He'
p462
I1
sS'Helwig Hauser'
p463
I1
sS'Martin Ester'
p464
I8
sS'Wei Di'
p465
I2
sS'Shiyou Qian'
p466
I1
sS'Machiko Toyoda'
p467
I1
sS'Santosh Kabbur'
p468
I1
sS'Eino Hinkkanen'
p469
I1
sS'Dan Steinberg'
p470
I1
sS'Marisa C. Eisenberg'
p471
I1
sS'Zhilin Yang'
p472
I2
sS'Elena Zheleva'
p473
I1
sS'Meena Nagarajan'
p474
I1
sS'Carlos D. Correa'
p475
I1
sS'Nathan Liu'
p476
I2
sS'Kai Wang'
p477
I1
sS'Jinjun Xiong'
p478
I1
sS'Ramakrishna R. Nemani'
p479
I1
sS'Linpeng Tang'
p480
I1
sS'Shangsong Liang'
p481
I2
sS'Sunandan Chakraborty'
p482
I2
sS'Ming Ji'
p483
I2
sS'Anushka Anand'
p484
I1
sS'Hongchang Gao'
p485
I1
sS'Rod Hook'
p486
I3
sS'Josif Grabocka'
p487
I1
sS'Michael May'
p488
I1
sS'Raja Velu'
p489
I1
sS'Youssef Fayed'
p490
I1
sS'Toshihiko Yanase'
p491
I1
sS'Dmitry Pavlov'
p492
I1
sS'Bo Wang'
p493
I1
sS'Troy Raeder'
p494
I5
sS'Lilian Weng'
p495
I1
sS'Cong Ma'
p496
I1
sS'Luo Jie'
p497
I1
sS'Hannes Korte'
p498
I1
sS'Yang Zhang'
p499
I1
sS'Zhongfei (Mark) Zhang'
p500
I3
sS'Stefan R\xc3\xbcping'
p501
I1
sS'Arnd Christian K\xc3\xb6nig'
p502
I1
sS'Pan Chao'
p503
I1
sS'Jouni Sarvanko'
p504
I1
sS'Daniel David Walker'
p505
I1
sS'Charles Perng'
p506
I1
sS'Niko Vuokko'
p507
I1
sS'Donald Young'
p508
I1
sS'Michael Krishnan'
p509
I1
sS'Josh Attenberg'
p510
I5
sS'Han Zhu'
p511
I1
sS'Qinyong Wang'
p512
I1
sS'Joon S. Park'
p513
I1
sS'Kyle Kloster'
p514
I1
sS'Vagelis Hristidis'
p515
I3
sS'Shan-Hung Wu'
p516
I1
sS'Jesse Read'
p517
I1
sS'Jue Wang'
p518
I1
sS'Shachar Kaufman'
p519
I1
sS'Le Yu'
p520
I1
sS'Steven A. Klooster'
p521
I1
sS'Kaixiang Mo'
p522
I1
sS'Beibei Li'
p523
I1
sS'Cheng-Kuang Wei'
p524
I2
sS'Conglei Shi'
p525
I1
sS'Yin Yang'
p526
I2
sS'Rong Jin'
p527
I10
sS'Xiangliang Zhang'
p528
I2
sS'C. Seshadhri'
p529
I2
sS'Anshuman Sahu'
p530
I1
sS'Prabhakar Krishnamurthy'
p531
I1
sS'Yan Xie'
p532
I1
sS'Kenny Qili Zhu'
p533
I1
sS'Yi Chang'
p534
I5
sS'Andrew Stanton'
p535
I1
sS'Robert Chen'
p536
I2
sS'Heng Ji'
p537
I4
sS'Charles A. Sutton'
p538
I2
sS'Fabian L. Wauthier'
p539
I1
sS'Elke A. Rundensteiner'
p540
I5
sS'Seungil Huh'
p541
I1
sS'William Nick Street'
p542
I1
sS'Ari Kobren'
p543
I1
sS'Han Li'
p544
I1
sS'Chang Hun You'
p545
I1
sS'Rong Ge'
p546
I1
sS'Shekoofeh Mokhtari'
p547
I1
sS'J. Paul Robinson'
p548
I1
sS'Younghoon Kim'
p549
I1
sS'Xiangrui Meng'
p550
I1
sS'Tadej Stajner'
p551
I1
sS'Jim C. Huang'
p552
I1
sS'David Maxwell Chickering'
p553
I1
sS'Chun-Pai Yang'
p554
I2
sS'Michael Steinbach'
p555
I4
sS'Po-Wei Chan'
p556
I1
sS'Wen Jin'
p557
I1
sS'Gueorgi Kossinets'
p558
I2
sS'Melinda Han Williams'
p559
I1
sS'Kevin B. Pratt'
p560
I1
sS'Guy Flysher'
p561
I1
sS'Chen Chen 0022'
p562
I1
sS'Nikou G\xc3\xbcnnemann'
p563
I1
sS'Nishant Pandey'
p564
I1
sS'Sharat Chikkerur'
p565
I1
sS'Panos Y. Papalambros'
p566
I1
sS'G\xc3\xb6khan H. Bakir'
p567
I1
sS'Gunhee Kim'
p568
I3
sS'Luca Becchetti'
p569
I1
sS'Ameet Talwalkar'
p570
I1
sS'Sebasti\xc3\xa1n Moreno'
p571
I2
sS'Erich Schubert'
p572
I1
sS'Markus Ettl'
p573
I1
sS'Manish Gupta 0001'
p574
I1
sS'Xiaoqian Wang'
p575
I2
sS'Renchi Yang'
p576
I1
sS'Julien Perez'
p577
I1
sS'Zimu Zhou'
p578
I1
sS'Genady Ya. Grabarnik'
p579
I1
sS'Idan Szpektor'
p580
I1
sS'Joseph Sirosh'
p581
I1
sS'Yi Zhen'
p582
I2
sS'Brian D. Davison 0001'
p583
I2
sS'Alejandro Jaimes'
p584
I2
sS'Mario E. Inchiosa'
p585
I1
sS'Da-Wei Wang'
p586
I1
sS'Rajeev Rastogi'
p587
I2
sS'Frank McSherry'
p588
I1
sS'Yunlong Feng'
p589
I1
sS'Shen-Shyang Ho'
p590
I2
sS'Hongkun Zhao'
p591
I1
sS'Robert J. Baseman'
p592
I1
sS'Kevin Leyton-Brown'
p593
I1
sS'Chieh-Jan Mike Liang'
p594
I1
sS'David J. Hand'
p595
I1
sS'Li Tan'
p596
I1
sS'Edward Y. Chang'
p597
I1
sS'David Pardoe'
p598
I1
sS'Zhili Guo'
p599
I1
sS'Shiyu Wang'
p600
I1
sS'Takeshi Yamamuro'
p601
I1
sS'Rakshit Trivedi'
p602
I1
sS'Jennifer Helsby'
p603
I1
sS'Mingyang Zhang'
p604
I1
sS'Jonathan Koller'
p605
I1
sS'Gert R. G. Lanckriet'
p606
I2
sS'Ben Tan'
p607
I3
sS'Jie Li'
p608
I1
sS'Vilma Todri'
p609
I1
sS'Xuning Tang'
p610
I1
sS'Tianfu He'
p611
I1
sS'Rodney Tjoelker'
p612
I1
sS'Yuandong Tian'
p613
I1
sS'Thomas F. La Porta'
p614
I1
sS'Xiao Hu'
p615
I1
sS'Akshay Soni'
p616
I1
sS'Todd C. Mowry'
p617
I1
sS'Daniel Crabtree'
p618
I1
sS'Edward Raff'
p619
I1
sS'Padmini Srinivasan'
p620
I1
sS'Bin Zhao'
p621
I1
sS'Pankaj Mehra'
p622
I1
sS'Shuiwang Ji'
p623
I13
sS'Yasushi Sakurai'
p624
I6
sS'Yunzhe Jia'
p625
I1
sS'Paul A. Rejto'
p626
I1
sS'Jialin Zhang'
p627
I1
sS'Nicholas Jing Yuan'
p628
I3
sS'Yang Yu 0001'
p629
I1
sS'Thomas Kl\xc3\xbcpfel'
p630
I1
sS'Wei Dai'
p631
I2
sS'Stratis Ioannidis'
p632
I2
sS'Ugur Demiryurek'
p633
I1
sS'Yuqiang Chen'
p634
I2
sS'Andrew Tomkins'
p635
I4
sS'Kohei Hayashi'
p636
I1
sS'Zhenshan Hou'
p637
I1
sS'Kuan-Ta Chen'
p638
I3
sS'Ramakrishnan Srikant'
p639
I1
sS'Shantanu Godbole'
p640
I4
sS'Yi Zhu'
p641
I1
sS'Sam Shah'
p642
I1
sS'James Notwell'
p643
I1
sS'Weicong Ding'
p644
I1
sS'Aditya Grover'
p645
I2
sS'Nele Verbiest'
p646
I1
sS'Jian Xu'
p647
I5
sS'K. Sel\xc3\xa7uk Candan'
p648
I2
sS'Yu-Yang Huang'
p649
I1
sS'Zhou Zhao'
p650
I1
sS'Timothy P. Hanratty'
p651
I1
sS'Vivek Ramavajjala'
p652
I1
sS'Krishnan Ramnath'
p653
I1
sS'Guan Yu'
p654
I1
sS'Quan Lin'
p655
I1
sS'Marzyeh Ghassemi'
p656
I1
sS'Hiroshi Murata'
p657
I2
sS'Andy Schlaikjer'
p658
I1
sS'Guy Shaked'
p659
I1
sS'Claudio Lucchese'
p660
I1
sS'Adi Omari'
p661
I1
sS'Daniel Ramage'
p662
I1
sS'Peter Lindstrom'
p663
I1
sS'Omer Barkol'
p664
I1
sS'Snigdhansu Chatterjee'
p665
I2
sS'Jon M. Kleinberg'
p666
I10
sS'Anil K. Jain'
p667
I2
sS'Jan Van Haaren'
p668
I1
sS'Li Wan'
p669
I3
sS'Shivam Tripathi'
p670
I2
sS'Tianyi Zhou'
p671
I2
sS'Joe Roth'
p672
I1
sS'Jinha Kim'
p673
I2
sS'Joseph Fernandez'
p674
I1
sS'Aman Agarwal'
p675
I1
sS'Daniel Silva'
p676
I1
sS'James A. Thomson'
p677
I1
sS'Xinfan Meng'
p678
I1
sS'William Haltom'
p679
I1
sS'Peter Wonka'
p680
I3
sS'Yongbo Zeng'
p681
I1
sS'Laurent Charlin'
p682
I1
sS'Evangelos E. Papalexakis'
p683
I4
sS'Lei Zhang 0016'
p684
I1
sS'Shrikant Kashyap'
p685
I1
sS'Salvatore Ruggieri'
p686
I3
sS'Salem Haykal'
p687
I1
sS'Vikas Bahirwani'
p688
I1
sS'Brent R. Cooley'
p689
I1
sS'Bilson J. L. Campana'
p690
I2
sS'Longfei Li'
p691
I1
sS'Hui Qian'
p692
I1
sS'Rares Vernica'
p693
I1
sS'Aravind Srinivasan'
p694
I1
sS'Yuichi Imanaka'
p695
I1
sS'Kevin Bache'
p696
I1
sS'Jie Song'
p697
I1
sS'Fuzheng Zhang'
p698
I1
sS'Kamin Whitehouse'
p699
I1
sS'Jing Peng'
p700
I1
sS'Xiaoyi Li'
p701
I1
sS'Seung-Taek Park'
p702
I2
sS'Varun R. Embar'
p703
I2
sS'Flavio Paiva Junqueira'
p704
I1
sS'Kanishka Bhaduri'
p705
I1
sS'Ramana Rao Kompella'
p706
I1
sS'Eugene J. Shekita'
p707
I1
sS'Zhefeng Wang'
p708
I1
sS'Xuerui Wang'
p709
I2
sS'Brian Sullivan'
p710
I1
sS'Sandeep Pandey'
p711
I3
sS'XianXing Zhang'
p712
I1
sS'Jianping Zhang'
p713
I2
sS'Maria Luisa Sapino'
p714
I1
sS'Yiming Ma'
p715
I3
sS'Jesse Davis'
p716
I1
sS'Deepak Vasisht'
p717
I1
sS'Quan Yuan'
p718
I7
sS'Kaixuan Zhang'
p719
I1
sS'Claude Castelluccia'
p720
I1
sS'Geoffrey J. Gordon'
p721
I1
sS'Caroline Lo'
p722
I1
sS'Siau-Cheng Khoo'
p723
I2
sS'Yun Fu 0001'
p724
I2
sS'Vincent C. S. Lee'
p725
I1
sS'Alessandro Epasto'
p726
I3
sS'Liyu Dou'
p727
I1
sS'Xinran Xu'
p728
I1
sS'Trivikraman Thampy'
p729
I1
sS'Ya-Ju Fan'
p730
I1
sS'William Morgan'
p731
I1
sS'Pratanu Roy'
p732
I1
sS'Chuishi Meng'
p733
I1
sS'Binbin Li'
p734
I1
sS'David A. McGrew'
p735
I1
sS'Foster J. Provost'
p736
I13
sS'Brigitte Boden'
p737
I1
sS'Suju Rajan'
p738
I2
sS'Jose Medina'
p739
I1
sS'Richard Harvey 0002'
p740
I1
sS'Paul Breimyer'
p741
I1
sS'Younghun Kim'
p742
I1
sS'Zhen Wen'
p743
I2
sS'Ying Wei'
p744
I2
sS'Romesh G. Abeysuriya'
p745
I1
sS'Tam T. Nguyen'
p746
I1
sS'Dorothea Wiesmann'
p747
I2
sS'Mojtaba Kadkhodaie'
p748
I1
sS'Brett Adams'
p749
I1
sS'Ari Gesher'
p750
I1
sS'Wim Mees'
p751
I1
sS'Laurent Amsaleg'
p752
I1
sS'Ren\xc3\xa9e J. Miller'
p753
I1
sS'Pradheep Elango'
p754
I2
sS'Sherry Emery'
p755
I1
sS'Pei Zhang'
p756
I1
sS'Hamid Dadkhahi'
p757
I1
sS'Diane J. Cook'
p758
I4
sS'Shuangfei Zhai'
p759
I1
sS'John Hutchinson'
p760
I1
sS'Sumit Chopra'
p761
I1
sS'Onno Zoeter'
p762
I1
sS'Rob Fergus'
p763
I1
sS'Jeff Achtermann'
p764
I1
sS'Jianbo Yang'
p765
I1
sS'Ashish Rastogi'
p766
I1
sS'Nikhil Rao'
p767
I1
sS'Jianfei Wang'
p768
I1
sS'Ming Zhang 0004'
p769
I2
sS'Yunzhang Zhu'
p770
I2
sS'Huayu Li'
p771
I4
sS'Addhyan Pandey'
p772
I1
sS'Kui Yu'
p773
I3
sS'V\xc3\xadtor Santos Costa'
p774
I1
sS'Saeed Alaei'
p775
I2
sS'Monica Locatelli'
p776
I1
sS'Henrik Gro\xc3\x9fkreutz'
p777
I1
sS'Lei Chen'
p778
I1
sS'Shiyu Chang'
p779
I2
sS'Dhiman Barman'
p780
I1
sS'Neera Agarwal'
p781
I1
sS'Jianxi Gao'
p782
I1
sS'Wei Shen'
p783
I2
sS'Chris Jermaine'
p784
I2
sS'Suleiman A. Khan'
p785
I1
sS'Ya-Wen Teng'
p786
I1
sS'Keqian Li'
p787
I2
sS'Mondher Maddouri'
p788
I1
sS'Haifeng Chen'
p789
I3
sS'Richard Sproat'
p790
I1
sS'Eric P. Xing'
p791
I16
sS'Aleksi Hartikainen'
p792
I1
sS'Zihan Tan'
p793
I1
sS'Taifeng Wang'
p794
I2
sS'Andrea Piscitello'
p795
I1
sS'Benjamin Paul Chamberlain'
p796
I1
sS'Quanzeng You'
p797
I1
sS'Masashi Sugiyama'
p798
I1
sS'Hang Qi'
p799
I1
sS'Kazuto Yamashita'
p800
I1
sS'Chao Shen'
p801
I4
sS'Julien Etienne'
p802
I1
sS'David Norton'
p803
I1
sS'Arda Antikacioglu'
p804
I1
sS'Yuxiong He'
p805
I1
sS'Zahra Ahmadi'
p806
I1
sS'Yusheng Xie'
p807
I2
sS'Liang Xiang'
p808
I1
sS'Vitaly Shmatikov'
p809
I2
sS'Jie Yang'
p810
I1
sS'John Ellenberger'
p811
I1
sS'Carl Lagoze'
p812
I1
sS'Kamalakar Karlapalem'
p813
I1
sS'Dean Cerrato'
p814
I1
sS'Kevin English'
p815
I1
sS'Jian Pei'
p816
I15
sS'Takeshi Kurashima'
p817
I1
sS'Leonardo Filipe Rodrigues Ribeiro'
p818
I1
sS'Jun Zhou'
p819
I1
sS'Abhinav Kumar'
p820
I1
sS'Weijie Ding'
p821
I1
sS'Meng-Fen Chiang'
p822
I1
sS'Luyi Mo'
p823
I1
sS'Emre Yilmaz'
p824
I1
sS'Evan Kodra'
p825
I1
sS'Gang Wu'
p826
I1
sS'Bin Fu'
p827
I1
sS'Xu Ling'
p828
I1
sS'Wei Ye'
p829
I3
sS'Zhaonan Sun'
p830
I1
sS'Ni Lao'
p831
I4
sS'Stavros Sintos'
p832
I1
sS'Rodrigo Acuna-Agost'
p833
I1
sS'Kevin A. Roundy'
p834
I2
sS'Pedro Chahuara'
p835
I1
sS'Kazuo Aoyama'
p836
I1
sS'Evangelia Christakopoulou'
p837
I1
sS'Seinjuti Chakraborty'
p838
I1
sS'Harald Piringer'
p839
I1
sS'Vandana Sreedharan'
p840
I1
sS'Gustavo E. A. P. A. Batista'
p841
I3
sS'Fabrizio Silvestri'
p842
I2
sS'Rahul Pandey'
p843
I1
sS'Tam\xc3\xa1s Sarl\xc3\xb3s'
p844
I1
sS'Zhenjie Zhang'
p845
I1
sS'Sergei Vassilvitskii'
p846
I2
sS'Xiang Ren'
p847
I6
sS'Kuifei Yu'
p848
I1
sS'Jill Freyne'
p849
I1
sS'Chun-Liang Li'
p850
I2
sS'Tianyi Wu'
p851
I1
sS'Laura Wynter'
p852
I1
sS'Yehuda Naveh'
p853
I1
sS'David Page'
p854
I2
sS'Shounak Gore'
p855
I1
sS'Yue Qu'
p856
I1
sS'Bo Kang'
p857
I1
sS'Lawrence A. Donehower'
p858
I2
sS'Xiaolong Li'
p859
I1
sS'Sheng Wang'
p860
I2
sS'Ping Zhang'
p861
I2
sS'Ali Vanderveld'
p862
I1
sS'Rose Yu'
p863
I1
sS'Jose D. Contreras'
p864
I1
sS'Zhoujun Li'
p865
I2
sS'Alan Green'
p866
I1
sS'Dewei Bao'
p867
I1
sS'Joshua Jones'
p868
I1
sS'Xiaowei Jia'
p869
I1
sS'Lin Yan'
p870
I1
sS'Dongyi Ye'
p871
I1
sS'Steven Euijong Whang'
p872
I1
sS'Mayank Singh'
p873
I1
sS'Haibing Lu'
p874
I1
sS'Jennifer T. Chayes'
p875
I1
sS'Robert M. Rolfe'
p876
I1
sS'Giulio Rossetti'
p877
I1
sS'Wayne Xin Zhao'
p878
I2
sS'Gerhard Weikum'
p879
I3
sS'Phuong Nguyen'
p880
I1
sS'Konstantina Christakopoulou'
p881
I2
sS'John Chi-Shing Lui'
p882
I1
sS'Shan You'
p883
I1
sS'Myunghwan Kim 0002'
p884
I1
sS'Serge J. Belongie'
p885
I1
sS'Evgeniy Gabrilovich'
p886
I3
sS'Tomoharu Iwata'
p887
I5
sS'David Newman'
p888
I2
sS'Bao-Hong Shen'
p889
I1
sS'Sreenivas Gollapudi'
p890
I3
sS'Robert Kleinberg'
p891
I2
sS'Yue Lu'
p892
I3
sS'Francesca Spezzano'
p893
I1
sS'Lidan Wang'
p894
I2
sS'Jeonghee Kim'
p895
I1
sS'Anirban Majumder'
p896
I1
sS'Yu Han'
p897
I1
sS'Jean Daniel Co\xc3\xafsson'
p898
I1
sS'Themis Palpanas'
p899
I2
sS'Ori Stitelman'
p900
I4
sS'Masaru Kitsuregawa'
p901
I2
sS'Dipak Gupta'
p902
I1
sS'Lynn Ang'
p903
I1
sS'Yu Sun'
p904
I1
sS'Frank Hutter'
p905
I1
sS'Tamara G. Kolda'
p906
I1
sS'William G. Hanley'
p907
I1
sS'Peter van der Putten'
p908
I1
sS'Renuka Sindhgatta'
p909
I2
sS'Taneli Mielik\xc3\xa4inen'
p910
I1
sS'Paul Thompson'
p911
I1
sS'Jing Li'
p912
I3
sS'Rajdeep Sarkar'
p913
I1
sS'Luis J. Salazar'
p914
I1
sS'Zvi Lotker'
p915
I1
sS'Khalid El-Arini'
p916
I4
sS'Jianliang Xu'
p917
I1
sS'Thomas Bernecker'
p918
I1
sS'Sri Subramaniam'
p919
I1
sS'Chiranjib Bhattacharyya'
p920
I1
sS'William T. Young'
p921
I1
sS'Carlo Meletti'
p922
I1
sS'Qiang Fu'
p923
I2
sS'Benjamin Arai'
p924
I1
sS'Curtis R. Pickering'
p925
I2
sS'Michal Laclavik'
p926
I1
sS'Pei Yang'
p927
I2
sS'Luo Si'
p928
I3
sS'Divesh Srivastava'
p929
I2
sS'Roelof van Zwol'
p930
I1
sS'Dit-Yan Yeung'
p931
I4
sS'Naonori Ueda'
p932
I5
sS'Ishrar Hussain'
p933
I1
sS'Surajit Chaudhuri'
p934
I1
sS'Tantan Liu'
p935
I1
sS'Dietmar M\xc3\xbcller'
p936
I1
sS'Kostas Tsichlas'
p937
I1
sS'Guimei Liu'
p938
I4
sS'Konstantina Palla'
p939
I1
sS'Charu Aggarwal'
p940
I4
sS'Raphael Hoffmann'
p941
I1
sS'Lei Yuan'
p942
I7
sS'Feng Liang'
p943
I1
sS'David Chan'
p944
I1
sS'Weifeng Lv'
p945
I1
sS'Nemanja Spasojevic'
p946
I2
sS'Ankush Khandelwal'
p947
I1
sS'Hao Wang'
p948
I1
sS'Yushi Jing'
p949
I1
sS'Peixiang Zhao'
p950
I1
sS'Lawrence B. Holder'
p951
I1
sS'Erich Kummerfeld'
p952
I1
sS'M. Shahriar Hossain'
p953
I2
sS'Wei Wei'
p954
I1
sS'Micah Alpern'
p955
I1
sS'Ankit Agrawal'
p956
I3
sS'Alek Kolcz'
p957
I1
sS'Andreas Marfurt'
p958
I1
sS'Nasir Bhanpuri'
p959
I1
sS'Betul Ceran'
p960
I2
sS'Anna A. Shaverdian'
p961
I1
sS'Jia Li'
p962
I1
sS'Milos Hauskrecht'
p963
I1
sS'Jiayu Zhou'
p964
I10
sS'Yinyan Tan'
p965
I1
sS'Partha Pratim Talukdar'
p966
I1
sS'Jennifer G. Dy'
p967
I4
sS'Lawrence Carin'
p968
I3
sS'Manish Purohit'
p969
I1
sS'Gennady L. Andrienko'
p970
I1
sS'Michael Madaio'
p971
I1
sS'Mennan G\xc3\xbcder'
p972
I1
sS'Vanja Josifovski'
p973
I5
sS'Lyle H. Ungar'
p974
I1
sS'Teerayut Horanont'
p975
I1
sS'Jiawei Rong'
p976
I1
sS'Giuseppe Manco'
p977
I1
sS'Jinoh Oh'
p978
I3
sS'Yanping Chen 0005'
p979
I3
sS'Benjamin Moseley'
p980
I1
sS'Engelbert Mephu Nguifo'
p981
I1
sS'Cho-Jui Hsieh'
p982
I7
sS'Makoto Iwayama'
p983
I1
sS'Geet Duggal'
p984
I1
sS'Noseong Park'
p985
I1
sS'Masahiro Kuroda'
p986
I1
sS'Chenglong Wang'
p987
I1
sS'Zhidan Feng'
p988
I1
sS'Thomas Vandal'
p989
I1
sS'Yunye Jin'
p990
I1
sS'Murali Ramanathan'
p991
I1
sS'Henning Hohnhold'
p992
I1
sS'Leilei Sun'
p993
I5
sS'Mehrdad Farajtabar'
p994
I3
sS'Tina Eliassi-Rad'
p995
I7
sS'Kaustav Das'
p996
I2
sS'Cheng-Wei Wu'
p997
I3
sS'Sheide Chammas'
p998
I1
sS'Janani Kalyanam'
p999
I1
sS'Weinan Zhang'
p1000
I6
sS'Frank Seide'
p1001
I1
sS'Michael R. Lyu'
p1002
I1
sS'Hera Y. He'
p1003
I1
sS'Nitesh V. Chawla'
p1004
I9
sS'Benyah Shaparenko'
p1005
I2
sS'Don M. Tucker'
p1006
I1
sS'Carlos Castillo 0001'
p1007
I5
sS'Eli Upfal'
p1008
I6
sS'Vassilis J. Tsotras'
p1009
I1
sS'Yuanyuan Tian'
p1010
I1
sS'Narayan Bhamidipati'
p1011
I2
sS'Shalini Ghosh'
p1012
I1
sS'Hanan Samet'
p1013
I1
sS'Dean Oliver'
p1014
I1
sS'Robert S. Sinkovits'
p1015
I1
sS'Arkady B. Zaslavsky'
p1016
I1
sS'Yanwei Yu'
p1017
I1
sS'Rui Cai'
p1018
I3
sS'Zhipeng Huang'
p1019
I1
sS'Randall S. Burd'
p1020
I1
sS'Kai Huang'
p1021
I1
sS'Haijun Feng'
p1022
I1
sS'Zhaochun Ren'
p1023
I1
sS'Lily Guo'
p1024
I1
sS'Edoardo M. Airoldi'
p1025
I1
sS'Bor-Yiing Su'
p1026
I1
sS'Murat A. Erdogdu'
p1027
I1
sS'Wei Tong'
p1028
I1
sS'Linlin Shen'
p1029
I1
sS'Michael Schwarz'
p1030
I1
sS'S. Momina Tabish'
p1031
I1
sS'Matt Paduano'
p1032
I1
sS'Dawei Zhou'
p1033
I1
sS'Andres Mu\xc3\xb1oz Medina'
p1034
I1
sS'Makoto Nakatsuji'
p1035
I2
sS'John C. Platt'
p1036
I1
sS'Edmond Chow'
p1037
I1
sS'Patrick Loiseau'
p1038
I1
sS'Eran Yahav'
p1039
I1
sS'Aron Culotta'
p1040
I1
sS'Dawei Yin'
p1041
I4
sS'Jason Weston'
p1042
I1
sS'Haesun Park'
p1043
I3
sS'Peiji Chen'
p1044
I1
sS'Vijay Bharadwaj'
p1045
I1
sS'Shenghuo Zhu'
p1046
I4
sS'Jeremy Kubica'
p1047
I1
sS'Yang Cheng'
p1048
I1
sS'Xiucheng Li'
p1049
I1
sS'Halid Ziya Yerebakan'
p1050
I1
sS'Andrew W. Moore 0001'
p1051
I1
sS'Shyamsundar Rajaram'
p1052
I3
sS'Peter Szolovits'
p1053
I2
sS'Tuan M. V. Le'
p1054
I1
sS'Hossein Ahmadi'
p1055
I1
sS'Yury Bubnov'
p1056
I1
sS'Alessio Conte'
p1057
I1
sS'Tias Guns'
p1058
I2
sS'Filippo Menczer'
p1059
I1
sS'Jiliang Tang'
p1060
I7
sS'Chun-Ta Lu'
p1061
I2
sS'Wenxing Hong'
p1062
I1
sS'Siegfried Nijssen'
p1063
I3
sS'Chang Wan'
p1064
I1
sS'Zhe Fan'
p1065
I1
sS'Wenbo Li'
p1066
I1
sS'Hiroshi Nakagawa'
p1067
I6
sS'Jiang-Ming Yang'
p1068
I1
sS'Cary Dehing-Oberije'
p1069
I1
sS'James Appleton'
p1070
I1
sS'Eamonn J. Keogh'
p1071
I15
sS'Sanjay Purushotham'
p1072
I1
sS'Brendan Andrew Duncan'
p1073
I1
sS'William B. March'
p1074
I3
sS'Bernhard Pfahringer'
p1075
I5
sS'Davis W. Blalock'
p1076
I1
sS'James J. Bennett'
p1077
I1
sS'Gabriel Pui Cheong Fung'
p1078
I1
sS'Mustafa Coskun'
p1079
I1
sS'D. Sculley'
p1080
I7
sS'Matthew R. Scott'
p1081
I1
sS'Ramesh Baral'
p1082
I1
sS'Kazuya Nakagawa'
p1083
I1
sS'Xia Ning'
p1084
I1
sS'Ron Kohavi'
p1085
I6
sS'Jean Bolot'
p1086
I2
sS'Vladimir Pavlovic'
p1087
I1
sS'Aleksandar Bojchevski'
p1088
I1
sS'Michalis Vazirgiannis'
p1089
I1
sS'Gang Liu'
p1090
I1
sS'Felix Mende'
p1091
I1
sS'Lei Chen 0002'
p1092
I5
sS'Bo Chen'
p1093
I1
sS'Geng Li'
p1094
I1
sS'Hari Sundaram'
p1095
I1
sS'Jiexun Xu'
p1096
I1
sS'Sharad Sapra'
p1097
I1
sS'Guodong Liu'
p1098
I1
sS'D. Sivakumar'
p1099
I1
sS'Yin Wang'
p1100
I1
sS'Ashwin Sridharan'
p1101
I1
sS'Joey Velez-Ginorio'
p1102
I1
sS'Jie Zhu'
p1103
I1
sS'Neale Hightower'
p1104
I1
sS'Chenhao Tan'
p1105
I2
sS'Shahram Ebadollahi'
p1106
I2
sS'Sucheta Soundarajan'
p1107
I1
sS'B\xc3\xa1lint Tillman'
p1108
I1
sS'Tihua Duan'
p1109
I1
sS'Michael Wasikowski'
p1110
I1
sS'Brett W. Bader'
p1111
I1
sS'Andy Prapanca'
p1112
I1
sS'C\xc3\xa9dric Archambeau'
p1113
I2
sS'John Komoroske'
p1114
I1
sS'Luis A. Nunes Amaral'
p1115
I1
sS'Bhanu Chandra Vattikonda'
p1116
I1
sS'Anlei Dong'
p1117
I1
sS'Gao Huang'
p1118
I1
sS'Conrad Lee'
p1119
I1
sS'Xindong Wu'
p1120
I5
sS'James Swee Chuan Tan'
p1121
I1
sS'Riccardo Torlone'
p1122
I1
sS'Michael Mathioudakis'
p1123
I1
sS'Abdol-Hossein Esfahanian'
p1124
I1
sS'Alan Ritter'
p1125
I1
sS'Yongkai Wu'
p1126
I1
sS'Ruben Sipos'
p1127
I2
sS'Deng Cai'
p1128
I3
sS'Henry G. Goldberg'
p1129
I2
sS'Kivanc M. Ozonat'
p1130
I1
sS'Ziwei Zhang'
p1131
I1
sS'Xilun Chen'
p1132
I1
sS'Marina Ganea'
p1133
I1
sS'Ishadutta Yadav'
p1134
I1
sS'Andrew B. Goldberg'
p1135
I1
sS'Michael Mampaey'
p1136
I1
sS'Min-Ling Zhang'
p1137
I3
sS'Aviv Yehezkel'
p1138
I1
sS'Feng Chen 0001'
p1139
I8
sS'Konstantin Bauman'
p1140
I1
sS'Rabie Saidi'
p1141
I1
sS'Zijian Zheng'
p1142
I1
sS'Chih-Hua Tai'
p1143
I3
sS'Himanshu Jain'
p1144
I1
sS'Vachik S. Dave'
p1145
I1
sS'Anne Kao'
p1146
I1
sS'Gianluca Antonini'
p1147
I1
sS'Abhay Harpale'
p1148
I1
sS'Srikanth Jagabathula'
p1149
I1
sS'Inci M. Baytas'
p1150
I3
sS'Claudia Perlich'
p1151
I10
sS'Fengzhen Tang'
p1152
I1
sS'Lei Zhang'
p1153
I3
sS'Guangyu Zhu'
p1154
I2
sS'Jie Zhou 0001'
p1155
I1
sS'Christie M. Buchovecky'
p1156
I1
sS'Vani Mandava'
p1157
I1
sS'Ravi Vijayaraghavan'
p1158
I1
sS'Steve Vejcik'
p1159
I2
sS'Benny Kimelfeld'
p1160
I1
sS'Quanshi Zhang'
p1161
I2
sS'Tu-Chun Yin'
p1162
I2
sS'Paulo Trezentos'
p1163
I1
sS'P\xc3\xa1draig Cunningham'
p1164
I1
sS'Paul Barford'
p1165
I2
sS'Sharad Goel'
p1166
I1
sS'Jing Xiao'
p1167
I1
sS'Li Zheng'
p1168
I4
sS'Francisco Loaiza-Lemos'
p1169
I1
sS'Tao-Hsuan Chang'
p1170
I1
sS'George Forman'
p1171
I3
sS'Kunapareddy Chiranjeevi'
p1172
I1
sS'Yanting Zhao'
p1173
I1
sS'Sanjay K. Mamidipalli'
p1174
I1
sS'Holger H. Hoos'
p1175
I1
sS'Michael Weiler'
p1176
I1
sS'Ting Wang'
p1177
I3
sS'Haipeng Chen'
p1178
I1
sS'Jeffrey Junfeng Pan'
p1179
I1
sS'Lei Xie'
p1180
I1
sS'Leon Constantin Fopa'
p1181
I1
sS'Taehoon Kim'
p1182
I1
sS'Shuhei Iitsuka'
p1183
I1
sS'Rinkal Patel'
p1184
I2
sS'Jundong Li'
p1185
I1
sS'Yoshihiro Yamanishi'
p1186
I2
sS'Venkat Lakshmi'
p1187
I1
sS'Xiaohui Bei'
p1188
I1
sS'Barry Y. Chen'
p1189
I1
sS'Anthony Chong'
p1190
I1
sS'Doug Sharp'
p1191
I1
sS'Rajesh C. Sachdeo'
p1192
I1
sS'Matt McNair'
p1193
I1
sS'Gal Chechik'
p1194
I1
sS'Yu Shi'
p1195
I2
sS'Benjamin Solnik'
p1196
I1
sS'Wenzhao Lian'
p1197
I1
sS'Sandy Moens'
p1198
I2
sS'Yanan Bao'
p1199
I1
sS'Subhabrata Mukherjee'
p1200
I2
sS'Linhong Zhu'
p1201
I2
sS'Dong Zhang'
p1202
I1
sS'Debraj GuhaThakurta'
p1203
I1
sS'Yashar Ganjali'
p1204
I1
sS'H. Brendan McMahan'
p1205
I1
sS'Sanjay Ranka'
p1206
I5
sS'Behzad Golshan'
p1207
I3
sS'Yu-En Lu'
p1208
I1
sS'Shenghua Bao'
p1209
I1
sS'Yu Chen'
p1210
I1
sS'Albert Marinez'
p1211
I1
sS'Ira Assent'
p1212
I2
sS'Yoshiyuki Kobayashi'
p1213
I1
sS'Shajith Ikbal'
p1214
I1
sS'Kunihisa Kobayashi'
p1215
I1
sS'Bruno D. Abrahao'
p1216
I2
sS'Supratim Deb'
p1217
I1
sS'Yijun Zhao'
p1218
I1
sS'Richard Mueller'
p1219
I1
sS'Robert J. Durrant'
p1220
I1
sS'Qingwei Lin'
p1221
I1
sS'Jaime Arredondo'
p1222
I2
sS'Derek Lin'
p1223
I1
sS'Gy\xc3\xb6rgy J. Simon'
p1224
I3
sS'Yosuke Yano'
p1225
I1
sS'Zongyang Ma'
p1226
I1
sS'Allen Lin'
p1227
I1
sS'Jian Tang'
p1228
I3
sS'Dirk Hecker'
p1229
I1
sS'Somit Gupta'
p1230
I1
sS'Jack Chongjie Xue'
p1231
I1
sS'Zhe Chen'
p1232
I1
sS'Cane Wing-ki Leung'
p1233
I1
sS'Yu-Chin Juan'
p1234
I2
sS'Yang Mu'
p1235
I1
sS'Zhiang Wu 0001'
p1236
I2
sS'Fabrizio Costa'
p1237
I1
sS'Vincenzo Nicosia'
p1238
I1
sS'Xiangyu Chen'
p1239
I1
sS'Frizo A. L. Janssens'
p1240
I1
sS'Corinna Cortes'
p1241
I1
sS'Ingmar Weber'
p1242
I1
sS'John F. Elder IV'
p1243
I1
sS'Liang Tang'
p1244
I6
sS'David S. Vogel'
p1245
I1
sS'Kilian Q. Weinberger'
p1246
I4
sS'Zhifeng Hao'
p1247
I1
sS'Shuai Huang'
p1248
I1
sS'Ashish Gupta'
p1249
I1
sS'Duen Horng Chau'
p1250
I5
sS'Yoshihide Sekimoto'
p1251
I2
sS'Matthew Burgess'
p1252
I1
sS'Junfu Yin'
p1253
I1
sS'Nathan Eagle'
p1254
I1
sS'Li Chen 0009'
p1255
I1
sS'Enhua Tan'
p1256
I1
sS'Neoklis Polyzotis'
p1257
I1
sS'Geoffrey Barbier'
p1258
I1
sS'Nicolas Grislain'
p1259
I1
sS'Bettina Konte'
p1260
I2
sS'Gopikrishnan Maniachari'
p1261
I1
sS'Zhanpeng Fang'
p1262
I1
sS'Guojie Song'
p1263
I2
sS'Shang-Hua Teng'
p1264
I1
sS'Chris Pal'
p1265
I2
sS'Jon Hills'
p1266
I1
sS'Ching Law'
p1267
I1
sS'Gowtham Atluri'
p1268
I2
sS'Masakazu Ishihata'
p1269
I1
sS'Wayne Thompson'
p1270
I1
sS'Jean-Baptiste Rouquier'
p1271
I1
sS'Licia Capra'
p1272
I1
sS'Xu Chen'
p1273
I2
sS'Qixing Huang'
p1274
I1
sS'Vahab S. Mirrokni'
p1275
I3
sS'Ra\xc3\xbal Santos-Rodriguez'
p1276
I1
sS'Okke Schrijvers'
p1277
I1
sS'Sarah Tavel'
p1278
I1
sS'Egemen Tas'
p1279
I1
sS'Ravi Kumar 0001'
p1280
I16
sS'Ming Li'
p1281
I1
sS'Eman Abdu'
p1282
I1
sS'Caroline Suen'
p1283
I1
sS'Matthew Eric Otey'
p1284
I1
sS'Hongfei Li'
p1285
I1
sS'Pankaj K. Agarwal'
p1286
I1
sS'David S. Matteson'
p1287
I1
sS'Xutao Li'
p1288
I1
sS'Edith Law'
p1289
I1
sS'Xiaojun Chang'
p1290
I1
sS'Mu-Chu Lee'
p1291
I1
sS'Winter A. Mason'
p1292
I1
sS'Thierry Denoeux'
p1293
I1
sS'Naren Sundaravaradan'
p1294
I1
sS'Devdatt P. Dubhashi'
p1295
I1
sS'Xiaowen Ding'
p1296
I1
sS'Zhenxing Wang'
p1297
I1
sS'Chaochao Chen'
p1298
I1
sS'Bethany Hoogs'
p1299
I1
sS'Tamraparni Dasu'
p1300
I2
sS'Gu Xu'
p1301
I1
sS'Randall A. Lewis'
p1302
I1
sS'Conrad Murphy'
p1303
I1
sS'Dejing Dou'
p1304
I1
sS'Jae-Gil Lee 0001'
p1305
I1
sS'Lillian Lee'
p1306
I1
sS'Philip K. Chan'
p1307
I1
sS'Bin Xia'
p1308
I1
sS'Martin Atkinson'
p1309
I1
sS'Aharon Bar-Hillel'
p1310
I1
sS'Kewei Cheng'
p1311
I1
sS'Simon Baker'
p1312
I1
sS'Ines F\xc3\xa4rber'
p1313
I3
sS'Xin Yao 0001'
p1314
I1
sS'Marta C. Gonzalez'
p1315
I1
sS'Yu Zhu'
p1316
I1
sS'Rex Wang'
p1317
I1
sS'Shusen Liu'
p1318
I1
sS'Einat Kermany'
p1319
I1
sS'Xinran He'
p1320
I3
sS'Xiuyao Song'
p1321
I3
sS'Ninghui Li'
p1322
I1
sS'Han Jiang'
p1323
I1
sS'Mika Ylianttila'
p1324
I1
sS'Hannah Kim'
p1325
I1
sS'Tao Ye'
p1326
I1
sS'In\xc3\xa9s Mar\xc3\xada Galv\xc3\xa1n'
p1327
I1
sS'Teresa Wu'
p1328
I3
sS'Supaporn Erjongmanee'
p1329
I1
sS'Dale A. Brajczuk'
p1330
I1
sS'Jian Fan'
p1331
I1
sS'John Miller'
p1332
I1
sS'Suresh Iyengar'
p1333
I1
sS'Zhaojun Zhang'
p1334
I1
sS'David Andrzejewski'
p1335
I1
sS'Guanhua Yan'
p1336
I1
sS'Neal E. Young'
p1337
I2
sS'Daniel Keren'
p1338
I3
sS'Wei Geng'
p1339
I1
sS'Christopher Leckie'
p1340
I1
sS'Jingxuan Li'
p1341
I2
sS'Rafiqul Islam Maruf'
p1342
I1
sS'Michal Rosen-Zvi'
p1343
I2
sS'Fedor Borisyuk'
p1344
I2
sS'Bruce R. Schatz'
p1345
I1
sS'Paul N. Bennett'
p1346
I1
sS'Edward Shen'
p1347
I1
sS'Chao Che'
p1348
I1
sS'Pengnian Wang'
p1349
I2
sS'Chih-Ya Shen'
p1350
I2
sS'Robert Horton'
p1351
I1
sS'Yizhou Sun'
p1352
I13
sS'Peter A. Chew'
p1353
I1
sS'Elena Ikonomovska'
p1354
I1
sS'Rina Panigrahy'
p1355
I1
sS'Akira Tajima'
p1356
I2
sS'Grigorios Loukides'
p1357
I1
sS'Safa Alai'
p1358
I1
sS'Enis Ceyhun Alp'
p1359
I1
sS'Honglei Guo'
p1360
I1
sS'David H. Reiley'
p1361
I2
sS'Jianfeng Gao'
p1362
I1
sS'Dragomir Yankov'
p1363
I1
sS'Ashish Kapoor'
p1364
I3
sS'Gustavo Batista'
p1365
I1
sS'Ali Pinar'
p1366
I1
sS'Marta Arias'
p1367
I1
sS'Markus Krause'
p1368
I1
sS'Chang Xu'
p1369
I2
sS'Gabriela Moise'
p1370
I1
sS'H. V. Jagadish'
p1371
I3
sS'Chia-Tung Kuo'
p1372
I1
sS'Josep Lluis Berral'
p1373
I1
sS'Saurav Ghosh'
p1374
I1
sS'Souvik Ghosh'
p1375
I3
sS'Yu Cao'
p1376
I1
sS'Bin Gao 0001'
p1377
I2
sS'Ivan Davtchev'
p1378
I1
sS'Jingyuan Yang'
p1379
I1
sS'Maziar Sanjabi'
p1380
I1
sS'Xin Dong'
p1381
I1
sS'Dong Yu'
p1382
I2
sS'Aneta Takhtamysheva'
p1383
I1
sS'Justin Brickell'
p1384
I1
sS'Pankaj Gupta'
p1385
I1
sS'Alessandro Flammini'
p1386
I1
sS'Garnet J. Vaz'
p1387
I1
sS'Weng-Keen Wong'
p1388
I2
sS'Simon Zhang'
p1389
I1
sS'Rob Hall'
p1390
I1
sS'Shuyi Zheng'
p1391
I2
sS'Oguz Kaya'
p1392
I1
sS'Tahereh Babaie'
p1393
I1
sS'Feng Xu'
p1394
I1
sS'Massimo Poesio'
p1395
I1
sS'Aisling Kelliher'
p1396
I1
sS'Guanfeng Liang'
p1397
I1
sS'Rajesh Anandan'
p1398
I1
sS'Ruiwen Zhang'
p1399
I1
sS'Kin Ung'
p1400
I1
sS'Xuan Song'
p1401
I2
sS'Richard D. Lawrence'
p1402
I6
sS'Guishi Deng'
p1403
I1
sS'Joel Nishimura'
p1404
I1
sS'Avinava Dubey'
p1405
I1
sS'Nagaraj Kota'
p1406
I3
sS'Yannet Interian'
p1407
I1
sS'Shivaram Venkataraman'
p1408
I1
sS'Jinyang Gao'
p1409
I2
sS'Bo Long'
p1410
I3
sS'Urvashi Khandelwal'
p1411
I1
sS'Cassandra Xia'
p1412
I1
sS'Ethan Thornburg'
p1413
I1
sS'Xin Chen'
p1414
I1
sS'Alejandro Veen'
p1415
I1
sS'Chunyang Liu'
p1416
I1
sS'Tushar Garg'
p1417
I1
sS'Naren Ramakrishnan'
p1418
I20
sS'Noriko Takaya'
p1419
I2
sS'Shuyang Lin'
p1420
I2
sS'Shankar Krishnan'
p1421
I1
sS'Ashish Agarwal'
p1422
I1
sS'Minh X. Hoang'
p1423
I1
sS'Qiang Zhang'
p1424
I3
sS'Wubai Zhou'
p1425
I4
sS'Henry R. Kranzler'
p1426
I1
sS'David L. Small'
p1427
I2
sS'Nurjahan Begum'
p1428
I1
sS'Chong Wang'
p1429
I2
sS'Geoff Lyon'
p1430
I1
sS'Pedro Henrique Calais Guerra'
p1431
I1
sS'Liat Ein-Dor'
p1432
I1
sS'Adith Swaminathan'
p1433
I1
sS'Assaf Schuster'
p1434
I4
sS'Carlos Scheidegger'
p1435
I1
sS'Leonardo C. da Rocha'
p1436
I1
sS'Yuntao Jia'
p1437
I1
sS'Jennifer Yates'
p1438
I1
sS'Xiaoying Gao'
p1439
I1
sS'Andrew L. Maas'
p1440
I1
sS'Naama Friedmann'
p1441
I1
sS'Sreenivas R. Sukumar'
p1442
I1
sS'Qin Zhang 0001'
p1443
I1
sS'\xc3\x89lisa Fromont'
p1444
I2
sS'Eric Rozier'
p1445
I1
sS'Jonathan Laserson'
p1446
I1
sS'James Caverlee'
p1447
I1
sS"Deirdre O'Brien"
p1448
I2
sS'Zhiyu Mo'
p1449
I1
sS'Panagiotis Papadimitriou 0002'
p1450
I2
sS'Vladan Radosavljevic'
p1451
I4
sS'Flip Korn'
p1452
I1
sS'Qi Li'
p1453
I7
sS'Sanjukta Bhowmick'
p1454
I1
sS'\xc3\x89ric Gaussier'
p1455
I1
sS'Ashok N. Srivastava'
p1456
I3
sS'Ian Davidson'
p1457
I14
sS'M. Brandon Westover'
p1458
I1
sS'Bhavani M. Thuraisingham'
p1459
I3
sS'Jin Yu'
p1460
I2
sS'Hanghang Tong'
p1461
I25
sS'Lukasz Lew'
p1462
I1
sS'Binbin Lin'
p1463
I2
sS'Ye Xu'
p1464
I1
sS'Qi Wang'
p1465
I1
sS'Arjun Mukherjee'
p1466
I2
sS'Weitao Duan'
p1467
I1
sS'Lubomir D. Bourdev'
p1468
I1
sS'Kan Ren'
p1469
I1
sS'Utkarsh Upadhyay'
p1470
I1
sS'S\xc3\xa9bastien Gu\xc3\xa9rif'
p1471
I1
sS'Jun Zhu'
p1472
I8
sS'Xintian Yang'
p1473
I2
sS'Tammy M. K. Cheng'
p1474
I1
sS'Milind R. Naphade'
p1475
I2
sS'Cuiping Li'
p1476
I2
sS'Andrew S. Lan'
p1477
I1
sS'Natali Ruchansky'
p1478
I1
sS'Anastasios Kyrillidis'
p1479
I1
sS'Huasha Zhao'
p1480
I2
sS'Vincent Schickel-Zuber'
p1481
I1
sS'Tao Li 0001'
p1482
I17
sS'Massih-Reza Amini'
p1483
I1
sS'Naiyan Wang'
p1484
I2
sS'Hang Su'
p1485
I2
sS'Yuan Yao 0001'
p1486
I3
sS'Chris J. Kuhlman'
p1487
I1
sS'Xiaoming Sun'
p1488
I1
sS'Rohit Chandra'
p1489
I1
sS'Clare R. Voss'
p1490
I2
sS'Sheng-Jun Huang'
p1491
I1
sS'Jin Shieh'
p1492
I1
sS'Hao Ye'
p1493
I1
sS'Cao Xiao'
p1494
I1
sS'Wei Han'
p1495
I1
sS'Bin Yang'
p1496
I1
sS'Victor B. Zordan'
p1497
I1
sS'Burak Yavuz'
p1498
I1
sS'Varun Aggarwal'
p1499
I3
sS'Erik Vee'
p1500
I2
sS'Nathan Srebro'
p1501
I3
sS'Zhuang Wang'
p1502
I2
sS'Xiangru Huang'
p1503
I2
sS'Burkay Orten'
p1504
I1
sS'Suk Hwan Lim'
p1505
I1
sS'Rajesh Kumar Ravi'
p1506
I1
sS'Longbing Cao'
p1507
I5
sS'Wynne Hsu'
p1508
I2
sS'Lichan Hong'
p1509
I1
sS'Hiroaki Shiokawa'
p1510
I2
sS'Yen-Ling Kuo'
p1511
I1
sS'Fanhua Shang'
p1512
I1
sS'David G. Andersen'
p1513
I1
sS'Qi Ding'
p1514
I1
sS'Matthias R\xc3\xbcdiger'
p1515
I1
sS'Daniel Newburger'
p1516
I1
sS'Amit Goyal'
p1517
I1
sS'Dmitriy Fradkin'
p1518
I3
sS'Yuzhou Zhang'
p1519
I1
sS'Mukund Narasimhan'
p1520
I1
sS'Florian Pinel'
p1521
I1
sS'Aris Gkoulalas-Divanis'
p1522
I1
sS'Eric Bruno'
p1523
I1
sS'Kishan Wimalawarne'
p1524
I1
sS'Jianwei Xie'
p1525
I1
sS'Yana Volkovich'
p1526
I1
sS'Giorgos Borboudakis'
p1527
I1
sS'Lingyang Chu'
p1528
I1
sS'Alborz Geramifard'
p1529
I1
sS'Xifeng Yan'
p1530
I11
sS'Hongxia Yang'
p1531
I4
sS'Matt Uyttendaele'
p1532
I1
sS'Jed Irvine'
p1533
I1
sS'W. Scott Spangler'
p1534
I3
sS'Takashi Washio'
p1535
I1
sS'Steven C. H. Hoi'
p1536
I2
sS'Sangyeon Lee'
p1537
I1
sS'Mohammad Taha Bahadori'
p1538
I6
sS'Ludmila Cherkasova'
p1539
I1
sS'Chengyu Dai'
p1540
I1
sS'Arun C. Surendran'
p1541
I1
sS'\xc3\x96zg\xc3\xbcr \xc3\x87etin'
p1542
I1
sS'Yung-Hsiang Lin'
p1543
I1
sS'Lei Ying'
p1544
I1
sS'Shawn Strande'
p1545
I1
sS'Enric Junqu\xc3\xa9 de Fortuny'
p1546
I1
sS'Julian Shun'
p1547
I1
sS'Robert Tibshirani'
p1548
I1
sS'Madhusudana V. S. Shashanka'
p1549
I1
sS'Wei Liu 0005'
p1550
I3
sS'Duncan Watts'
p1551
I1
sS'Wei Liu 0007'
p1552
I4
sS'Janette Lehmann'
p1553
I1
sS'Crystal Cody'
p1554
I1
sS'Li Zhang 0007'
p1555
I1
sS'Arik Friedman'
p1556
I1
sS'Guojun Gan'
p1557
I1
sS'Hasan \xc3\x87am'
p1558
I1
sS'Gang Fang'
p1559
I1
sS'Timm Jansen'
p1560
I2
sS'Stephan G\xc3\xbcnnemann'
p1561
I7
sS'Vasileios Iosifidis'
p1562
I1
sS'Hanjun Dai'
p1563
I1
sS'Zijin Zhao'
p1564
I1
sS'Juliette Aurisset'
p1565
I1
sS'Limin Yao'
p1566
I2
sS'Rui Ding'
p1567
I1
sS'Dongmei Zhang'
p1568
I1
sS'Jing Zhou'
p1569
I1
sS'Xian Zhang'
p1570
I1
sS'Wenjing Ma'
p1571
I2
sS'Matthew Conway'
p1572
I1
sS'Jahangir Mohammed'
p1573
I1
sS'Kunqing Xie'
p1574
I2
sS'Vinod Nair'
p1575
I1
sS'Fang Xie'
p1576
I1
sS'Qi Mao'
p1577
I1
sS'Abby Miller'
p1578
I1
sS'Evangelos E. Milios'
p1579
I2
sS'Sundar Dorai-Raj'
p1580
I1
sS'Pinar Yanardag'
p1581
I1
sS'Bobo Nick'
p1582
I1
sS'Bin Bi'
p1583
I1
sS'T. Ryan Hoens'
p1584
I1
sS'Shin-ichi Minato'
p1585
I1
sS'Bin Wu'
p1586
I3
sS'Jiangtao Ren'
p1587
I1
sS'Sibo Wang 0001'
p1588
I2
sS'Abhradeep Thakurta'
p1589
I1
sS'Kevin L\xc3\xbc'
p1590
I1
sS'Baolong Guo'
p1591
I1
sS'Chris Clifton'
p1592
I1
sS'Leandro Balby Marinho'
p1593
I1
sS'Mohammed Javeed Zaki'
p1594
I1
sS'Grigorios Tsoumakas'
p1595
I1
sS'Jingrui He'
p1596
I9
sS'Layne T. Watson'
p1597
I1
sS'Dinh Q. Phung'
p1598
I2
sS'Weizhong Zhang'
p1599
I1
sS'Jurgen Van Gael'
p1600
I1
sS'Ameya Raul'
p1601
I1
sS'Jingbo Shang'
p1602
I2
sS'Bruno Gon\xc3\xa7alves'
p1603
I1
sS'Kunal Mukerjee'
p1604
I1
sS'Li Dong'
p1605
I1
sS'Damien Sulla-Menashe'
p1606
I1
sS'Nigam Shah'
p1607
I1
sS'Xiaowei Xu'
p1608
I1
sS'Louise E. Moser'
p1609
I2
sS'Saara Hyv\xc3\xb6nen'
p1610
I1
sS'Ashton Anderson'
p1611
I2
sS'Ye Chen'
p1612
I5
sS'Honglak Lee'
p1613
I1
sS'Mehmet Koyut\xc3\xbcrk'
p1614
I1
sS'Sorelle A. Friedler'
p1615
I1
sS'Erisa Terolli'
p1616
I1
sS'Juanzi Li'
p1617
I2
sS'Zhuo Feng'
p1618
I1
sS'Yasuko Matsubara'
p1619
I4
sS'Vassilios S. Verykios'
p1620
I1
sS'Luis von Ahn'
p1621
I1
sS'Adepu Ravi Sankar'
p1622
I1
sS'Pyry Takala'
p1623
I1
sS'Fran\xc3\xa7oise Fogelman-Souli\xc3\xa9'
p1624
I1
sS'Holger Hoffmann'
p1625
I1
sS'Animesh Mukherjee 0001'
p1626
I3
sS'Amit Phadke'
p1627
I1
sS'Yong Ju Cho'
p1628
I1
sS'Lijun Chang'
p1629
I1
sS'Nikolay Laptev'
p1630
I1
sS'Linyun Yu'
p1631
I2
sS'Oivind Johnsen'
p1632
I1
sS'Ali Khodadadi'
p1633
I1
sS'Xin Jin 0001'
p1634
I1
sS'Liang-Hao Huang'
p1635
I2
sS'Gjergji Kasneci'
p1636
I1
sS'Jui-Pin Wang'
p1637
I2
sS'Dotan Di Castro'
p1638
I1
sS'Balint Miklos'
p1639
I1
sS'Kenji Yamanishi'
p1640
I5
sS'Shuguo Han'
p1641
I1
sS'Joel Chan'
p1642
I1
sS'Ning Liu'
p1643
I2
sS'Panagiotis Mandros'
p1644
I1
sS'George John'
p1645
I1
sS'Martin Scholz'
p1646
I3
sS'Richard A. Farneth'
p1647
I1
sS'Eduardo Blancas Reyes'
p1648
I1
sS'Francesco Bonchi'
p1649
I13
sS'Greg Kerr'
p1650
I1
sS'David Sculley'
p1651
I1
sS'Tao Hu'
p1652
I1
sS'Indre Zliobaite'
p1653
I1
sS'Byron Dom'
p1654
I1
sS'Yang Li'
p1655
I2
sS'Christian Blouin'
p1656
I1
sS'Periwinkle Doerfler'
p1657
I1
sS'Vinay Shashidhar'
p1658
I1
sS'Allen D. Malony'
p1659
I1
sS'Abraham Bernstein'
p1660
I1
sS'Ryosuke Shibasaki'
p1661
I2
sS'Alexander G. Gray'
p1662
I5
sS'Yiyu Yao'
p1663
I1
sS'Siddharth Reddy'
p1664
I1
sS'Yi-Dong Shen'
p1665
I1
sS'Peter Triantafillou'
p1666
I1
sS'Mark A. Hasegawa-Johnson'
p1667
I1
sS'Andrew Horner'
p1668
I1
sS'Chenguang Wang'
p1669
I1
sS'K. V. M. Naidu'
p1670
I1
sS'Chun-Te Chu'
p1671
I1
sS'Christopher White'
p1672
I1
sS'Weidong Cai'
p1673
I1
sS'Amit Agarwal'
p1674
I1
sS'Wee Keong Ng'
p1675
I1
sS'Chaoming Song'
p1676
I2
sS'Xiuli Ma'
p1677
I1
sS'Zhaobin Kuang'
p1678
I2
sS"Sean O'Donnell"
p1679
I1
sS'Dan Zhang'
p1680
I1
sS'Edwin P. D. Pednault'
p1681
I1
sS'Mukund Seshadri'
p1682
I1
sS'Krishnamurthy Viswanathan'
p1683
I1
sS'Yinon Nahum'
p1684
I1
sS'Jingwei Xu'
p1685
I1
sS'Xiaoxiao Guo'
p1686
I1
sS'Patrick P. C. Lee'
p1687
I1
sS'Erik Nijkamp'
p1688
I1
sS'Vaibhav A. Narayan'
p1689
I2
sS'Abhimanyu Das'
p1690
I2
sS'Peter Young'
p1691
I1
sS'Shengrui Wang'
p1692
I1
sS'Moshe Gabel'
p1693
I2
sS'Ankur Teredesai'
p1694
I1
sS'Andreas Terzis'
p1695
I1
sS'Mary McGlohon'
p1696
I3
sS'Sean McRoskey'
p1697
I1
sS'Jonathan Seidman'
p1698
I1
sS'Nick Fyson'
p1699
I1
sS'Gang Wang 0010'
p1700
I2
sS'Weiyi Meng'
p1701
I1
sS'Deepayan Chakrabarti'
p1702
I4
sS'Uma Sawant'
p1703
I1
sS'Xingjie Liu'
p1704
I1
sS'Alessandro Tiberi'
p1705
I1
sS'Jie Wu 0001'
p1706
I1
sS'Kai-Yang Chiang'
p1707
I2
sS'Yongsub Lim'
p1708
I1
sS'Liangjie Hong'
p1709
I4
sS'Joe Brew'
p1710
I1
sS'Yu Jing'
p1711
I1
sS'Xiang Li 0001'
p1712
I1
sS'Xiaoxuan Zhang'
p1713
I1
sS'Rohit Gupta 0003'
p1714
I2
sS'Kun Zhang'
p1715
I3
sS'Byron J. Gao'
p1716
I2
sS'Benjamin M. Marlin'
p1717
I1
sS'Thomas G\xc3\xa4rtner'
p1718
I2
sS'David Haussler'
p1719
I1
sS'Ilya Mironov'
p1720
I1
sS'Taehyong Kim'
p1721
I1
sS'Fred Morstatter'
p1722
I2
sS'Timothy C. Havens'
p1723
I1
sS'Dimitris Sacharidis'
p1724
I1
sS'Wenzhe Li'
p1725
I1
sS'Eric Schwartz'
p1726
I1
sS"Jun'ichi Tatemura"
p1727
I1
sS'Yuan Yao'
p1728
I1
sS'Jia-Ching Ying'
p1729
I1
sS'Shubham Atreja'
p1730
I1
sS'Pannagadatta Shivaswamy'
p1731
I2
sS'Mikalai Tsytsarau'
p1732
I1
sS'David Potere'
p1733
I1
sS'Parang Saraf'
p1734
I4
sS'Norman M. Sadeh'
p1735
I1
sS'Tim Althoff'
p1736
I1
sS'Ruoming Jin'
p1737
I7
sS'Feodor F. Dragan'
p1738
I1
sS'Bianchi Serique Meiguins'
p1739
I1
sS'Olatunji Ruwase'
p1740
I1
sS'Padhraic Smyth'
p1741
I7
sS'Lu Qin'
p1742
I1
sS'Wojciech Gryc'
p1743
I1
sS'Yu Wang 0022'
p1744
I1
sS'Khashayar Rohanimanesh'
p1745
I1
sS'Yoshiki Suzuki'
p1746
I1
sS'Mi-Yen Yeh'
p1747
I1
sS'Chia-Hoang Lee'
p1748
I1
sS'Patrick Butler'
p1749
I5
sS'Trevor Hastie'
p1750
I1
sS'Qin Wang'
p1751
I1
sS'Ruben Kuzniecky'
p1752
I1
sS'Kilian Stoffel'
p1753
I1
sS'Oubeidillah Aziz'
p1754
I1
sS'Zakaria Haque'
p1755
I2
sS'Alexander J. Smola'
p1756
I12
sS'Wen-Yuan Zhu'
p1757
I1
sS'Dan Feldman'
p1758
I1
sS'Oded Netzer'
p1759
I1
sS'Youngsoo Park'
p1760
I1
sS'James Cox'
p1761
I1
sS'Zhu-Song Mei'
p1762
I1
sS'Teddy Furon'
p1763
I1
sS'Gartheeban Ganeshapillai'
p1764
I1
sS'Robert G. Malkin'
p1765
I1
sS'Li Pu'
p1766
I1
sS'Bo Gao'
p1767
I2
sS'Bobby Jaros'
p1768
I1
sS'Ming-Syan Chen'
p1769
I11
sS'Abderrahim Labbi'
p1770
I1
sS'Gregory C. Sharp'
p1771
I1
sS'Xin Dong 0001'
p1772
I1
sS'Tianmin Zou'
p1773
I1
sS'Hongxia Jin'
p1774
I1
sS'Misha Denil'
p1775
I1
sS'Yu Wang'
p1776
I1
sS'Evan R. Sparks'
p1777
I1
sS'Abhimanu Kumar'
p1778
I1
sS'Gergely \xc3\x81cs'
p1779
I1
sS'Myra Spiliopoulou'
p1780
I1
sS'Nan Du'
p1781
I3
sS'Xingquan Zhu'
p1782
I3
sS'Jianyong Wang'
p1783
I12
sS'P. V. Kannan'
p1784
I1
sS'Esther Galbrun'
p1785
I1
sS'Carl Kingsford'
p1786
I1
sS'Cheng He'
p1787
I2
sS'Yihan Gao'
p1788
I1
sS'Cezar Pendus'
p1789
I1
sS'Miriam Connor'
p1790
I1
sS'Mario Navas'
p1791
I1
sS'Jin Kyu Kim'
p1792
I1
sS'Wei Wei 0002'
p1793
I1
sS'Mingrui Wei'
p1794
I1
sS'Greg Kochanski'
p1795
I1
sS'Ahna R. Girshick'
p1796
I1
sS'Supranamaya Ranjan'
p1797
I1
sS'Daniel P. McCloskey'
p1798
I1
sS'Vassilis Kostakos'
p1799
I1
sS'Sathappan Muthiah'
p1800
I3
sS'Jesin Zakaria'
p1801
I3
sS'Peter Mason'
p1802
I1
sS'Ram Akella'
p1803
I1
sS'Mahito Sugiyama'
p1804
I1
sS'Julien Delporte'
p1805
I1
sS'Mikhail Bilenko'
p1806
I3
sS'Martial Pasquier'
p1807
I1
sS'Jianxin Liao'
p1808
I1
sS'Daniel Golovin'
p1809
I2
sS'Yejin Kim'
p1810
I1
sS'Mike Meyer'
p1811
I1
sS'Payam Siyari'
p1812
I1
sS'Yangyang Hou'
p1813
I1
sS'Edgar Rowton'
p1814
I1
sS'Prem Melville'
p1815
I5
sS'Raymond Chi-Wing Wong'
p1816
I1
sS'Chih-Jen Lin'
p1817
I9
sS'Chenhan D. Yu'
p1818
I1
sS'Percy Fitter'
p1819
I1
sS'Chiru Bhattacharyya'
p1820
I1
sS'Garrett Badeau'
p1821
I1
sS'Wei Hu'
p1822
I1
sS'Venu Govindaraju'
p1823
I1
sS'Chunxiao Zhou'
p1824
I1
sS'Peifeng Yin'
p1825
I3
sS'Bettina Derstorff'
p1826
I1
sS'Ali Arabzadeh'
p1827
I1
sS'Naoto Ohsaka'
p1828
I1
sS'James Powell'
p1829
I1
sS'Joel Dudley'
p1830
I1
sS'Nicholas Johnson'
p1831
I1
sS'Le Song'
p1832
I7
sS'Bingyu Wang'
p1833
I1
sS'David Fuhry'
p1834
I1
sS'Yudian Zheng'
p1835
I1
sS'Waqar Hasan'
p1836
I1
sS'Huiji Gao'
p1837
I1
sS'Kave Eshghi'
p1838
I3
sS'Yangyong Zhu'
p1839
I1
sS'Yuheng Hu'
p1840
I1
sS'Yuanchi Ning'
p1841
I1
sS'Milad Eftekhar'
p1842
I1
sS'Antoine Fraboulet'
p1843
I1
sS'Krishnan S. Kumar'
p1844
I1
sS'Richard Boire'
p1845
I1
sS'Hern\xc3\xa1n Asorey'
p1846
I1
sS'Ming Shao'
p1847
I1
sS'Saikat Guha'
p1848
I1
sS'Kensuke Onuma'
p1849
I1
sS'Chih-Chun Chia'
p1850
I1
sS'Bo Ren Zhang'
p1851
I1
sS'Shili Xiang'
p1852
I1
sS'Eduard Gr\xc3\xb6ller'
p1853
I1
sS'Mengying Sun'
p1854
I1
sS'Jayant R. Kalagnanam'
p1855
I1
sS'Jing Gao'
p1856
I18
sS'Kyle Soska'
p1857
I1
sS'R. Ravi 0001'
p1858
I1
sS'Thiago Salles'
p1859
I1
sS'Ajay Gupta'
p1860
I1
sS'Hiroto Saigo'
p1861
I2
sS'Paea LePendu'
p1862
I1
sS'Luca Chiarandini'
p1863
I1
sS'Igor Melnyk'
p1864
I1
sS'Dominick Ormsby'
p1865
I1
sS'Ulrik Brandes'
p1866
I1
sS'Weichang Li'
p1867
I1
sS'Jianneng Cao'
p1868
I1
sS'Caterina Mordente'
p1869
I1
sS'Ahmed El-Kishky'
p1870
I4
sS'Lucy Vanderwende'
p1871
I1
sS'Florian Verhein'
p1872
I1
sS'Meichun Hsu'
p1873
I1
sS'Thomas Strohmann'
p1874
I1
sS'Fatma Arslan'
p1875
I1
sS'Esa Junttila'
p1876
I1
sS'Sneha Chaudhari'
p1877
I1
sS'Basma Alharbi'
p1878
I1
sS'He Yan'
p1879
I1
sS'Ying Cui'
p1880
I3
sS'Shumo Chu'
p1881
I2
sS'Timothy Gardinier'
p1882
I1
sS'Amol Ghoting'
p1883
I3
sS'Claudia Plant'
p1884
I12
sS'Patrick D. Howell'
p1885
I1
sS'Martin Saveski'
p1886
I2
sS'Kristen Maria Summers'
p1887
I2
sS'Ting Hua'
p1888
I2
sS'Jianhua Yin'
p1889
I2
sS'Shuo Xiang'
p1890
I4
sS'Yiye Ruan'
p1891
I1
sS'Sayali Kulkarni'
p1892
I1
sS'Hady Wirawan Lauw'
p1893
I1
sS'Dong Woo Kim'
p1894
I1
sS'Thanawin Rakthanmanon'
p1895
I2
sS'Evimaria Terzi'
p1896
I12
sS'Huijing Jiang'
p1897
I1
sS'Qingyang Li'
p1898
I1
sS'Anthony C. T. Lai'
p1899
I1
sS'Zhongang Qi'
p1900
I1
sS'Eiko Kai'
p1901
I1
sS'W. Timothy Liu'
p1902
I1
sS'Min Xu'
p1903
I1
sS'Zhixian Zhang'
p1904
I1
sS'Mayur Thakur'
p1905
I2
sS'Lingyu Zhang'
p1906
I1
sS'Kijung Shin'
p1907
I2
sS'Eric D. Kolaczyk'
p1908
I1
sS'Gowtham Bellala'
p1909
I1
sS'Fr\xc3\xa9d\xc3\xa9ric Le Mou\xc3\xabl'
p1910
I1
sS'Michele Coscia'
p1911
I1
sS'Clement T. Yu'
p1912
I1
sS'Ricardo A. Baeza-Yates'
p1913
I2
sS'Min-Soo Kim 0002'
p1914
I1
sS'Marc Dacier'
p1915
I1
sS'Robert Pierce'
p1916
I1
sS'Raj Bhatnagar'
p1917
I1
sS'Eric Horvitz'
p1918
I5
sS'Yunhong Gu'
p1919
I1
sS'Ziyu Guan'
p1920
I3
sS'Yexiang Xue'
p1921
I1
sS'Mohamed F. Ghalwash'
p1922
I1
sS'Daniel N. Hill'
p1923
I2
sS'Yuval Shavitt'
p1924
I1
sS'Matthew Gaudet'
p1925
I1
sS'Mahyar Salek'
p1926
I1
sS'David J. Crandall'
p1927
I1
sS'Han Liu'
p1928
I1
sS'Joseph St. Amand'
p1929
I1
sS'Anand Rajaraman'
p1930
I1
sS'Aaron Johnson'
p1931
I1
sS'Jialiu Lin'
p1932
I1
sS'Xiaoxiao Shi'
p1933
I2
sS'Varun Bhagwan'
p1934
I1
sS'Hengshu Zhu'
p1935
I11
sS'Sumit Bhatia'
p1936
I1
sS'Mathieu Blondel'
p1937
I1
sS'Emre KicKiman'
p1938
I1
sS'Tristan Naumann'
p1939
I2
sS'Yan Yan'
p1940
I1
sS'Satoshi Morinaga'
p1941
I1
sS'Ao Yuan'
p1942
I1
sS'Caitlin Kuhlman'
p1943
I1
sS'Xiaojie Yuan'
p1944
I1
sS'Suresh Venkatasubramanian'
p1945
I2
sS'Noemie Elhadad'
p1946
I1
sS'Venkatesh Ganti'
p1947
I1
sS'Yihong Eric Zhao'
p1948
I1
sS'Benyang Tang'
p1949
I1
sS'Jean-Michel Renders'
p1950
I1
sS'Cristopher Moore'
p1951
I2
sS'Rachel Ostroff'
p1952
I1
sS'Dafna Shahaf'
p1953
I6
sS'Blaise Ag\xc3\xbcera y Arcas'
p1954
I1
sS'Abdulhakim Ali Qahtan'
p1955
I1
sS'Dan Garant'
p1956
I1
sS'Rohit Joshi'
p1957
I1
sS'Gary Holt'
p1958
I1
sS'Ross Maciejewski'
p1959
I1
sS'Susan Athey'
p1960
I1
sS'Wentong Li'
p1961
I2
sS'Nagiza F. Samatova'
p1962
I1
sS'Juan-Zi Li'
p1963
I1
sS'Saurabh Goorha'
p1964
I1
sS'Houping Xiao'
p1965
I4
sS'Huiqing Li'
p1966
I1
sS'Young-San Lin'
p1967
I2
sS'Khoa Trinh'
p1968
I1
sS'Chayant Tantipathananandh'
p1969
I2
sS'Ramesh Johari'
p1970
I2
sS'Arvind Agarwal'
p1971
I1
sS'Sorin Gherman'
p1972
I1
sS'Mike Hoskins'
p1973
I1
sS'Chonghui Guo'
p1974
I1
sS'Charles-Antoine Robelin'
p1975
I1
sS'Kai Puolam\xc3\xa4ki'
p1976
I1
sS'Bo An'
p1977
I1
sS'Tongliang Liu'
p1978
I1
sS'Diane J. Hu'
p1979
I1
sS'Jorn Bakker'
p1980
I1
sS'Carla E. Brodley'
p1981
I3
sS'Jiangzhuo Chen'
p1982
I1
sS'Ruslan Salakhutdinov'
p1983
I1
sS'Ion Stoica'
p1984
I1
sS'Xiaoming Jin'
p1985
I1
sS'Lanxiao Bai'
p1986
I1
sS'Marin Kollef'
p1987
I1
sS'Rich Caruana'
p1988
I4
sS'Paul Compton'
p1989
I1
sS'Moritz Sudhof'
p1990
I1
sS'Raymond K. Pon'
p1991
I1
sS'Anirban Mahanti'
p1992
I1
sS'Charalampos E. Tsourakakis'
p1993
I6
sS'Rui-zhang Huang'
p1994
I1
sS'Klaus Berberich'
p1995
I1
sS'Mingfei Zhao'
p1996
I1
sS'Tsung-Hsun Tsai'
p1997
I1
sS'Bistra Dilkina'
p1998
I2
sS'Tanya Y. Berger-Wolf'
p1999
I4
sS'Hao Yin'
p2000
I1
sS'Deepthi Sistla'
p2001
I1
sS'Michele Berlingerio'
p2002
I1
sS'Wenqing Lin'
p2003
I1
sS'Amar Shah'
p2004
I1
sS'Thanuka L. Wickramarathne'
p2005
I1
sS'Thomas Seidl 0001'
p2006
I7
sS'Jie Chen'
p2007
I1
sS'Vishal Kanchan'
p2008
I1
sS'Shayne Miel'
p2009
I1
sS'Leonardo Weiss Ferreira Chaves'
p2010
I1
sS'Erik Marcade'
p2011
I1
sS'Keng-hao Chang'
p2012
I2
sS'Richi Nayak'
p2013
I1
sS'Caiming Xiong'
p2014
I1
sS'Brian Eriksson'
p2015
I1
sS'Cuili Yao'
p2016
I1
sS'Oliver L. Haimson'
p2017
I1
sS'David Locke'
p2018
I2
sS'Sitaram Asur'
p2019
I3
sS'Quoc V. Le'
p2020
I1
sS'Lihong Li 0001'
p2021
I1
sS'Sami Hanhij\xc3\xa4rvi'
p2022
I1
sS'Christine K\xc3\xb6rner'
p2023
I1
sS'Tengjiao Wang'
p2024
I1
sS'Xiaodan Song'
p2025
I2
sS'Ravi Janardan'
p2026
I1
sS'M. Hadi Kiapour'
p2027
I1
sS'Rand Waltzman'
p2028
I1
sS'V. G. Vinod Vydiswaran'
p2029
I1
sS'Shazia Wasim Sadiq'
p2030
I1
sS'Krishna P. Gummadi'
p2031
I1
sS'Shubhomoy Das'
p2032
I1
sS'Godmar Back'
p2033
I1
sS'Ingo Scholtes'
p2034
I1
sS'Francesco Gullo'
p2035
I4
sS'Qifa Ke'
p2036
I1
sS'Pierre-Alain Fouque'
p2037
I1
sS'Yuichi Yoshida'
p2038
I1
sS'Guiquan Liu'
p2039
I1
sS'Vadim Tsemekhman'
p2040
I1
sS'Lian Duan'
p2041
I1
sS'Daniel T. Zhang'
p2042
I1
sS'Chongzhe Li'
p2043
I1
sS'Eric E. Schadt'
p2044
I2
sS'Weining Qian'
p2045
I1
sS'Maayan Roth'
p2046
I1
sS'Shourya Roy'
p2047
I2
sS'Ichiro Takeuchi'
p2048
I2
sS'Eren Manavoglu'
p2049
I1
sS'Aidong Zhang'
p2050
I5
sS'Bin Tong'
p2051
I1
sS'Richang Hong'
p2052
I1
sS'Jordan L. Boyd-Graber'
p2053
I1
sS'Yashoteja Prabhu'
p2054
I2
sS'Thomas Holleczek'
p2055
I1
sS'M. Benjamin Dias'
p2056
I1
sS'Ricardo J. G. B. Campello'
p2057
I1
sS'Matthew Richardson'
p2058
I3
sS'Pete Koomen'
p2059
I1
sS'Christine H. Chih'
p2060
I1
sS'Heather Storey'
p2061
I1
sS'Elham Shaabani'
p2062
I1
sS'Duygu Ucar'
p2063
I1
sS'Hamed Valizadegan'
p2064
I1
sS'Xiaoli Z. Fern'
p2065
I1
sS'Bryan Perozzi'
p2066
I3
sS'Muddassar Farooq'
p2067
I1
sS'Zhaojun Wang'
p2068
I1
sS'Binyamin Rosenfeld'
p2069
I1
sS'Ratnesh K. Sharma'
p2070
I2
sS'Meng Fang'
p2071
I1
sS'David P. Naidich'
p2072
I1
sS'Zhiting Hu'
p2073
I2
sS'Marc Lelarge'
p2074
I1
sS'Sunita Sarawagi'
p2075
I2
sS'John Gums'
p2076
I2
sS'Michelle Vanni'
p2077
I1
sS'Yue Zhu'
p2078
I1
sS'Aurelie C. Lozano'
p2079
I5
sS'Paul M. Stieg'
p2080
I1
sS'Xin Zhang'
p2081
I1
sS'Hsiu-Khuern Tang'
p2082
I1
sS'Klemens B\xc3\xb6hm'
p2083
I1
sS'Alexander G. Ororbia II'
p2084
I1
sS'Laiwan Chan'
p2085
I1
sS'Lars Backstrom'
p2086
I4
sS'James Bost'
p2087
I1
sS'Pedro H. P. Saverese'
p2088
I1
sS'Yuxiao Dong'
p2089
I5
sS'Rob Reinauer'
p2090
I1
sS'Evangelos Simoudis'
p2091
I2
sS'David A. Bader'
p2092
I1
sS'Wang Zhan'
p2093
I1
sS'Zoubin Ghahramani'
p2094
I2
sS'Kamal Ali'
p2095
I1
sS'Spiros Papadimitriou'
p2096
I4
sS'Ji-Rong Wen'
p2097
I5
sS'Michael Zhu'
p2098
I2
sS'Rebecca Casta\xc3\xb1o'
p2099
I1
sS'Zhihua Zhang'
p2100
I1
sS'Dmitry Kislyuk'
p2101
I1
sS'Venu Satuluri'
p2102
I1
sS'Sergey Faleev'
p2103
I1
sS'Fangbo Tao'
p2104
I3
sS'Xun Zheng'
p2105
I3
sS'Robert McColl'
p2106
I1
sS'Pengcheng Feng'
p2107
I1
sS'Jane Yung-jen Hsu'
p2108
I2
sS'Gwen A. Frishkoff'
p2109
I1
sS'Ninh Pham'
p2110
I2
sS'Zhaoran Wang'
p2111
I1
sS'Qiaosong Wang'
p2112
I1
sS'Chetan Gupta'
p2113
I1
sS'Tatsuo Hiramatsu'
p2114
I1
sS'Jiang Bian'
p2115
I1
sS'Sung-Hyon Myaeng'
p2116
I1
sS'Su Yan'
p2117
I1
sS'Boxin Du'
p2118
I1
sS'Kathy Lee'
p2119
I1
sS'Soumya Basu'
p2120
I1
sS'Puja Das'
p2121
I1
sS'Estevam R. Hruschka Jr.'
p2122
I1
sS'Moshe Shamy'
p2123
I1
sS'Nicole Wolter'
p2124
I1
sS'Ahmedur Rahman'
p2125
I1
sS'Jerry Kiernan'
p2126
I1
sS'Yu-Chen Lu'
p2127
I2
sS'Shan-Wei Lin'
p2128
I3
sS'Jim Pivarski'
p2129
I1
sS'Nicolas Schilling'
p2130
I1
sS'Yulan He'
p2131
I1
sS'Zhengyi Zhou'
p2132
I1
sS'Orrin Devinsky'
p2133
I1
sS'Kunihiko Harada'
p2134
I1
sS'Benjamin J. Bachman'
p2135
I2
sS'Samrachana Adhikari'
p2136
I1
sS'Yinan Zhang'
p2137
I1
sS'Ali Dasdan'
p2138
I4
sS'Joon Hee Kim'
p2139
I1
sS'Yaqiong Wang'
p2140
I1
sS'Qi Tan'
p2141
I1
sS'Alistair C. Veitch'
p2142
I1
sS'Di Wu'
p2143
I1
sS'David A. Hanauer'
p2144
I1
sS'Fen Lin'
p2145
I1
sS'Sriram Krishnan'
p2146
I1
sS'Jouni K. Sepp\xc3\xa4nen'
p2147
I1
sS'Madeleine Seeland'
p2148
I1
sS'Yu Su'
p2149
I1
sS'DongPing Fang'
p2150
I1
sS'Wenwu Ou'
p2151
I1
sS'David M. Mimno'
p2152
I2
sS'Ron Bekkerman'
p2153
I2
sS'Shiwan Zhao'
p2154
I1
sS'Shimei Pan'
p2155
I1
sS'R. Dean Malmgren'
p2156
I1
sS'Gabriele Tolomei'
p2157
I2
sS'Rizwan Ansary'
p2158
I1
sS'Joshi Parag'
p2159
I1
sS'Heidi Wang'
p2160
I1
sS'J\xc3\xb6rg Wicker'
p2161
I1
sS'John Paul C. Vergara'
p2162
I1
sS'Herodotos Herodotou'
p2163
I1
sS'Shaunak Chatterjee'
p2164
I1
sS'Pauli Miettinen'
p2165
I3
sS'Andr\xc3\xa9 Bergholz'
p2166
I1
sS'Chao Xu 0006'
p2167
I2
sS'Clayton T. Sims'
p2168
I1
sS'David M. Steier'
p2169
I1
sS'Iris Ad\xc3\xa4'
p2170
I1
sS'Alex Beutel'
p2171
I4
sS'Weili Wu'
p2172
I1
sS'Vincent Leroy'
p2173
I1
sS'Wenlin Chen'
p2174
I5
sS'Jianping Fan 0002'
p2175
I1
sS'Zhi Nie'
p2176
I1
sS'Robinson Piramuthu'
p2177
I3
sS'Addrian Fernandez'
p2178
I1
sS'Xin Yu'
p2179
I1
sS'Savaneary Sean'
p2180
I1
sS'Marcos Salganicoff'
p2181
I1
sS'Damon McCoy'
p2182
I1
sS'Bo Anderson'
p2183
I1
sS'Matt Ocko'
p2184
I1
sS'Yosuke Motohashi'
p2185
I1
sS'Su-Yang Yu'
p2186
I1
sS'Nguyen Xuan Vinh'
p2187
I1
sS'Andreas C. Damianou'
p2188
I1
sS'Bin Gu'
p2189
I1
sS'Xinjiang Lu'
p2190
I1
sS'Zhihao Gavin Tang'
p2191
I1
sS'Michael Young'
p2192
I1
sS'Raghav Bhaskar'
p2193
I1
sS'Alexandre Termier'
p2194
I2
sS'Gengxin Miao'
p2195
I2
sS'Woochang Hwang'
p2196
I1
sS'Guang-Tong Zhou'
p2197
I1
sS'Jingu Kim'
p2198
I1
sS'Samuel Carton'
p2199
I1
sS'Esteban Arcaute'
p2200
I1
sS'Hongfu Liu'
p2201
I3
sS'Sholom M. Weiss'
p2202
I1
sS'Michael J. Pazzani'
p2203
I2
sS'Rui Li'
p2204
I2
sS'Antoine Bordes'
p2205
I1
sS'Xiang Wang 0001'
p2206
I4
sS'Mingdong Ou'
p2207
I3
sS'Roberto J. Bayardo'
p2208
I1
sS'Hongtai Li'
p2209
I2
sS'James C. Ross'
p2210
I1
sS'Markus G. Anderle'
p2211
I1
sS'Yanen Li'
p2212
I1
sS'Jianda Li'
p2213
I1
sS'Hendrik Blockeel'
p2214
I1
sS'Jack Saalweachter'
p2215
I1
sS'Urs Hofmann'
p2216
I1
sS'Christopher DuBois'
p2217
I2
sS'Ognian Asparouhov'
p2218
I1
sS'Peng Liu'
p2219
I1
sS'Azarakhsh Malekian'
p2220
I2
sS'Taiga Nakamura'
p2221
I1
sS'Nancy Obuchowski'
p2222
I1
sS'Bill Yuan-chi Chiu'
p2223
I1
sS'Michio Kimura'
p2224
I1
sS'Qingbo Hu'
p2225
I1
sS'Aditya Krishna Menon'
p2226
I1
sS'Bo Jin 0001'
p2227
I1
sS'Jeffrey Hartley'
p2228
I1
sS'Marco Bressan 0002'
p2229
I1
sS'Martin F. Arlitt'
p2230
I1
sS'Xintao Wu'
p2231
I1
sS'Yuan Hao'
p2232
I1
sS'Aur\xc3\xa9lien S\xc3\xa9randour'
p2233
I1
sS'Patrick F. Sullivan'
p2234
I1
sS'Sihong Xie'
p2235
I2
sS'Laks V. S. Lakshmanan'
p2236
I6
sS'Zhe Wang'
p2237
I1
sS'Philippe Charland'
p2238
I1
sS'Aston Zhang'
p2239
I1
sS'Blayne Field'
p2240
I1
sS'Jorge G. Silva'
p2241
I1
sS'Zhengping Che'
p2242
I1
sS'Sai Zeng'
p2243
I1
sS'Xiaoxiao Li'
p2244
I1
sS'Ziqi Wang'
p2245
I1
sS'Beidou Wang'
p2246
I1
sS'Can Wang'
p2247
I1
sS'Eugene Agichtein'
p2248
I1
sS'Ben Shahshahani'
p2249
I1
sS'Debora Donato'
p2250
I1
sS'Yoelle Maarek'
p2251
I2
sS'Vidhya Navalpakkam'
p2252
I1
sS'Ingo Mierswa'
p2253
I1
sS'Susan T. Dumais'
p2254
I1
sS'Marek Ciglan'
p2255
I1
sS'Cewu Lu'
p2256
I1
sS'Ganzhao Yuan'
p2257
I1
sS'Zhenguo Li'
p2258
I1
sS'Fei Tony Liu'
p2259
I1
sS'Simon J. Puglisi'
p2260
I1
sS'Sofus A. Macskassy'
p2261
I1
sS'Vikas Krishna'
p2262
I1
sS'Fengshan Bai'
p2263
I1
sS'Derek L. Eager'
p2264
I1
sS'Ruofei Zhang'
p2265
I5
sS'Don Towsley'
p2266
I1
sS'Qihang Lin'
p2267
I1
sS'Dmytro Karamshuk'
p2268
I1
sS'Joseph Salmento'
p2269
I1
sS'David Adamson'
p2270
I1
sS'Wei Fan'
p2271
I25
sS'Chris Thornton'
p2272
I1
sS'Berk Ustun'
p2273
I1
sS'Yi Liu'
p2274
I2
sS'Muad Abu-Ata'
p2275
I1
sS'Tarek F. Abdelzaher'
p2276
I1
sS'Robert C. Miller'
p2277
I2
sS'Holakou Rahmanian'
p2278
I1
sS'Charu C. Aggarwal'
p2279
I12
sS'Liang Sun 0001'
p2280
I3
sS'Jiajun Bu'
p2281
I2
sS'Martin Wistuba'
p2282
I1
sS'Thore Graepel'
p2283
I3
sS'Fan Yang'
p2284
I1
sS'Yichen Wang'
p2285
I1
sS'Roland Kays'
p2286
I1
sS'Lisi Chen'
p2287
I1
sS'Wolfgang Gl\xc3\xa4nzel'
p2288
I1
sS'Giorgio Corani'
p2289
I1
sS'Ichigaku Takigawa'
p2290
I1
sS'Jeff G. Schneider'
p2291
I5
sS'Guoji Zhang'
p2292
I1
sS'Andreas T\xc3\xb6scher'
p2293
I1
sS'Hossein Maserrat'
p2294
I1
sS'Yupeng Yan'
p2295
I1
sS'St\xc3\xa9phane Girard'
p2296
I1
sS'Hiroshi Mamitsuka'
p2297
I3
sS'Masashi Shimbo'
p2298
I1
sS'Robert M. Frank'
p2299
I1
sS'Yanmei Fu'
p2300
I1
sS'Michael I. Jordan'
p2301
I4
sS'Weiwei Sun'
p2302
I1
sS'Jose Cadena'
p2303
I2
sS'Lu\xc3\xads Sarmento'
p2304
I1
sS'Tatsuya Harada'
p2305
I1
sS'Yaoliang Yu'
p2306
I3
sS'Matthias Gall\xc3\xa9'
p2307
I1
sS'Michael Kwok-Po Ng'
p2308
I1
sS'Jo\xc3\xa3o Gama'
p2309
I5
sS'Joonseok Lee'
p2310
I1
sS'Ron Merom'
p2311
I1
sS'Michael H. Cho'
p2312
I1
sS'Shaodan Zhai'
p2313
I1
sS'Yuexin Wu'
p2314
I1
sS'Alexandru Niculescu-Mizil'
p2315
I1
sS'Shinya Sugawara'
p2316
I1
sS'Hsiao-Ping Tseng'
p2317
I2
sS'Cynthia Rudin'
p2318
I5
sS'Christos Faloutsos'
p2319
I47
sS'Shixia Liu'
p2320
I4
sS'Guy Lebanon'
p2321
I2
sS'Douglas Salane'
p2322
I1
sS'Yuan Qi'
p2323
I1
sS'Ryohei Fujimaki'
p2324
I5
sS'Mario Boley'
p2325
I3
sS'Wei Su'
p2326
I1
sS'Jingdong Wang'
p2327
I1
sS'Feilong Chen'
p2328
I1
sS'Ahmad Mahmoody'
p2329
I1
sS'Hiroshi Ikai'
p2330
I1
sS'Bin Liu 0020'
p2331
I2
sS'Che-Wei Huang'
p2332
I1
sS'David C. Liu'
p2333
I1
sS'Peter Nye'
p2334
I1
sS'Vacha Dave'
p2335
I1
sS'Qing Yang 0002'
p2336
I1
sS'Marjan Momtazpour'
p2337
I1
sS'Chengkai Li'
p2338
I3
sS'Dongyun Yi'
p2339
I1
sS'Mahsa Salehi'
p2340
I1
sS'Swapna Male'
p2341
I1
sS'Tom Hope'
p2342
I1
sS'Emaad A. Manzoor'
p2343
I2
sS'Zang Li'
p2344
I1
sS'Ee-Peng Lim'
p2345
I2
sS'Jarek Wilkiewicz'
p2346
I1
sS'Alessandro Panconesi'
p2347
I3
sS'Terran Lane'
p2348
I1
sS'Alan M. Frieze'
p2349
I1
sS'Jens Ludwig'
p2350
I1
sS'Anirban Dasgupta 0001'
p2351
I4
sS'Karol Kurach'
p2352
I1
sS'Benjamin Edelman'
p2353
I1
sS'Patrick Lucey'
p2354
I4
sS'Jie Yang 0015'
p2355
I1
sS'Xiang Zhang 0001'
p2356
I4
sS'Tianrui Li'
p2357
I1
sS'Tobias Kaufmann'
p2358
I1
sS'Brett Gillick'
p2359
I1
sS'Sun Park'
p2360
I1
sS'Tingyang Xu'
p2361
I1
sS'Jason I. Hong'
p2362
I2
sS'Elijah Mayfield'
p2363
I1
sS'Iain A. Matthews'
p2364
I2
sS'Fabian M\xc3\xb6rchen'
p2365
I2
sS'Zi Yin'
p2366
I1
sS'E. K. Park'
p2367
I1
sS'Ananth Nagarajan'
p2368
I1
sS'Suman Nath'
p2369
I1
sS'Christopher M. Jermaine'
p2370
I2
sS'Arthur U. Asuncion'
p2371
I1
sS'Dorit Baras'
p2372
I1
sS'Aleksander Kolcz'
p2373
I2
sS'Uros Midic'
p2374
I1
sS'John McPherson'
p2375
I1
sS'Eug\xc3\xa9nio C. Oliveira'
p2376
I1
sS'Hao Hu'
p2377
I1
sS'Jens Teubner'
p2378
I1
sS'Kiri Wagstaff'
p2379
I1
sS'Paul Rodriguez'
p2380
I1
sS'Qi Zhang'
p2381
I1
sS'Ernestina Menasalvas Ruiz'
p2382
I1
sS'Victor S. Sheng'
p2383
I2
sS'Chunsong Wang'
p2384
I1
sS'Junjie Wu'
p2385
I9
sS'Catarina Dudas'
p2386
I1
sS'Oren Etzioni'
p2387
I4
sS'Beng Chin Ooi'
p2388
I2
sS'Houssam Nassif'
p2389
I1
sS'Manohar Paluri'
p2390
I1
sS'Irene Ntoutsi'
p2391
I1
sS'Chris Anderson'
p2392
I1
sS'Gaurav Veda'
p2393
I1
sS'Yixin Chen'
p2394
I8
sS'Jason Lines'
p2395
I1
sS'Yehuda Koren'
p2396
I7
sS'Jonathan D. Becher'
p2397
I1
sS'Zhiqiang Liu'
p2398
I1
sS'Enhong Chen'
p2399
I10
sS'Nicolas Figueroa'
p2400
I1
sS'Ning Jiang'
p2401
I1
sS'Dang The Anh'
p2402
I1
sS'Mojtaba Sedigh Fazli'
p2403
I1
sS'Dang Tuan Nhon'
p2404
I1
sS'Jitendra Malik'
p2405
I1
sS'Samir Khuller'
p2406
I1
sS'Abhijith Kashyap'
p2407
I1
sS'Carter T. Butts'
p2408
I1
sS'Paul van der Boor'
p2409
I1
sS'Richard G. Baraniuk'
p2410
I1
sS'Guanyu Tao'
p2411
I1
sS'Jaiwei Han'
p2412
I1
sS'Swaraj Sett'
p2413
I1
sS'Vihan Jain'
p2414
I1
sS'Hongke Zhao'
p2415
I3
sS'Takayuki Nakata'
p2416
I1
sS'Catherine Coffey'
p2417
I1
sS'Yannis Vrahoritis'
p2418
I1
sS'Arun Shankar Iyer'
p2419
I1
sS'Mikhail Belkin'
p2420
I1
sS'Shaoxu Song'
p2421
I1
sS'Jeffrey Xu Yu'
p2422
I1
sS'Wei Chen 0013'
p2423
I2
sS'Alexandros Ntoulas'
p2424
I1
sS'Luke M. Davis'
p2425
I1
sS'Jie Cao'
p2426
I2
sS'Michael Jahrer'
p2427
I1
sS'Gianmarco De Francisci Morales'
p2428
I3
sS'Lili Zhao'
p2429
I1
sS'Pradeep Ravikumar'
p2430
I1
sS'Dehua Cheng'
p2431
I2
sS'Zhao Kang'
p2432
I1
sS'Yosr Na\xc3\xafja'
p2433
I1
sS'Ilya B. Novikov'
p2434
I1
sS'Bipin C. Desai'
p2435
I1
sS'Jisu Kim'
p2436
I1
sS'Stacey Newman'
p2437
I1
sS'Senzhang Wang'
p2438
I1
sS'Ron M. Stewart'
p2439
I1
sS'Yun Cheng'
p2440
I1
sS'Vince P. Thomas'
p2441
I1
sS'Mahidhar Tatineni'
p2442
I1
sS'Nikhil R. Devanur'
p2443
I1
sS'Bryan L. Lewis'
p2444
I2
sS'Limsoon Wong'
p2445
I3
sS'Siddhartha Banerjee'
p2446
I2
sS'David M. Johnson'
p2447
I1
sS'Wei Vivian Zhang'
p2448
I1
sS'Varun Chandola'
p2449
I1
sS'Bing Duan'
p2450
I2
sS'Gerhard Paass'
p2451
I1
sS'Sven Schmit'
p2452
I1
sS'Deyi Li'
p2453
I1
sS'Xiao Cheng'
p2454
I1
sS'Thomas Finley'
p2455
I1
sS'Alison Walsh'
p2456
I1
sS'Kuang-chih Lee'
p2457
I3
sS'Mengling Feng'
p2458
I2
sS'Manas Joglekar'
p2459
I1
sS'Edith Cohen'
p2460
I3
sS'St\xc3\xa9phane Clinchant'
p2461
I2
sS'Yuan Alan Qi'
p2462
I1
sS'Timothy M. Stough'
p2463
I1
sS'Baihan Shu'
p2464
I1
sS'Yan-Bin Ciou'
p2465
I1
sS'Bamshad Mobasher'
p2466
I1
sS'Xiaojin Zhu 0001'
p2467
I1
sS'Rajendu Mitra'
p2468
I1
sS'Nicholas Monath'
p2469
I1
sS'Sergey Pupyrev'
p2470
I1
sS'Alexander G. Nikolaev'
p2471
I1
sS'Debjyoti Paul'
p2472
I1
sS'Yada Zhu'
p2473
I2
sS'Norbert Zeh'
p2474
I1
sS'Shie Mannor'
p2475
I1
sS'Prithwish Chakraborty'
p2476
I2
sS'Shusen Wang'
p2477
I1
sS'Efstratios Bourtsoukidis'
p2478
I1
sS'Jong-Chuan Lee'
p2479
I2
sS'Jingchao Ni'
p2480
I2
sS'Bilal Ahmed'
p2481
I1
sS'Hanqiang Cheng'
p2482
I1
sS'Michael R. Berthold'
p2483
I2
sS'Felipe Llinares-L\xc3\xb3pez'
p2484
I1
sS'Liangyue Li'
p2485
I3
sS'Jiajin Zhang'
p2486
I1
sS'Zhengzhang Chen'
p2487
I3
sS'Li Xue'
p2488
I1
sS'Arno Siebes'
p2489
I3
sS'Ying-Xin Li'
p2490
I1
sS'Nipun Batra 0001'
p2491
I1
sS'Toon Calders'
p2492
I2
sS'Matthias Grossglauser'
p2493
I1
sS'Yannis Theodoridis'
p2494
I1
sS'Elizabeth Searles'
p2495
I2
sS'Pawan Goyal'
p2496
I2
sS'Mokrane Bouzeghoub'
p2497
I1
sS'Robert Hall'
p2498
I2
sS'Yichen Zhou'
p2499
I1
sS'Nikita I. Lytkin'
p2500
I1
sS'Silei Xu'
p2501
I1
sS'Long Qian'
p2502
I1
sS'Pinghua Gong'
p2503
I5
sS'Antonio Alfredo Ferreira Loureiro'
p2504
I1
sS'Chen Zhu'
p2505
I2
sS'Tianlin Shi'
p2506
I1
sS'Takashi Shibuya'
p2507
I1
sS'Chaokun Wang'
p2508
I1
sS'Ada Wai-Chee Fu'
p2509
I4
sS'Zhenyu Lu'
p2510
I1
sS'Rahul Sami'
p2511
I1
sS'Jinyun Yan'
p2512
I1
sS'Martin Zinkevich'
p2513
I2
sS'Richard F. Helm'
p2514
I1
sS'Boi Faltings'
p2515
I1
sS'Ye Wang'
p2516
I1
sS'Michal Ozery-Flato'
p2517
I1
sS'Xiaodong Zheng'
p2518
I1
sS'Michael Gilligan'
p2519
I1
sS'Si Si'
p2520
I2
sS'Yi Chen 0001'
p2521
I2
sS'Pei-yun Hseuh'
p2522
I1
sS'Dan Olteanu'
p2523
I1
sS'Tushar Saxena'
p2524
I1
sS'Sikhar Patranabis'
p2525
I1
sS'Quanquan Gu'
p2526
I6
sS'Daniel D. Corkill'
p2527
I1
sS'Ethan R. Elenberg'
p2528
I1
sS'Shumpei Okura'
p2529
I1
sS'Yu Zhang 0006'
p2530
I2
sS'Huan Zhao'
p2531
I1
sS'Bing Hu 0001'
p2532
I3
sS'Makoto Onizuka'
p2533
I1
sS'Dan Frankowski'
p2534
I1
sS'Joseph Keshet'
p2535
I1
sS'Jing Dai'
p2536
I1
sS'Yanglei Song'
p2537
I1
sS'Daniel J. Abadi'
p2538
I1
sS'Ken-ichi Kawarabayashi'
p2539
I5
sS'Jianping Cao'
p2540
I1
sS'Roman Sandler'
p2541
I1
sS'Yikang Liao'
p2542
I1
sS'Simone Romano 0003'
p2543
I1
sS'Qin Liu'
p2544
I1
sS'Shengwen Yang'
p2545
I1
sS'Chris Ackermann'
p2546
I1
sS'Jiawei Zhang'
p2547
I2
sS'Xin Luna Dong'
p2548
I1
sS'Naoki Abe'
p2549
I5
sS'Takashi Nishibayashi'
p2550
I1
sS'Peter A. Flach'
p2551
I1
sS'Marc Plantevit'
p2552
I1
sS'Sameep Mehta'
p2553
I1
sS'Tomer Tankel'
p2554
I1
sS'Matthias Behmann'
p2555
I1
sS'Hakim Hacid'
p2556
I1
sS'Guangxu Xun'
p2557
I1
sS'Bai-En Shie'
p2558
I2
sS'Joe Walsh'
p2559
I4
sS'Rita Chattopadhyay'
p2560
I2
sS'Koji Tsukamoto'
p2561
I1
sS'Jing Wang 0019'
p2562
I1
sS'Wei Zhang'
p2563
I2
sS'Kai Morino'
p2564
I2
sS'Chengqi Zhang'
p2565
I2
sS'Stephen Boyd'
p2566
I1
sS'Zaiqing Nie'
p2567
I3
sS'Steve Meliksetian'
p2568
I1
sS'Shanfeng Zhu'
p2569
I1
sS'\xc3\x96zg\xc3\xbcl Salor'
p2570
I1
sS'Yu Zhang'
p2571
I4
sS'Yang Yang'
p2572
I1
sS'Tzu-Ming Kuo'
p2573
I2
sS'Tobias Scheffer'
p2574
I2
sS'Hui-Ju Hung'
p2575
I2
sS'Huanhuan Wu'
p2576
I1
sS'Dingding Wang 0001'
p2577
I1
sS'Joseph Ramsey'
p2578
I1
sS'David Applegate'
p2579
I1
sS'Anurag Bhardwaj'
p2580
I2
sS'Jean-Marc Andreoli'
p2581
I1
sS'Bin Jiang'
p2582
I1
sS'Stephen P. Boyd'
p2583
I3
sS'Yuanhua Lv'
p2584
I2
sS'Dan Roth'
p2585
I6
sS'Xiaolong Wang'
p2586
I1
sS'Vineeth Nallure Balasubramanian'
p2587
I1
sS'Ryan Poplin'
p2588
I1
sS'Shulong Tan'
p2589
I1
sS'Ori Gershony'
p2590
I1
sS'Shi Gao'
p2591
I1
sS'Jaideep Srivastava'
p2592
I2
sS'Hesam Salehian'
p2593
I1
sS'Jacques J. Labrie'
p2594
I2
sS'Peng Jiang'
p2595
I1
sS'Saeed Amizadeh'
p2596
I1
sS'Shiqiang Yang'
p2597
I7
sS'Marwan Hassani'
p2598
I1
sS'Smruti R. Sarangi'
p2599
I1
sS'Jennifer Neville'
p2600
I3
sS'Larry Heck'
p2601
I1
sS'Sang-Hee Lee'
p2602
I1
sS'Ming Zhou'
p2603
I1
sS'Ravi B. Konuru'
p2604
I1
sS'Bernhard Meerbeck'
p2605
I1
sS'Yun Huang'
p2606
I1
sS'Matt Walker'
p2607
I1
sS'Gideon Dror'
p2608
I2
sS'Agma Juci Machado Traina'
p2609
I2
sS'Defu Lian'
p2610
I4
sS'Chiu Yuen Koo'
p2611
I1
sS'Matan Gavish'
p2612
I1
sS'Hua Huang 0002'
p2613
I1
sS'Yi Yang'
p2614
I2
sS'David Walsh 0002'
p2615
I1
sS'Lidong Bing'
p2616
I1
sS'Yuan Zuo'
p2617
I1
sS'Ellery Wulczyn'
p2618
I1
sS'Jorge M. Arevalillo'
p2619
I1
sS'Anindya Ghose'
p2620
I1
sS'Jeff Donahue'
p2621
I1
sS'Jeffery Yufei Liu'
p2622
I1
sS'Bo Zhang'
p2623
I4
sS'Yu Hao'
p2624
I1
sS'Deepak S. Turaga'
p2625
I5
sS'Zhiyong Shen'
p2626
I2
sS'Siyu You'
p2627
I1
sS'Phil Tian'
p2628
I1
sS'Gabor Melli'
p2629
I1
sS'Alina Ene'
p2630
I1
sS'Mingqiang Xue'
p2631
I3
sS'Milan Vojnovic'
p2632
I1
sS'Daqing He'
p2633
I1
sS'Chris Volinsky'
p2634
I1
sS'Aryya Gangopadhyay'
p2635
I1
sS'Hossein Vahabi'
p2636
I1
sS'Long H. Vu'
p2637
I1
sS'Ming Li 0001'
p2638
I1
sS'Roger G. Mark'
p2639
I1
sS'Xuehua Shen'
p2640
I1
sS'Liwen Sun'
p2641
I1
sS'Carlos Riquelme'
p2642
I1
sS'Cheng Yang'
p2643
I1
sS'Oliver Downs'
p2644
I1
sS'Su-Chen Lin'
p2645
I1
sS'Yun Xiong'
p2646
I1
sS'Ashesh Jain'
p2647
I1
sS'Hardy Kremer'
p2648
I1
sS'Chong Zhou'
p2649
I2
sS'Cong Yu 0001'
p2650
I2
sS'Hao Zhou'
p2651
I1
sS'Krzysztof Janowicz'
p2652
I1
sS'Yan Li'
p2653
I2
sS'Wei Zha'
p2654
I1
sS'Elisabeth Georgii'
p2655
I1
sS'Sam Corbett-Davies'
p2656
I1
sS'Felipe Fernandez Martinez'
p2657
I1
sS'Shakti Sinha'
p2658
I1
sS'Zhenhui Li'
p2659
I5
sS'Yang Yang 0009'
p2660
I4
sS'Saharon Rosset'
p2661
I4
sS'Wenfu Pan'
p2662
I1
sS'Svetha Venkatesh'
p2663
I2
sS'G. Niklas Nor\xc3\xa9n'
p2664
I1
sS'Jo\xc3\xa3o Bernardes'
p2665
I1
sS'Son T. Mai'
p2666
I2
sS'Owen T. Carmichael'
p2667
I2
sS'Mustafa Bilgic 0001'
p2668
I1
sS'Tao Zeng'
p2669
I2
sS'Michael P. McGuire'
p2670
I1
sS'S. V. N. Vishwanathan'
p2671
I5
sS'Xuezhi Wang'
p2672
I1
sS'Kenneth Tran'
p2673
I1
sS'Agenor Mafra-Neto'
p2674
I1
sS'N\xc3\xa9riah M. Sossou'
p2675
I1
sS'Xiaoyue Wang'
p2676
I1
sS'Rishan Chen'
p2677
I1
sS'Xianping Tao'
p2678
I1
sS'Kristina Star'
p2679
I1
sS'Sanjay Chawla'
p2680
I5
sS'Edward Choi'
p2681
I2
sS'Michael Nett'
p2682
I1
sS'Jun Hua Zhao'
p2683
I1
sS'Andreas Karwath'
p2684
I1
sS'Jing Ge'
p2685
I1
sS'Andreas Kaltenbrunner'
p2686
I1
sS'Weiqing Wang'
p2687
I1
sS'Corey Lynch'
p2688
I1
sS'Shubin Zhao'
p2689
I1
sS'Nicolas Krauter'
p2690
I1
sS'Joe Zachariah'
p2691
I1
sS'Chedy Ra\xc3\xafssi'
p2692
I2
sS'Boris Cule'
p2693
I1
sS'Yao Hu'
p2694
I1
sS'Shen Chen Xu'
p2695
I1
sS'Alexey Poyarkov'
p2696
I1
sS'Katrin Haegler'
p2697
I1
sS'Huang Xu'
p2698
I1
sS'Thomas Borchert'
p2699
I1
sS'Nando de Freitas'
p2700
I2
sS'Esteban Garc\xc3\xada-Cuesta'
p2701
I1
sS'Yung Chang'
p2702
I1
sS'Michael Zeller'
p2703
I1
sS'Brian Karrer'
p2704
I2
sS'Dennis Fetterly'
p2705
I1
sS'Mohammed J. Zaki'
p2706
I3
sS'Xiangnan Kong'
p2707
I5
sS'Huanhuan Chen'
p2708
I1
sS'Lydia M. Letham'
p2709
I1
sS'Subhabrata Majumdar'
p2710
I1
sS'Paul M. Thompson'
p2711
I3
sS'Dashun Wang'
p2712
I2
sS'Takeshi Yamada'
p2713
I2
sS'Stephen J. Wright'
p2714
I1
sS'Akshay Krishnamurthy'
p2715
I1
sS'Zhengdong Lu'
p2716
I1
sS'Vibhor Rastogi'
p2717
I2
sS'Junwei Wang'
p2718
I1
sS'Assaf Hallak'
p2719
I1
sS'Cory Cohen'
p2720
I1
sS'Rohit Durvasula'
p2721
I1
sS'Toyokazu Akiyama'
p2722
I1
sS'Emily B. Fox'
p2723
I1
sS'Hongjian Wang 0002'
p2724
I1
sS'David M. Blei'
p2725
I3
sS'Toby Walker'
p2726
I3
sS'Benjamin Quost'
p2727
I1
sS'Yannis Sismanis'
p2728
I1
sS'Ian En-Hsu Yen'
p2729
I3
sS'Leonidas J. Guibas'
p2730
I1
sS'Haichuan Yang'
p2731
I1
sS'Da Kuang'
p2732
I1
sS'Vlado Keselj'
p2733
I1
sS'Pierre Senellart'
p2734
I1
sS'Tanmoy Chakraborty 0002'
p2735
I2
sS'Chenguang Zhu'
p2736
I1
sS'Yu Zheng 0004'
p2737
I8
sS'Rao S. Govindaraju'
p2738
I2
sS'Naty Leiser'
p2739
I1
sS'Bin Cui 0001'
p2740
I1
sS'James Gerber'
p2741
I1
sS'Mohammad Reza Karimi'
p2742
I1
sS'Shi Zhong'
p2743
I1
sS'Sanem Elbasi'
p2744
I1
sS'Thorsten Joachims'
p2745
I11
sS'Arno J. Knobbe'
p2746
I2
sS'Guoqing Zheng'
p2747
I1
sS'Hongyang Zhang'
p2748
I1
sS'JungWoo Ha'
p2749
I1
sS'Daniel Alabi'
p2750
I1
sS'Junli Yang'
p2751
I1
sS'Guangjian Tian'
p2752
I1
sS'Mafruz Zaman Ashrafi'
p2753
I1
sS'Zhishan Guo'
p2754
I1
sS'Ilan Horn'
p2755
I1
sS'David Miller'
p2756
I1
sS'Judea Pearl'
p2757
I1
sS'Vijay K. Narayanan'
p2758
I1
sS'Shouichi Nagano'
p2759
I1
sS'Haibin Cheng'
p2760
I2
sS'Nan Cao'
p2761
I2
sS'Eric Breck'
p2762
I1
sS'Dipak K. Gupta'
p2763
I1
sS'Pengfei Wang'
p2764
I1
sS'Wenqing Hu'
p2765
I1
sS'Sendhil Mullainathan'
p2766
I3
sS'Christos Boutsidis'
p2767
I2
sS'Jaya Kawale'
p2768
I1
sS'Jian Lu'
p2769
I2
sS'Minoru Yoshida'
p2770
I1
sS'Wenwen Zhang'
p2771
I1
sS'Gaurav Tandon'
p2772
I1
sS'Edmondo Trentin'
p2773
I1
sS'Bo Ma'
p2774
I2
sS'Ted E. Senator'
p2775
I2
sS'Bo Xiao'
p2776
I1
sS'Paul Cotofrei'
p2777
I1
sS'Debing Zhang'
p2778
I1
sS'Lei Shi'
p2779
I2
sS'Shu-Ching Chen'
p2780
I2
sS'Wenlu Zhang'
p2781
I2
sS'Yan Zheng'
p2782
I2
sS'Taylor Berg-Kirkpatrick'
p2783
I1
sS'Raquel Sebasti\xc3\xa3o'
p2784
I2
sS'Jason V. Davis'
p2785
I1
sS'Stephen H. Bach'
p2786
I1
sS'Chao Lan'
p2787
I1
sS'Rohini K. Srihari'
p2788
I2
sS'Chunping Li'
p2789
I1
sS'Kaushik Chakrabarti'
p2790
I1
sS'Juliet Fiss'
p2791
I1
sS'Charles Peter Elkan'
p2792
I1
sS'Nicolas Usunier'
p2793
I1
sS'ChengXiang Zhai'
p2794
I6
sS'Feng Yan 0001'
p2795
I1
sS'Tian Xia'
p2796
I2
sS'James G. Shanahan'
p2797
I1
sS'Matthias Renz'
p2798
I2
sS'Indrajit Bhattacharya'
p2799
I4
sS'Chuan Shi'
p2800
I1
sS'Galileo Namata'
p2801
I1
sS'Parikshit Sondhi'
p2802
I1
sS'Kevin Small'
p2803
I1
sS'Yasuo Kuniyoshi'
p2804
I1
sS'Vincent Wenchen Zheng'
p2805
I1
sS'Satoshi Ueyama'
p2806
I1
sS'Daniel Paurat'
p2807
I2
sS'Chenwei Zhang'
p2808
I1
sS'Ian Porteous'
p2809
I1
sS'Irwin King'
p2810
I1
sS'Sadia Afroz'
p2811
I1
sS'Michelle X. Zhou'
p2812
I1
sS'Xia Hu'
p2813
I2
sS'Olivier Chapelle'
p2814
I2
sS'Elizabeth Wu'
p2815
I1
sS'Jiawei Han 0001'
p2816
I52
sS'Michele Benzi'
p2817
I1
sS'Wei Chen'
p2818
I5
sS'Buyue Qian'
p2819
I1
sS'Dejan Radosavljevik'
p2820
I1
sS'Baining Guo'
p2821
I1
sS'Yin Zhu'
p2822
I2
sS'Zhigang Zheng'
p2823
I1
sS'Michael Mitzenmacher'
p2824
I2
sS'Songqing Chen'
p2825
I1
sS'Vikas C. Raykar'
p2826
I1
sS'Prashanthi Vemuri'
p2827
I1
sS'Yusu Wang'
p2828
I1
sS'Niklas Carlsson'
p2829
I1
sS'Rui Yan'
p2830
I2
sS'Sudheer Dhulipalla'
p2831
I1
sS'Lars Schmidt-Thieme'
p2832
I2
sS'Feiping Nie'
p2833
I5
sS'Lluis Garcia Pueyo'
p2834
I1
sS'Jianfei Chen 0001'
p2835
I1
sS'Albert-L\xc3\xa1szl\xc3\xb3 Barab\xc3\xa1si'
p2836
I1
sS'Shuji Shimizu'
p2837
I1
sS'Eugenia Giraudy'
p2838
I1
sS'Gisele L. Pappa'
p2839
I1
sS'Pannagadatta K. Shivaswamy'
p2840
I1
sS'Manu Sethi'
p2841
I1
sS'Angela Han'
p2842
I1
sS'Douglas Stott Parker Jr.'
p2843
I2
sS'Georgios Roumpos'
p2844
I1
sS'Xueyuan Zhou'
p2845
I1
sS'Himabindu Lakkaraju'
p2846
I3
sS'Marc Najork'
p2847
I1
sS'Austin R. Benson'
p2848
I2
sS'Meng Jiang'
p2849
I5
sS'Emmanuel M\xc3\xbcller'
p2850
I3
sS'Samik Datta'
p2851
I1
sS'Claudio Schifanella'
p2852
I1
sS'Eugene Davydov'
p2853
I1
sS'Jian Chen'
p2854
I5
sS'Josh Bongard'
p2855
I1
sS'Mohammad A. Tayebi'
p2856
I1
sS'Harald Steck'
p2857
I2
sS'Philip S. Yu'
p2858
I39
sS'Shinjae Yoo'
p2859
I1
sS'Ying Huang'
p2860
I1
sS'Nancy S. Pollard'
p2861
I1
sS'Sharath Pankanti'
p2862
I1
sS'S. H. Kwok'
p2863
I1
sS'Robert F. Murphy'
p2864
I1
sS'Anthony Bagnall'
p2865
I1
sS'Yunhuai Liu'
p2866
I1
sS'Akshay Naresh Modi'
p2867
I1
sS'Dakan Wang'
p2868
I1
sS'Jure Leskovec'
p2869
I20
sS'Thomas Thesen'
p2870
I1
sS'Anitha Kannan'
p2871
I4
sS'Joydeep Ghosh'
p2872
I6
sS'William Hendrix'
p2873
I1
sS'Chieh-Yen Lin'
p2874
I2
sS'Jing Yuan'
p2875
I3
sS'Peter Ti\xc3\xb1o'
p2876
I1
sS'Zhixue Han'
p2877
I1
sS'Drew Conway'
p2878
I1
sS'Rajesh Parekh'
p2879
I2
sS'Gordon Sun'
p2880
I1
sS'Xin Liu 0002'
p2881
I1
sS'Andrew Arnold'
p2882
I1
sS'Cullen Bash'
p2883
I1
sS'Qi Qian'
p2884
I1
sS'Wei Luo'
p2885
I1
sS'Jean-Fran\xc3\xa7ois Crespo'
p2886
I1
sS'Charles K. Nicholas'
p2887
I1
sS'Xiao Jiang'
p2888
I1
sS'Yaron Kretchmer'
p2889
I1
sS'Peng Zhang'
p2890
I2
sS'Mohsen Jamali'
p2891
I1
sS'Abhilash Dighe'
p2892
I1
sS'Sue He'
p2893
I1
sS'Kenneth Joseph'
p2894
I1
sS'Sahin Cem Geyik'
p2895
I2
sS'James D. Rawn'
p2896
I1
sS'Igor Kabiljo'
p2897
I1
sS'Charles B. Ward'
p2898
I1
sS'Sebastiaan J. van Schaik'
p2899
I1
sS'Rebecca S. Portnoff'
p2900
I1
sS'Sinno Jialin Pan'
p2901
I3
sS'Raviv Raich'
p2902
I1
sS'Helen Song'
p2903
I1
sS'Xu-Ying Liu'
p2904
I2
sS'Kai Zheng 0001'
p2905
I2
sS'Wei Li 0010'
p2906
I1
sS'Maarten de Rijke'
p2907
I1
sS'Thomas Lauvaux'
p2908
I1
sS'Ke Zhou'
p2909
I1
sS'Eric K. Ringger'
p2910
I1
sS'Jia Wang'
p2911
I1
sS'Fran\xc3\xa7ois Petitjean'
p2912
I2
sS'Vishnu Naresh Boddeti'
p2913
I1
sS"Gaston L'Huillier"
p2914
I1
sS'John M. Drake'
p2915
I1
sS'Bart Goethals'
p2916
I2
sS'Xin-Jing Wang'
p2917
I2
sS'Yijun Sun'
p2918
I1
sS'Zhenzhen Xue'
p2919
I1
sS'Eric Yi Liu'
p2920
I1
sS'Jialu Liu'
p2921
I4
sS'Michael W. Mahoney'
p2922
I3
sS'Chandrashekhar Nagarajan'
p2923
I1
sS'Martin Wolpers'
p2924
I1
sS'Jongwuk Lee'
p2925
I2
sS'Elena Eneva'
p2926
I1
sS'Shuai Wang'
p2927
I2
sS'Maria-Florina Balcan'
p2928
I1
sS'Panagiotis Adamopoulos'
p2929
I1
sS'Fredrik D. Johansson'
p2930
I1
sS'Paul Castro'
p2931
I1
sS'Lorenzo De Stefani'
p2932
I1
sS'Hao Wang 0014'
p2933
I1
sS'Da Yan'
p2934
I2
sS'Luke Barrington'
p2935
I1
sS'Yuan Tang'
p2936
I1
sS'Christos Anagnostopoulos'
p2937
I1
sS'Yong Rui'
p2938
I2
sS'Hasan Poonawala'
p2939
I1
sS'Ioana Giurgiu'
p2940
I2
sS'Junfeng Wang'
p2941
I1
sS'Joel Oren'
p2942
I1
sS'Atte Hinkka'
p2943
I1
sS'Ioana Stanoi'
p2944
I1
sS'Brian Dalessandro'
p2945
I7
sS'Daryl Pregibon'
p2946
I1
sS'Raed Mansour'
p2947
I1
sS'Qiang Cheng'
p2948
I1
sS'Prabhanjan Kambadur'
p2949
I1
sS'Donald Kossmann'
p2950
I1
sS'Junbo Zhang'
p2951
I1
sS'Mina Ghashami'
p2952
I1
sS'Gabriel Kliot'
p2953
I1
sS'Xiaojiang Liu'
p2954
I1
sS'Qi He'
p2955
I4
sS'Andrew Potter'
p2956
I1
sS'Levi Boyles'
p2957
I1
sS'Jingjing Wang'
p2958
I1
sS'Rosie Jones'
p2959
I1
sS'Harikrishna Narasimhan'
p2960
I2
sS'Chin-Yew Lin'
p2961
I1
sS'Sangram Ganguly'
p2962
I1
sS'Yingyi Bu'
p2963
I1
sS'Rui Chen'
p2964
I4
sS'Todd Beaupre'
p2965
I1
sS'Igor Perisic'
p2966
I1
sS'Ryan J. Prenger'
p2967
I1
sS'Nurcan Yuruk'
p2968
I1
sS'Adriana Prado'
p2969
I1
sS'Sudarshan Lamkhede'
p2970
I1
sS'Konstantin Kutzkov'
p2971
I1
sS'Chris Curry'
p2972
I1
sS'Michael H. B\xc3\xb6hlen'
p2973
I1
sS'Qiming Diao'
p2974
I1
sS'Andreas Maunz'
p2975
I1
sS'Donatella Firmani'
p2976
I1
sS'Koji Maruhashi'
p2977
I1
sS'Pietro Li\xc3\xb2'
p2978
I1
sS'Xiao Ling'
p2979
I1
sS'Marina Danilevsky'
p2980
I4
sS'Anshumali Shrivastava'
p2981
I1
sS'Peilin Zhao'
p2982
I3
sS'Shobeir Fakhraei'
p2983
I1
sS'Yuchen Zhao'
p2984
I2
sS'Sumit Gulwani'
p2985
I1
sS'Ana-Maria Popescu'
p2986
I2
sS'Eirini Ntoutsi'
p2987
I1
sS'Thomas G. Dietterich'
p2988
I1
sS'David M. Lodge'
p2989
I1
sS'Lu An Tang'
p2990
I1
sS'Shigeru Maya'
p2991
I1
sS'Junfeng He'
p2992
I1
sS'Tadasu Uchiyama'
p2993
I1
sS'Madhav Jha'
p2994
I1
sS'Youngwoo Kim'
p2995
I1
sS'Mahbub Hasan'
p2996
I1
sS'Zheng Liu'
p2997
I2
sS'Nesreen K. Ahmed'
p2998
I1
sS'Sunshine Hillygus'
p2999
I1
sS'Ben Kao'
p3000
I1
sS'Adam K. Usadi'
p3001
I1
sS'Antonino Freno'
p3002
I2
sS'Ralf Herbrich'
p3003
I5
sS'Ruixin Qiang'
p3004
I1
sS'Pascal Fua'
p3005
I1
sS'Lei Guo 0004'
p3006
I1
sS'Bee-Chung Chen'
p3007
I11
sS'Luigi Di Caro'
p3008
I2
sS'Zhenhao Hua'
p3009
I1
sS'Anil Kumar S. Vullikanti'
p3010
I1
sS'Weiguo Liu'
p3011
I1
sS'Sebastien Ardon'
p3012
I1
sS'Alex D. Leow'
p3013
I1
sS'Craig Martell'
p3014
I1
sS'Xiaoqian Jiang'
p3015
I2
sS'Dimitris S. Papailiopoulos'
p3016
I1
sS'John F. Canny'
p3017
I3
sS'Xuan Vinh Nguyen'
p3018
I1
sS'Yann LeCun'
p3019
I1
sS'Leonid Pekelis'
p3020
I1
sS'Aaron Call'
p3021
I1
sS'Tiancheng Li'
p3022
I1
sS'Randal M. Henne'
p3023
I1
sS'Tsung-Ting Kuo'
p3024
I1
sS'Kenichi Kurihara'
p3025
I1
sS'Jay Yoon Lee'
p3026
I1
sS'Evans Hsu'
p3027
I1
sS'Chi-Hoon Lee'
p3028
I2
sS'Dian Yu'
p3029
I1
sS'Yingyu Liang'
p3030
I1
sS'Huijia Zhu'
p3031
I1
sS'Saket Sathe'
p3032
I1
sS'Vita Markman'
p3033
I1
sS'Masashi Yamamuro'
p3034
I1
sS'Ying Chen 0001'
p3035
I2
sS'Huzefa Rangwala'
p3036
I2
sS'Mar\xc3\xada E. Terr\xc3\xb3n-D\xc3\xadaz'
p3037
I1
sS'Ricard Gavald\xc3\xa0'
p3038
I3
sS'Hagen V\xc3\xb6lzer'
p3039
I1
sS'Xiaoran Yan'
p3040
I3
sS'Reza Zafarani'
p3041
I1
sS'Xiatian Zhang'
p3042
I2
sS'Jon Chamberlain'
p3043
I1
sS'Xiaohua Zhou'
p3044
I1
sS'Qing Cui'
p3045
I1
sS'Yuan Yang'
p3046
I1
sS'Freddy Chong Tat Chua'
p3047
I1
sS'Yunkai Zhou'
p3048
I1
sS'Yiming Yang'
p3049
I3
sS'Aruanda Sim\xc3\xb5es Goncalves Meiguins'
p3050
I1
sS'Dejan Diklic'
p3051
I1
sS'David C. Kale'
p3052
I2
sS'Kaouthar Blibech Sinaoui'
p3053
I1
sS'Jianying Hu'
p3054
I5
sS'Latifur Khan'
p3055
I2
sS'Tommi K\xc3\xa4rkk\xc3\xa4inen'
p3056
I1
sS'Anil Kamath'
p3057
I1
sS'Lan Nie'
p3058
I1
sS'Oded Green'
p3059
I1
sS'Wenjun Zhou'
p3060
I5
sS'Yanfang Ye'
p3061
I5
sS'Karsten M. Borgwardt'
p3062
I2
sS'Filip Radlinski'
p3063
I2
sS'Guo-Jun Qi'
p3064
I6
sS'Dinggang Shen'
p3065
I1
sS'Willem G. van Panhuis'
p3066
I1
sS'Zheng Chen'
p3067
I4
sS'Thomas Anderson Keller'
p3068
I1
sS'Anand Bhalgat'
p3069
I1
sS'Justin Weligamage'
p3070
I1
sS'Vikas Sindhwani'
p3071
I1
sS'Phong Nguyen'
p3072
I1
sS'Randy C. Paffenroth'
p3073
I1
sS'Arun K. Bhunia'
p3074
I1
sS'Hui Hong'
p3075
I1
sS'Bin Yu'
p3076
I1
sS'Noah Fiedel'
p3077
I1
sS'Mirco Nanni'
p3078
I4
sS'Rudolph L. Mappus IV'
p3079
I1
sS'Yoav Freund'
p3080
I1
sS'Kai Zheng 0002'
p3081
I1
sS'Christian A. Lang'
p3082
I1
sS'Chen Li'
p3083
I1
sS'Szil\xc3\xa1rd Pafka'
p3084
I2
sS'Ying Shan'
p3085
I2
sS'Gary F. Anderson'
p3086
I1
sS'Alban Siffer'
p3087
I1
sS'Margo Seltzer'
p3088
I1
sS'Yong Zhuang'
p3089
I2
sS'Markus Bundschus'
p3090
I1
sS'Jie Zhang'
p3091
I1
sS'Athina Markopoulou'
p3092
I1
sS'Si-Chi Chin'
p3093
I1
sS'Eric Potash'
p3094
I1
sS'Masashi Toyoda'
p3095
I1
sS'Neil Shah'
p3096
I2
sS'Alan E. Hubbard'
p3097
I1
sS'John Paparrizos'
p3098
I1
sS'Lenwood S. Heath'
p3099
I1
sS'Muzaffer Can Altinigneli'
p3100
I1
sS'Sujian Li'
p3101
I1
sS'Sui Huang'
p3102
I1
sS'Masatoshi Yoshikawa'
p3103
I1
sS'Chanhyun Kang'
p3104
I1
sS'Srijan Kumar'
p3105
I1
sS'Richard Gonzalez'
p3106
I1
sS'Arindam Banerjee'
p3107
I5
sS'Peng Wu'
p3108
I1
sS'Thomas Ryan Hoens'
p3109
I1
sS'Chenyang Lu'
p3110
I1
sS'Peng Zhang 0001'
p3111
I1
sS'Nicola Perra'
p3112
I1
sS'Eunjoon Cho'
p3113
I1
sS'Xiaohua Hu'
p3114
I2
sS'Yashu Liu 0001'
p3115
I1
sS'Tai Hsu'
p3116
I1
sS'Christiane Kamdem Kengne'
p3117
I1
sS'Guangsha Shi'
p3118
I1
sS'Xue-wen Chen 0001'
p3119
I1
sS'Anuj Karpatne'
p3120
I2
sS'Sarat C. Puthenpura'
p3121
I1
sS'Keith Henderson'
p3122
I3
sS'Madhav V. Marathe'
p3123
I3
sS'Julian Grady'
p3124
I1
sS'Marcos Andr\xc3\xa9 Gon\xc3\xa7alves'
p3125
I1
sS'Dan Zhang 0007'
p3126
I2
sS'Yong Liu'
p3127
I1
sS'Rongjian Li'
p3128
I1
sS'\xc3\x82ngelo Cardoso'
p3129
I1
sS'Erica Briscoe'
p3130
I1
sS'Rukmini Iyer'
p3131
I1
sS'Dougal J. Sutherland'
p3132
I1
sS'Chun Chen'
p3133
I1
sS'Fakhri Karray'
p3134
I1
sS'Vignesh Jagadeesh'
p3135
I1
sS'Austin Comer'
p3136
I1
sS'Qihong Shao'
p3137
I1
sS'Guo-Xun Yuan'
p3138
I1
sS'Rayid Ghani'
p3139
I10
sS'Murali Krishna Teja'
p3140
I1
sS'Jian Yang'
p3141
I1
sS'Guy Halawi'
p3142
I1
sS'Michael Caldwell'
p3143
I1
sS'Richard J. Beckman'
p3144
I1
sS'Benjamin J. Keller'
p3145
I1
sS'Ganesh Ramakrishnan'
p3146
I1
sS'Alice Han'
p3147
I1
sS'Tracy D. Lemmond'
p3148
I1
sS'Shamanth Kumar'
p3149
I2
sS'Xiaoquan Zhang'
p3150
I1
sS'Jerry Liu'
p3151
I1
sS'Bart De Moor'
p3152
I1
sS'Siyu Lei'
p3153
I1
sS'Georgiana Ifrim'
p3154
I2
sS'Panagiotis G. Ipeirotis'
p3155
I2
sS'Peter Haider'
p3156
I1
sS'Siddharth Suri'
p3157
I1
sS'Xiaomin Zhu'
p3158
I1
sS'Daxin Jiang'
p3159
I2
sS'Juliana Sutanto'
p3160
I1
sS'Makoto Abe'
p3161
I1
sS'Justin Ma'
p3162
I1
sS'Julian Gibbons'
p3163
I1
sS'Kai Fan'
p3164
I1
sS'Yu-Li Liang'
p3165
I1
sS'Xiaoxin Yin'
p3166
I1
sS'Ziyang Chen'
p3167
I1
sS'Ivan Marsic'
p3168
I1
sS'Amin Mantrach'
p3169
I4
sS'Guanjie Zheng'
p3170
I1
sS'Mohammad Mahdian'
p3171
I4
sS'Aviv Peretz'
p3172
I1
sS'Steven Skiena'
p3173
I2
sS'Yubao Wu'
p3174
I1
sS'Qirong Ho'
p3175
I3
sS'Jing Zhang 0001'
p3176
I2
sS'Yuchen Zhang'
p3177
I1
sS'P. S. Sastry'
p3178
I1
sS'Hui Yang 0009'
p3179
I1
sS'Nadia Magnenat-Thalmann'
p3180
I1
sS'Cheng-Hao Tsai'
p3181
I4
sS'Lucas Silva'
p3182
I2
sS'Sonal Gupta'
p3183
I1
sS'Yimin Kao'
p3184
I1
sS'Hanna M. Wallach'
p3185
I1
sS'Cheng Li'
p3186
I1
sS'Divanshu Garg'
p3187
I1
sS'Taichi Kiwaki'
p3188
I1
sS'Vinod Yegneswaran'
p3189
I1
sS'Shipeng Yu'
p3190
I4
sS'Patricia L. Brantingham'
p3191
I1
sS'Andreas Krause 0001'
p3192
I4
sS'Shuai Li'
p3193
I1
sS'Sambit Sahu'
p3194
I3
sS'Mikhail Obukhov'
p3195
I1
sS'David Buttler'
p3196
I3
sS'Sandeepkumar Satpal'
p3197
I1
sS'Yingzi Wang'
p3198
I2
sS'Wei Xue'
p3199
I2
sS'Jie Wang'
p3200
I6
sS'Issei Sato'
p3201
I6
sS'Lijun Zhang 0005'
p3202
I1
sS'Sen Wu 0001'
p3203
I4
sS'Yue Shi'
p3204
I2
sS'Jeff Schneider'
p3205
I1
sS'Brian Frasca'
p3206
I3
sS'Christie I. Ezeife'
p3207
I1
sS'Jianzhuang Liu'
p3208
I1
sS'George Biros'
p3209
I1
sS'Mohamed Aly'
p3210
I1
sS'Adam Isaac Juda'
p3211
I1
sS'Wei Li'
p3212
I2
sS'Srini Kumar'
p3213
I1
sS'Chung-Yi Li'
p3214
I1
sS'Rong-Hua Li'
p3215
I1
sS'Tristan Mark Snowsill'
p3216
I1
sS'Rodolphe Jenatton'
p3217
I2
sS'Pu Wang'
p3218
I1
sS'Bin-Bin Zhou'
p3219
I1
sS'Yan Liu'
p3220
I9
sS'Houyin Zhang'
p3221
I1
sS'Frans Schalekamp'
p3222
I1
sS'Kedar Bellare'
p3223
I1
sS'Akshay Gadde'
p3224
I1
sS'Eduardo Ari\xc3\xb1o de la Rubia'
p3225
I2
sS'Yang Wan'
p3226
I1
sS'Andr\xc3\xa9s Gom\xc3\xa9z Emilsson'
p3227
I1
sS'Erick Delage'
p3228
I1
sS'Tong Yu'
p3229
I2
sS'Stephen Tyree'
p3230
I1
sS'Ashish Goel'
p3231
I2
sS'Martin Wicke'
p3232
I2
sS'Reuven Cohen'
p3233
I1
sS'K. S. M. Tozammel Hossain'
p3234
I1
sS'Raman Chandrasekar'
p3235
I1
sS'Biye Jiang'
p3236
I1
sS'Huanhuan Cao'
p3237
I1
sS'Wei-Lin Chiang'
p3238
I1
sS'Bolin Ding'
p3239
I3
sS'Philippe Golle'
p3240
I1
sS'Chris Gates'
p3241
I1
sS'Niloy Ganguly'
p3242
I1
sS'Chris Quirk'
p3243
I1
sS'Johann Schleier-Smith'
p3244
I1
sS'Meng Hu'
p3245
I1
sS'Liang Du'
p3246
I1
sS'Jian Cao'
p3247
I1
sS'Siddharth Gopal'
p3248
I1
sS'Pavel Berkhin'
p3249
I1
sS'Jakub Pachocki'
p3250
I1
sS'Mehmet Yigit Yildirim'
p3251
I1
sS'Samantha Low'
p3252
I1
sS'John Karro'
p3253
I1
sS'Xiaoli Li 0013'
p3254
I1
sS'Griff Weber'
p3255
I1
sS'Manoj Thakur'
p3256
I1
sS'Shiqian Ma'
p3257
I1
sS'Sandeep Tata'
p3258
I1
sS'Stephen Boyer'
p3259
I1
sS'Dongming Lei'
p3260
I1
sS'Tianming Liu'
p3261
I1
sS'Antonio Maccioni'
p3262
I1
sS'Jaegul Choo'
p3263
I1
sS'Jeffrey N. Myers'
p3264
I1
sS'Chao Liu 0001'
p3265
I2
sS'Christof St\xc3\xb6nner'
p3266
I1
sS'Yin Song'
p3267
I1
sS'Carl Yang'
p3268
I1
sS'Genady Grabarnik'
p3269
I1
sS'Tal Yarkoni'
p3270
I1
sS'Sukriti Ramesh'
p3271
I1
sS'Jie Bao'
p3272
I1
sS'Yu-Shu Chen'
p3273
I1
sS'Dongdong Shan'
p3274
I1
sS'Vivekanand Gopalkrishnan'
p3275
I2
sS'Nicolas Kourtellis'
p3276
I1
sS'Bokai Cao'
p3277
I3
sS'Chong Peng'
p3278
I1
sS'Gursimran Singh'
p3279
I1
sS'Michael E. Houle'
p3280
I1
sS'Xiao Huang'
p3281
I1
sS'Peter Faymonville'
p3282
I1
sS'Kuansan Wang'
p3283
I2
sS'Galileo Mark S. Namata Jr.'
p3284
I1
sS'Chao Yuan'
p3285
I1
sS'Natallia Katenka'
p3286
I1
sS'Baoxin Li'
p3287
I1
sS'Susan Ditmore'
p3288
I1
sS'Marc Peter Deisenroth'
p3289
I1
sS'Na Ta'
p3290
I1
sS'Lei Yu 0001'
p3291
I2
sS'Wei Feng'
p3292
I2
sS'Tao Cheng'
p3293
I1
sS'Vinay Kolar'
p3294
I1
sS'Sebastian Goebl'
p3295
I1
sS'Edward R. Dougherty'
p3296
I1
sS'Brian Gallagher'
p3297
I5
sS'Joyce Jiyoung Whang'
p3298
I1
sS'Rochit Sapra'
p3299
I1
sS'Jon Feldman'
p3300
I1
sS'Sachin Garg'
p3301
I1
sS'Azer Bestavros'
p3302
I1
sS'Guifeng Wang'
p3303
I1
sS'Sethuraman Panchanathan'
p3304
I3
sS'Geoff Holmes'
p3305
I5
sS'Jack C. Schryver'
p3306
I1
sS'Yubin Park'
p3307
I1
sS'David Martens'
p3308
I1
sS'John C. S. Lui'
p3309
I1
sS'Bruce Graves'
p3310
I1
sS'Kosta Ristovski'
p3311
I1
sS'Nikos Anerousis'
p3312
I3
sS'Gautam Das'
p3313
I2
sS'Xueqing Liu'
p3314
I2
sS'Isik \xc3\x87adirci'
p3315
I1
sS'Jintao Zhang'
p3316
I1
sS'Gregory Druck'
p3317
I1
sS'Qiaoling Liu'
p3318
I2
sS'Hsiao-Wuen Hon'
p3319
I1
sS'Anton Schwaighofer'
p3320
I2
sS'Radha Chitta'
p3321
I2
sS'Yasunobu Nohara'
p3322
I1
sS'Taylor Cassidy'
p3323
I1
sS'Ke Xu 0001'
p3324
I2
sS'Ching-Yung Lin'
p3325
I3
sS'Nicholas Larus-Stone'
p3326
I1
sS'Jeff M. Phillips'
p3327
I4
sS'Koji Tsuda'
p3328
I4
sS'David Lo'
p3329
I2
sS'Hsiao-Yu Tung'
p3330
I2
sS'Xiaoxi Du'
p3331
I1
sS'Hang Li'
p3332
I4
sS'Matthias Buchetics'
p3333
I1
sS'Kostas Zoumpatianos'
p3334
I1
sS'Navneet Kapur'
p3335
I1
sS'Ayesha Mahmud'
p3336
I1
sS'Arpan Chatterjee'
p3337
I1
sS'Ping Luo'
p3338
I10
sS'Javier Tejedor-Sojo'
p3339
I1
sS'Haixun Wang'
p3340
I3
sS'Yizhou Zhang'
p3341
I1
sS'Reid A. Johnson'
p3342
I1
sS'Ya Xu'
p3343
I6
sS'Inmar E. Givoni'
p3344
I1
sS'Dik Lun Lee'
p3345
I1
sS'Yookyung Jo'
p3346
I1
sS'Chad L. Myers'
p3347
I1
sS'Hanyuan Zhang'
p3348
I1
sS'Jun Zhang'
p3349
I2
sS'Ashish Gehani'
p3350
I1
sS'David Kempe 0001'
p3351
I3
sS'Eric Reiman'
p3352
I3
sS'Danny Yuxing Huang'
p3353
I1
sS'Junxian He'
p3354
I1
sS'Liang Ding'
p3355
I1
sS'Geoffrey M. Voelker'
p3356
I3
sS'Ilya Safro'
p3357
I1
sS'Ling Huang'
p3358
I1
sS'George Michailidis'
p3359
I1
sS'Smriti Bhagat'
p3360
I3
sS'Andrew T. Smith 0001'
p3361
I1
sS'Paul West'
p3362
I1
sS'Xiaotong Shen'
p3363
I3
sS'Haojun Zhang'
p3364
I2
sS'Aleksandra Mojsilovic'
p3365
I1
sS'V. S. Subrahmanian'
p3366
I3
sS'Keli Xiao'
p3367
I2
sS'Devon Callahan'
p3368
I1
sS'Anil K. Jain 0001'
p3369
I2
sS'Jessica Staddon'
p3370
I1
sS'Yang Zhou'
p3371
I5
sS'Jianqiang Shen'
p3372
I2
sS'Julian J. McAuley'
p3373
I1
sS'Jaewoo Lee'
p3374
I3
sS'Matt Perkins'
p3375
I1
sS'Zhouyuan Huo'
p3376
I1
sS'James R. Foulds'
p3377
I2
sS'Finale Doshi-Velez'
p3378
I1
sS'Jere Stokely'
p3379
I1
sS'Dong Xin'
p3380
I1
sS'Qiao Li'
p3381
I1
sS'Andrey Khalyavin'
p3382
I1
sS'Kirill Nikolaev'
p3383
I1
sS'Junhui Zhao'
p3384
I1
sS'Jung-ran Park'
p3385
I1
sS'Wentao Wang'
p3386
I1
sS'Mehran Bozorgi'
p3387
I1
sS'Blake Anderson'
p3388
I1
sS'Ying-Cheng Lai'
p3389
I1
sS'Philipp Tucker'
p3390
I1
sS'Junjie Yao'
p3391
I1
sS'Ullas Nambiar'
p3392
I1
sS'Kai Wei'
p3393
I1
sS'Xuhui Shao'
p3394
I1
sS'Thomas D. Griffin'
p3395
I1
sS'Kush R. Varshney'
p3396
I3
sS'Seung-won Hwang'
p3397
I2
sS'Matthew Heston'
p3398
I1
sS'David T. Arbour'
p3399
I1
sS'Viet Ha-Thuc'
p3400
I1
sS'Ming Lei'
p3401
I2
sS'Balaji Krishnapuram'
p3402
I1
sS'Kristina Lerman'
p3403
I2
sS'Vuk Malbasa'
p3404
I1
sS'Issam Sahel'
p3405
I1
sS'Meenakshi Nagarajan'
p3406
I1
sS'Philipp Kranen'
p3407
I1
sS'Shashank Srikant'
p3408
I2
sS'Dengyong Zhou'
p3409
I1
sS'Wei Peng 0001'
p3410
I1
sS'Seyyed Abbas Hosseini'
p3411
I1
sS'Chris Mesterharm'
p3412
I1
sS'Hani Neuvirth'
p3413
I1
sS'George H. Mills'
p3414
I1
sS'Rama Kumar Pasumarthi'
p3415
I1
sS'Tianyang Zhang'
p3416
I2
sS'Tong Xu'
p3417
I1
sS'Boris Chidlovskii'
p3418
I1
sS'Mal\xc3\xba Castellanos'
p3419
I2
sS'Christoph Lingenfelder'
p3420
I1
sS'Allison Aiello'
p3421
I1
sS'Hasan Davulcu'
p3422
I1
sS'Michael R. Brent'
p3423
I1
sS'Faizan Javed'
p3424
I2
sS'Jiong Yang'
p3425
I1
sS'Yilun Wang'
p3426
I1
sS'Nebojsa Jojic'
p3427
I1
sS'Zhichao Han'
p3428
I1
sS'Hilario Navarro'
p3429
I1
sS'Ran Gilad-Bachrach'
p3430
I1
sS'Andrew Caplin'
p3431
I1
sS'Pedro O. S. Vaz de Melo'
p3432
I2
sS'Lianghao Li'
p3433
I2
sS'Jianhua Feng'
p3434
I2
sS'Nikos Mamoulis'
p3435
I3
sS'Stephen Bay'
p3436
I1
sS'John C. Shafer'
p3437
I1
sS'Brian Abelson'
p3438
I1
sS'Hao Wu'
p3439
I1
sS'Fabio Pinelli'
p3440
I4
sS'John E. Hopcroft'
p3441
I1
sS'Qin Lv'
p3442
I1
sS'Robert Grossman'
p3443
I1
sS'Chuanren Liu'
p3444
I9
sS'Julian Katz-Samuels'
p3445
I1
sS'Thomas A. Montgomery'
p3446
I1
sS'Klaus Arthur Schmid'
p3447
I1
sS'Thomas Crook'
p3448
I1
sS'Mounia Lalmas'
p3449
I2
sS'Byoungyoung Lee'
p3450
I1
sS'Xiao Qin 0003'
p3451
I1
sS'Rich Holada'
p3452
I2
sS'Patrick C. K. Hung'
p3453
I1
sS'Peter B. Walker'
p3454
I3
sS'Nemanja Djuric'
p3455
I3
sS'Steve Goodison'
p3456
I1
sS'Omar Sinno'
p3457
I1
sS'Yongjie Cai'
p3458
I1
sS'Vikram Tankasali'
p3459
I1
sS'Alex Chojnacki'
p3460
I1
sS'Qi Rose Yu'
p3461
I1
sS'Wenyuan Dai'
p3462
I2
sS'Jiaqi Ma'
p3463
I1
sS'Matthew Staib'
p3464
I1
sS'Graham Cormode'
p3465
I2
sS'Rahul Agrawal'
p3466
I1
sS'Yinghui Wu'
p3467
I1
sS'Peter Lofgren'
p3468
I2
sS'Sastry Isukapalli'
p3469
I1
sS'Jingyuan Wang'
p3470
I1
sS'Bowei Chen'
p3471
I1
sS'Lei Tang'
p3472
I3
sS'James Long'
p3473
I1
sS'Ananth Grama'
p3474
I1
sS'Diane Tang'
p3475
I2
sS'Quanfu Fan'
p3476
I1
sS'William DuMouchel'
p3477
I1
sS'Francesco Iorio'
p3478
I1
sS'Achint Thomas'
p3479
I1
sS'Jing Zhang'
p3480
I2
sS'Wray L. Buntine'
p3481
I1
sS'Yi Zhang'
p3482
I3
sS'Aniket Kittur'
p3483
I2
sS'Ranga Raju Vatsavai'
p3484
I3
sS'Alon Shalita'
p3485
I1
sS'Chen Avin'
p3486
I1
sS'Chandan K. Reddy'
p3487
I4
sS'Yang Yang 0008'
p3488
I1
sS'Matthew F. Der'
p3489
I1
sS'David Soergel'
p3490
I1
sS'Simon Urbanek'
p3491
I1
sS'Sarah L. Taylor'
p3492
I1
sS'Muhammad R. Khan'
p3493
I1
sS'Udo Miletzki'
p3494
I1
sS'Mingrui Wu'
p3495
I1
sS'Jun Huan'
p3496
I6
sS'Mohamed Reda Bouadjenek'
p3497
I1
sS'Jamie Hoover'
p3498
I1
sS'Huayu Wu'
p3499
I2
sS'Alejandro de la Vega'
p3500
I1
sS'Philipp Singer'
p3501
I1
sS'Yutao Zhang'
p3502
I3
sS'Jun Wang 0006'
p3503
I2
sS'Zhijun Yin'
p3504
I1
sS'Olufemi A. Omitaomu'
p3505
I1
sS'Tabassum Kakar'
p3506
I1
sS'Geremy Heitz'
p3507
I1
sS'Rodica Pop-Busui'
p3508
I1
sS'Shengjie Wang'
p3509
I1
sS'Yuyu Zhang'
p3510
I2
sS'Dominik Mautz'
p3511
I2
sS'Daizhuo Chen'
p3512
I1
sS'Jinghui Chen'
p3513
I1
sS'Mingfei Teng'
p3514
I2
sS'Steve Herbert'
p3515
I1
sS'Yutaka Matsuo'
p3516
I1
sS'Yifan Zeng'
p3517
I1
sS'Giuseppe Ottaviano'
p3518
I1
sS'Koby Crammer'
p3519
I1
sS'Tom Plagge'
p3520
I1
sS'Chi-Hung Lin'
p3521
I1
sS'Wei-Ying Ma'
p3522
I4
sS'Riccardo Guidotti'
p3523
I1
sS'Jieping Ye'
p3524
I52
sS'James Bailey'
p3525
I5
sS'Amanda Thart'
p3526
I1
sS'Ilari Shafer'
p3527
I1
sS'Qing Wang'
p3528
I4
sS'Robert A. Legenstein'
p3529
I1
sS'Suojin Wang'
p3530
I1
sS'Mianwei Zhou'
p3531
I2
sS'Siyuan Liu'
p3532
I2
sS'Anjuli Kannan'
p3533
I1
sS'Junpei Komiyama'
p3534
I1
sS'Minmin Chen'
p3535
I1
sS'Umesh Gupta'
p3536
I1
sS'Xiaofang Zhou'
p3537
I2
sS'Li Wang 0033'
p3538
I1
sS'Xuejian Wang'
p3539
I1
sS'Alexandros Karakasidis 0001'
p3540
I1
sS'Jaime G. Carbonell'
p3541
I2
sS'Santanu Kolay'
p3542
I2
sS'George B. Davis'
p3543
I1
sS'Emma Pierson'
p3544
I1
sS'Marco Gruteser'
p3545
I1
sS'Cynthia Dwork'
p3546
I1
sS'Manuel Gomez-Rodriguez'
p3547
I4
sS'Keith R. Bisset'
p3548
I1
sS'Chien-Ju Ho'
p3549
I2
sS'Yitong Zhou'
p3550
I2
sS'Tajhal Dayaram'
p3551
I1
sS'Bert Huang'
p3552
I1
sS'Einoshin Suzuki'
p3553
I1
sS'Albert Bifet'
p3554
I8
sS'Sambaran Bandyopadhyay'
p3555
I1
sS'Yuan Wang'
p3556
I1
sS'Andrew Reece'
p3557
I1
sS'Vandana Pursnani Janeja'
p3558
I2
sS'Pietro Cicotti'
p3559
I1
sS'Uwe F. Mayer'
p3560
I1
sS'M. Narasimha Murty'
p3561
I1
sS'Yuefeng Li'
p3562
I1
sS'Zhiwen Yu'
p3563
I2
sS'Fei Wu 0003'
p3564
I1
sS'Wei Chong Shen'
p3565
I1
sS'Chunyan Wang 0001'
p3566
I1
sS'Daniel Ting'
p3567
I2
sS'Spyros Sioutas'
p3568
I1
sS'Antti Ukkonen'
p3569
I2
sS'Kaixiang Lin'
p3570
I2
sS'Tim Daly Jr.'
p3571
I1
sS'Charles Elkan'
p3572
I2
sS'Florian Lemmerich'
p3573
I1
sS'Alice X. Zheng'
p3574
I1
sS'Noman Mohammed'
p3575
I2
sS'Zohreh Nazeri'
p3576
I1
sS'Donghui Yan'
p3577
I1
sS'Heng Huang'
p3578
I8
sS'Naoki Nakashima'
p3579
I1
sS'Adam D. Smith'
p3580
I2
sS'Robert Moakler'
p3581
I1
sS'Josh Bloom'
p3582
I1
sS'Cheng-wei Chan'
p3583
I1
sS'Wael El-Deredy'
p3584
I1
sS'Marija Stankova'
p3585
I1
sS'Peter J. Haas'
p3586
I3
sS'Yiping Ke'
p3587
I2
sS'David Deutscher'
p3588
I1
sS'Nozomi Nori'
p3589
I1
sS'Ashwinkumar Badanidiyuru'
p3590
I1
sS'Yi Fang'
p3591
I1
sS'Marco Pennacchiotti'
p3592
I2
sS'Heikki Mannila'
p3593
I6
sS'Hongzhi Yin'
p3594
I3
sS'Hans-Peter Kriegel'
p3595
I3
sS'Horesh Ben Shitrit'
p3596
I1
sS'Paulo Shakarian'
p3597
I4
sS'Zhaonian Zou'
p3598
I1
sS'Aris Anagnostopoulos'
p3599
I2
sS'Xiaoyu Chen'
p3600
I1
sS'Abdulmohsen Algarni'
p3601
I1
sS'Mykola Pechenizkiy'
p3602
I1
sS'Xue Li'
p3603
I1
sS'Leland Wilkinson'
p3604
I1
sS'Mohammad Al Hasan'
p3605
I1
sS'Shijun Wang'
p3606
I1
sS'Horst D. Simon'
p3607
I1
sS'Wei Jin'
p3608
I1
sS'Paulo J. G. Lisboa'
p3609
I1
sS'Ashkan Aleali'
p3610
I1
sS'Jichang Zhao'
p3611
I1
sS'Qian Xiao'
p3612
I2
sS'Taraneh Taghavi'
p3613
I1
sS'Jen J. Gong'
p3614
I2
sS'Katharina Morik'
p3615
I1
sS'Tim Hesterberg'
p3616
I1
sS'Jeremiah J. Harmsen'
p3617
I1
sS'Abel N. Kho'
p3618
I1
sS'Rong Pan'
p3619
I4
sS'Everaldo Aguiar'
p3620
I1
sS'Ajinkya Kale'
p3621
I1
sS'Jeong-Yoon Lee'
p3622
I1
sS'Masayuki Karasuyama'
p3623
I1
sS'Liyuan Liu'
p3624
I1
sS'Xiao He'
p3625
I2
sS'Andrew Bate'
p3626
I1
sS'Pavel Serdyukov'
p3627
I2
sS'Johannes Gehrke'
p3628
I6
sS'Ariel Kleiner'
p3629
I1
sS'Ting Yu'
p3630
I1
sS'Jilles Vreeken'
p3631
I9
sS'Dilip Krishnan'
p3632
I1
sS'Slobodan Vucetic'
p3633
I3
sS'Mingsheng Long'
p3634
I1
sS'Collin Bennett'
p3635
I2
sS'Petros Drineas'
p3636
I2
sS'Luca Foschini'
p3637
I1
sS'Laxman Dhulipala'
p3638
I1
sS'Daniel Kifer'
p3639
I3
sS'Alice H. Oh'
p3640
I1
sS'Sam Regenbogen'
p3641
I2
sS'Mingxi Wu'
p3642
I2
sS'Aaron E. Tenney'
p3643
I1
sS'Qiang Li'
p3644
I1
sS'Feifei Li 0001'
p3645
I2
sS'Huahua Wang'
p3646
I1
sS'Bart Minnaert'
p3647
I1
sS'Shu Tao'
p3648
I4
sS'Wen-tau Yih'
p3649
I2
sS'Haijing Wang'
p3650
I1
sS'Stefano Leucci 0001'
p3651
I1
sS'Omid Madani'
p3652
I1
sS'Mo Yu'
p3653
I1
sS'Robert Mankoff'
p3654
I1
sS'Fangshan Wang'
p3655
I1
sS'Ting Li'
p3656
I1
sS'Roman Garnett'
p3657
I1
sS'Yu-Chuan Su'
p3658
I2
sS'Rui Zhang 0003'
p3659
I1
sS'Hiroki Sugiura'
p3660
I1
sS'Yong Li'
p3661
I1
sS'Yanxin Pan'
p3662
I1
sS'C\xc3\xa9line Robardet'
p3663
I2
sS'Ruiyuan Li'
p3664
I1
sS'Xiaomin Fang'
p3665
I1
sS'Yair Lakretz'
p3666
I1
sS'Virginia Smith'
p3667
I1
sS'Qiang Zhu 0002'
p3668
I3
sS'Atri Mandal'
p3669
I1
sS'Xiaokui Xiao'
p3670
I2
sS'Mainak Mazumdar'
p3671
I1
sS'Ashok Srivastava'
p3672
I2
sS'Timothy J. Bethea'
p3673
I1
sS'Sundararajan Sellamanickam'
p3674
I2
sS'Ulrich Paquet'
p3675
I1
sS'Gary L. Miller'
p3676
I1
sS'Alexander Burnap'
p3677
I1
sS'Gin Howe Goh'
p3678
I1
sS'Wai Lam'
p3679
I2
sS'Nitin Motgi'
p3680
I1
sS'Wei-Sheng Chin'
p3681
I2
sS'Hong-Han Shuai'
p3682
I2
sS'Noha Ibrahim'
p3683
I1
sS'Nikolay Archak'
p3684
I1
sS'Dan A. Simovici'
p3685
I1
sS'Uwe Gl\xc3\xa4sser'
p3686
I1
sS'Lionel M. Ni'
p3687
I1
sS'Angela D. Wilkins'
p3688
I2
sS'Paula Elaine Stretz'
p3689
I1
sS'Oleksandr Polozov'
p3690
I1
sS'Kian-Lee Tan'
p3691
I3
sS'Frank Cao'
p3692
I1
sS'Murat Kantarcioglu'
p3693
I2
sS'Mikhail Krivenko'
p3694
I1
sS'Tracy De Poalo'
p3695
I1
sS'Cayden Meyer'
p3696
I1
sS'Carlotta Domeniconi'
p3697
I2
sS'Fei Wang 0001'
p3698
I15
sS'Milind Bhandarkar'
p3699
I1
sS'Keli Zhang'
p3700
I1
sS'Marianne Clausel'
p3701
I1
sS'Simon Lacoste-Julien'
p3702
I1
sS'Dijun Luo'
p3703
I1
sS'Jonathan Williams'
p3704
I1
sS'Kiyana Zolfaghar'
p3705
I2
sS'Hui Li'
p3706
I1
sS'Yong Ren'
p3707
I1
sS'Hill Nguyen'
p3708
I1
sS'Xiaoxun Zhang'
p3709
I1
sS'Ramayya Krishnan'
p3710
I1
sS'Shahzad Malik Malik'
p3711
I1
sS'Hagai Michaelis'
p3712
I1
sS'Xuemei Liu'
p3713
I1
sS'Mamta Jaiswal'
p3714
I1
sS'Ryo Asaoka'
p3715
I2
sS'Jaewon Yang'
p3716
I3
sS'\xc3\x89milien Antoine'
p3717
I1
sS'Lei Cao'
p3718
I5
sS'George Karypis'
p3719
I1
sS'Rossano Schifanella'
p3720
I1
sS'Qingquan Song'
p3721
I1
sS'Ping Ji'
p3722
I1
sS'Chenzi Zhang'
p3723
I1
sS'Ni Wang'
p3724
I1
sS'Parikshit Shah'
p3725
I2
sS'Michael Feldman'
p3726
I1
sS'Laetitia Papaxanthos'
p3727
I1
sS'Jing Jiang'
p3728
I2
sS'Sulin Liu'
p3729
I1
sS'You Chen'
p3730
I1
sS'Ying Chen'
p3731
I1
sS'Colleen McCue'
p3732
I1
sS'Rong Yan'
p3733
I1
sS'Lifang He'
p3734
I2
sS'Santhosh Kodipaka'
p3735
I1
sS'Yasutoshi Ida'
p3736
I1
sS'Robin Sommer'
p3737
I1
sS'Jiajing Xu'
p3738
I1
sS'Peter Christen'
p3739
I3
sS'Mohammad Shafkat Amin'
p3740
I1
sS'Ying Li'
p3741
I1
sS'Hongbo Deng'
p3742
I5
sS'Gabriela Csurka'
p3743
I1
sS'Hongyuan Zha'
p3744
I3
sS'Natasha Balac'
p3745
I1
sS'Achla Marathe'
p3746
I2
sS'J. Saketha Nath'
p3747
I1
sS'Zhongfei Zhang'
p3748
I1
sS'Shobha Venkataraman'
p3749
I1
sS'Roel Bertens'
p3750
I1
sS'Anurag Ambekar'
p3751
I1
sS'Rui Liu'
p3752
I2
sS'James H. Harrison Jr.'
p3753
I1
sS'Robin Devooght'
p3754
I1
sS'Stuart Morgan'
p3755
I1
sS'Feida Zhu'
p3756
I2
sS'Adwait Ratnaparkhi'
p3757
I1
sS'Nicol\xc3\xa1s Poggi'
p3758
I1
sS'Debprakash Patnaik'
p3759
I2
sS'Xiaocong Liang'
p3760
I1
sS'Shonali Krishnaswamy'
p3761
I1
sS'Perng-Hwa Kung'
p3762
I1
sS'Ulf Brefeld'
p3763
I1
sS'Qing He'
p3764
I3
sS'Cun-Hui Zhang'
p3765
I1
sS'Dakshi Agrawal'
p3766
I1
sS'Raquel Y. S. Aoki'
p3767
I1
sS'Pavan Vatturi'
p3768
I1
sS'Aixin Sun'
p3769
I1
sS'Jonathan R. M. Hosking'
p3770
I1
sS'Jamie Smith'
p3771
I1
sS'Minas Gjoka'
p3772
I1
sS'Mario Inchiosa'
p3773
I1
sS'Flavia Moser'
p3774
I1
sS'Dan Kushnir'
p3775
I1
sS'Brad Rees'
p3776
I1
sS'Komal Kapoor'
p3777
I2
sS'Vasant Dhar'
p3778
I1
sS'Gagan Agrawal'
p3779
I1
sS'Richard Maclin'
p3780
I1
sS'Yu Rong'
p3781
I1
sS'Ye Zhu'
p3782
I1
sS'Pedro Olmo Stancioli Vaz de Melo'
p3783
I1
sS'Carlos Ordonez 0001'
p3784
I2
sS'Jean Pouget-Abadie'
p3785
I1
sS'Stergios Stergiou'
p3786
I1
sS'Yong Ge'
p3787
I15
sS'Gilad Mishne'
p3788
I1
sS'Ping Chen'
p3789
I1
sS'Qinglong Wang'
p3790
I1
sS'Bo Li'
p3791
I1
sS'Han Leong Goh'
p3792
I1
sS'Joel Young'
p3793
I1
sS'Ata Kab\xc3\xa1n'
p3794
I2
sS'Jianfeng Qian'
p3795
I1
sS'Shifu Hou'
p3796
I1
sS'Van Dang'
p3797
I1
sS'Christopher Meek'
p3798
I1
sS'Hung-Hsuan Chen'
p3799
I1
sS'Partha Pratim Ghosh'
p3800
I1
sS'Anna Rumshisky'
p3801
I1
sS'Ravigopal Vennelakanti'
p3802
I1
sS'Alex C. Snoeren'
p3803
I1
sS'Sharon Shoham'
p3804
I1
sS'Mohammad M. Ghassemi'
p3805
I1
sS'Sina Jafarpour'
p3806
I1
sS'Shivali Agarwal'
p3807
I1
sS'Christopher L. Carmichael'
p3808
I1
sS'Karthikeyan Shanmugam'
p3809
I1
sS'Dan He'
p3810
I1
sS'Yan Zhou'
p3811
I1
sS'Jacob Ratkiewicz'
p3812
I1
sS'Di Yang'
p3813
I1
sS'Chang-Tien Lu'
p3814
I7
sS'Jingyi Guo'
p3815
I1
sS'Chuan Yu Foo'
p3816
I1
sS'Luigi Portinale'
p3817
I1
sS'Erfan Tavakoli'
p3818
I1
sS'Azin Ashkan'
p3819
I1
sS'Huan Liu'
p3820
I16
sS'Liang Ge'
p3821
I1
sS'Son Nguyen'
p3822
I1
sS'Chul Lee'
p3823
I1
sS'Alex Memory'
p3824
I1
sS'Phillip A. Porras'
p3825
I1
sS'Yue Min'
p3826
I1
sS'Joseph Tucek'
p3827
I1
sS'Weiwei Zhuang'
p3828
I1
sS'Justin Sybrandt'
p3829
I1
sS'James McCann'
p3830
I1
sS'Wei Cheng'
p3831
I2
sS'Mingyuan Zhou'
p3832
I1
sS'Joseph M. Hellerstein'
p3833
I1
sS'Daby M. Sow'
p3834
I1
sS'Andrew S. Fast'
p3835
I2
sS'John D. Lafferty'
p3836
I1
sS'Martin Wattenberg'
p3837
I1
sS'Dimitrios M. Thilikos'
p3838
I1
sS'Daniel R. Figueiredo'
p3839
I1
sS'Mark Gorenberg'
p3840
I1
sS'Michael Borokhovich'
p3841
I1
sS'Hongning Wang'
p3842
I2
sS'Zhangqing Shan'
p3843
I1
sS'Minh Huynh'
p3844
I1
sS'Jianwen Zhang'
p3845
I1
sS'Bing Liu 0001'
p3846
I8
sS'Liang Zhang'
p3847
I5
sS'Renato Martins Assun\xc3\xa7\xc3\xa3o'
p3848
I2
sS'A. Nur Zincir-Heywood'
p3849
I1
sS'Xiaolong Zhu'
p3850
I1
sS'David Sontag'
p3851
I1
sS'Xiaoming Li'
p3852
I2
sS'Jun Sakuma'
p3853
I1
sS'Wei Wang 0009'
p3854
I1
sS'Marie-Aude Aufaure'
p3855
I1
sS'Rave Harpaz'
p3856
I1
sS'Caleb Chen Cao'
p3857
I3
sS'Sadegh M. Milajerdi'
p3858
I1
sS'Aaron Q. Li'
p3859
I1
sS'Illia Polosukhin'
p3860
I1
sS'Daphne Koller'
p3861
I2
sS'Kittipat Virochsiri'
p3862
I1
sS'Qingqi Yue'
p3863
I1
sS'Sujith Ravi'
p3864
I2
sS'Ning Ruan'
p3865
I1
sS'Guoming He'
p3866
I1
sS'Jun Wang 0012'
p3867
I1
sS'Marie-Christine Rousset'
p3868
I1
sS'Samuel Kaski'
p3869
I1
sS'Steve A. Chien'
p3870
I1
sS'Jon Patrick'
p3871
I1
sS'Christopher Potter'
p3872
I1
sS'Qi Liu'
p3873
I5
sS'Zijun Yao'
p3874
I2
sS'Duncan J. Watts'
p3875
I3
sS'Harikrishna G. N. Rai'
p3876
I1
sS'Zhengbing Li'
p3877
I1
sS'Julio L\xc3\xb3pez'
p3878
I1
sS'Guo-Xian Yu'
p3879
I1
sS'Ka Cheung Sia'
p3880
I1
sS'Wilko Horn'
p3881
I1
sS'Caetano Traina Jr.'
p3882
I2
sS'Frank Reichartz'
p3883
I1
sS'Dong Wang'
p3884
I2
sS'Keith Noto'
p3885
I1
sS'Vivek Veeriah'
p3886
I1
sS'Udi Weinsberg'
p3887
I1
sS'Pavel Dmitriev'
p3888
I1
sS'Fabian Moerchen'
p3889
I1
sS'Jerome H. Friedman'
p3890
I1
sS'Jianlin Feng'
p3891
I1
sS'Motoki Shiga'
p3892
I1
sS'Barnab\xc3\xa1s P\xc3\xb3czos'
p3893
I1
sS'Miguel Santana'
p3894
I1
sS'Saba Emrani'
p3895
I1
sS'Adetokunbo Makanju'
p3896
I1
sS'Jefrey Lijffijt'
p3897
I1
sS'Juan M. Huerta'
p3898
I1
sS'Dong Shou'
p3899
I1
sS'Zijie Qi'
p3900
I1
sS'Michael Br\xc3\xbcckner'
p3901
I1
sS'David Andersen'
p3902
I1
sS'Bryan Minor'
p3903
I1
sS'Philippe Lambin'
p3904
I1
sS'Vipin Kumar'
p3905
I10
sS'Chun-Fu Chang'
p3906
I1
sS'Nicholas D. Sidiropoulos'
p3907
I1
sS'Sergey Kirshner'
p3908
I1
sS'A. Keith Dunker'
p3909
I1
sS'Reynold Cheng'
p3910
I3
sS'Alexandros Nanopoulos'
p3911
I1
sS'Baharan Mirzasoleiman'
p3912
I1
sS'Sen Yang'
p3913
I4
sS'Leman Akoglu'
p3914
I11
sS'Liheng Zhang'
p3915
I1
sS'Sergey Tolkachov'
p3916
I1
sS'Tao Yang 0016'
p3917
I2
sS'Wenjie Fu'
p3918
I1
sS'Nilesh N. Dalvi'
p3919
I2
sS'Shandian Zhe'
p3920
I1
sS'Richard Frank'
p3921
I1
sS'Shivakant Mishra'
p3922
I1
sS'Jianmin Wang 0001'
p3923
I2
sS'Chia-Hua Ho'
p3924
I2
sS'Paritosh Desai'
p3925
I1
sS'Zhi Wei'
p3926
I1
sS'Seshadhri Comandur'
p3927
I1
sS'Lora Weiss'
p3928
I1
sS'Jun Yan'
p3929
I3
sS'Shiva Prasad Kasiviswanathan'
p3930
I1
sS'Joshua E. Blumenstock'
p3931
I1
sS'Kevin Chen-Chuan Chang'
p3932
I2
sS'Ming-Wei Chang'
p3933
I1
sS'Renata Teixeira'
p3934
I1
sS'Hiroshi Sawada'
p3935
I2
sS'Yasuhiro Sogawa'
p3936
I1
sS'Seth R. Flaxman'
p3937
I1
sS'Anthony K. H. Tung'
p3938
I1
sS'Mario Cataldi'
p3939
I1
sS'Yalin Wang 0001'
p3940
I2
sS'C. H. Bryan Liu'
p3941
I1
sS'Vincent S. Tseng'
p3942
I4
sS'Ross E. Curtis'
p3943
I1
sS'Chengnian Sun'
p3944
I1
sS'Baihua Zheng'
p3945
I1
sS'Srinivasan Parthasarathy 0001'
p3946
I9
sS'Lu\xc3\xads Torgo'
p3947
I1
sS'Srinivasan Parthasarathy 0002'
p3948
I1
sS'Changying Du'
p3949
I1
sS'Quan Lu'
p3950
I1
sS'Liangda Li'
p3951
I2
sS'Chang Tan'
p3952
I1
sS'Andy Berglund'
p3953
I1
sS'Jiannan Wang'
p3954
I1
sS'Ravi Konuru'
p3955
I1
sS'Thomas S. Huang'
p3956
I2
sS'Jake T. Lussier'
p3957
I1
sS'Jeong-Hoon Lee'
p3958
I1
sS'Zihui Ge'
p3959
I1
sS'Jiang Li'
p3960
I1
sS'Jelena Tesic'
p3961
I1
sS'Feijun Jiang'
p3962
I1
sS'Greg Papadopoulos'
p3963
I1
sS'Purnamrita Sarkar'
p3964
I1
sS'Yu-Feng Lin'
p3965
I1
sS'Math\xc3\xa4us Dejori'
p3966
I1
sS'Krishna Prasad Chitrapura'
p3967
I1
sS'Acar Tamersoy'
p3968
I1
sS'Marko Grobelnik'
p3969
I1
sS'Jiefeng Cheng'
p3970
I1
sS'Qian Sun'
p3971
I5
sS'Richard Han'
p3972
I1
sS'Jeffrey Fisher'
p3973
I1
sS'Hal Varian'
p3974
I1
sS'Andrew McCallum'
p3975
I8
sS'Mingxuan Sun'
p3976
I1
sS'Adam Woznica'
p3977
I1
sS'Masaaki Kotera'
p3978
I1
sS'Lijun Tang'
p3979
I1
sS'Joaquin Qui\xc3\xb1onero Candela'
p3980
I1
sS'Liang Zhan'
p3981
I1
sS'Liang Zhao'
p3982
I5
sS'Vitaly Vasilyev'
p3983
I1
sS'Robson Leonardo Ferreira Cordeiro'
p3984
I1
sS'Carsten Wiuf'
p3985
I1
sS'Xinyu Xing'
p3986
I2
sS'Olivier Verscheure'
p3987
I2
sS'Kewei Chen'
p3988
I3
sS'Guruprasad Nayak'
p3989
I1
sS'Shuang Qiu'
p3990
I1
sS'Bo Xie 0002'
p3991
I1
sS'Jared Webb'
p3992
I1
sS'Zeeshan Syed'
p3993
I1
sS'Aamir Anis'
p3994
I1
sS'Zhihong Shen'
p3995
I1
sS'P. J. Opalinski'
p3996
I1
sS'Geoffrey Holmes'
p3997
I1
sS'Yelong Shen'
p3998
I2
sS'Hyuna Pyo'
p3999
I1
sS'Michael J. E. Sternberg'
p4000
I1
sS'William Cukierski'
p4001
I1
sS'Yu-Ru Lin'
p4002
I2
sS'Regunathan Radhakrishnan'
p4003
I1
sS'Yi Wang 0008'
p4004
I1
sS'Michael Smith 0024'
p4005
I1
sS'Rodrigo Augusto da Silva Alves'
p4006
I1
sS'Vatche Ishakian'
p4007
I1
sS'Paolo Boldi'
p4008
I1
sS'Tianxiong Zhou'
p4009
I1
sS'Minlie Huang'
p4010
I1
sS'Anmol Bhasin'
p4011
I4
sS'Roni Khardon'
p4012
I1
sS'Jian Jiao'
p4013
I1
sS'Houfeng Wang'
p4014
I1
sS'Joshua C. Denny'
p4015
I1
sS'Jeremy Howard'
p4016
I2
sS'Solomon Assefa'
p4017
I1
sS'Prithu Banerjee'
p4018
I1
sS'Paul Koch'
p4019
I1
sS'Sudhir Kumar'
p4020
I2
sS'Pengliang Ding'
p4021
I1
sS'I. Ralph Edwards'
p4022
I1
sS'Mika Rautiainen'
p4023
I1
sS'Xiaoyu Zhang'
p4024
I1
sS'Ari Leichtberg'
p4025
I1
sS'Yeye He'
p4026
I1
sS'Fei Pan'
p4027
I1
sS'Richard Kirkby'
p4028
I1
sS'Roger Longbotham'
p4029
I3
sS'Rupinder Paul Khandpur'
p4030
I3
sS'Ralph Krieger'
p4031
I1
sS'Yu Zheng'
p4032
I5
sS'U. Kang'
p4033
I6
sS'Daniel S. Weld'
p4034
I1
sS'C. P. T. Estella Patterson'
p4035
I1
sS'Wouter Duivesteijn'
p4036
I1
sS'Hsuan-Tien Lin'
p4037
I3
sS'Emily Denton'
p4038
I1
sS'Emine Yilmaz'
p4039
I1
sS'Matthew Reardon'
p4040
I1
sS'Anand Rangarajan 0001'
p4041
I1
sS'Jasleen Kaur'
p4042
I1
sS'Roberto Pagliari'
p4043
I1
sS'Hugo Larochelle'
p4044
I1
sS'Zhaosong Lu'
p4045
I1
sS'Shang-Tse Chen'
p4046
I1
sS'Brendan Lucier'
p4047
I1
sS'Shou-de Lin'
p4048
I1
sS'Hongfei Yan'
p4049
I1
sS'Wenbo Guo'
p4050
I1
sS'Dunja Mladenic'
p4051
I1
sS'Jie Tang'
p4052
I19
sS'Nigam H. Shah'
p4053
I1
sS'De-Nian Yang'
p4054
I5
sS'Rui Wang'
p4055
I1
sS'Subhrajit Bhattacharya'
p4056
I1
sS'Tiantian Zha'
p4057
I1
sS'Il-Chul Moon'
p4058
I1
sS'Paul Power'
p4059
I2
sS'Hong Chen'
p4060
I1
sS'Stefan Liess'
p4061
I2
sS'St\xc3\xa9phane Marchand-Maillet'
p4062
I1
sS'Binh Luong Thanh'
p4063
I1
sS'Martin Storgaard'
p4064
I1
sS'John Hainsworth'
p4065
I1
sS'David Stein'
p4066
I1
sS'Guangtao Wang'
p4067
I1
sS'Christopher Berry'
p4068
I1
sS'Hao Wang 0024'
p4069
I1
sS'Koji Hino'
p4070
I1
sS'Flavio Chierichetti'
p4071
I4
sS'Wenzhu Tong'
p4072
I2
sS'Assaf Ben-David'
p4073
I1
sS'Stefan Kramer 0001'
p4074
I4
sS'Clemens Mewald'
p4075
I2
sS'Tobias Emrich'
p4076
I1
sS'Hwanjo Yu'
p4077
I6
sS'Dan Preston'
p4078
I1
sS'Christopher C. Yang'
p4079
I1
sS'Anna E. Tschiffely'
p4080
I1
sS'Emre Sefer'
p4081
I1
sS'Arto Heikkinen'
p4082
I1
sS'Jinyan Li'
p4083
I2
sS'Hod Lipson'
p4084
I1
sS'Deepavali Bhagwat'
p4085
I1
sS'Chen Chen 0018'
p4086
I1
sS'Steven H. H. Ding'
p4087
I1
sS'Andriy Ivannikov'
p4088
I1
sS'Reuben Kan'
p4089
I1
sS'Prithviraj Sen'
p4090
I2
sS'Wenlei Xie'
p4091
I1
sS'Michael Busch'
p4092
I1
sS'Kecia L. Addison'
p4093
I1
sS'Vijay Arya'
p4094
I1
sS'Fangqiu Han'
p4095
I1
sS'Kishore Jonna'
p4096
I1
sS'Hiroki Arimura'
p4097
I1
sS'Ramachandra Kota'
p4098
I1
sS'Kai Ming Ting'
p4099
I2
sS'Jason J. Corso'
p4100
I1
sS'Animesh Nandi'
p4101
I1
sS'Mohamed Kamel'
p4102
I1
sS'Reza Bosagh Zadeh'
p4103
I1
sS'Giannis Tzimas'
p4104
I1
sS'Ann B. Ragin'
p4105
I1
sS'Shengqi Yang'
p4106
I2
sS'Heng-Tze Cheng'
p4107
I2
sS'Osamuyimen Stewart'
p4108
I1
sS'Jiefei Li'
p4109
I1
sS'Melissa Sader'
p4110
I1
sS'Paul E. Moraal'
p4111
I1
sS'Yuening Hu'
p4112
I1
sS'Sam Liu'
p4113
I1
sS'Shinji Ito'
p4114
I1
sS'Xinxing Yang'
p4115
I1
sS'Sridha Sridharan'
p4116
I1
sS'Srivatsan Laxman'
p4117
I3
sS'Lin Liu 0001'
p4118
I2
sS'Belle L. Tseng'
p4119
I6
sS'H. P. Shanahan'
p4120
I1
sS'Robert Porzel'
p4121
I1
sS'Shebuti Rayana'
p4122
I1
sS'Anil Vullikanti'
p4123
I2
sS'Forest Agostinelli'
p4124
I1
sS'Hongyan Zhou'
p4125
I1
sS'Akihiro Kishimoto'
p4126
I1
sS'Ruihua Song'
p4127
I2
sS'Donn Morrison'
p4128
I1
sS'Roni Rosenfeld'
p4129
I1
sS'Sriram Somanchi'
p4130
I1
sS'Senjuti Basu Roy'
p4131
I3
sS'Whitfield Diffie'
p4132
I1
sS'Peng Cui'
p4133
I12
sS'Glenn Fung'
p4134
I3
sS'Yabo Xu'
p4135
I1
sS'Youmna Borghol'
p4136
I1
sS'Mingwang Tang'
p4137
I1
sS'Keyang Zhang'
p4138
I1
sS'Jim Ford'
p4139
I1
sS'Alla Rozovskaya'
p4140
I1
sS'Ariyam Das'
p4141
I1
sS'Seymour Douglas'
p4142
I1
sS'Rick Lawrence'
p4143
I1
sS'Salvatore Scellato'
p4144
I2
sS'Addicam V. Sanjay'
p4145
I1
sS'Avinash Gupta'
p4146
I1
sS'Robert Manduca'
p4147
I1
sS'Alessandro Donati'
p4148
I1
sS'Li Zhou'
p4149
I2
sS'Ryan Lichtenwalter'
p4150
I1
sS'Irfan A. Essa'
p4151
I1
sS'Yintao Yu'
p4152
I3
sS'Hamid R. Rabiee'
p4153
I1
sS'Sudip Roy 0002'
p4154
I1
sS'Juhua Hu'
p4155
I1
sS'David C. Parkes'
p4156
I1
sS'Bowen Du'
p4157
I1
sS'Hsu-Kuang Chiu'
p4158
I1
sS'Kun Kuang'
p4159
I1
sS'Leonid Sigal'
p4160
I1
sS'Amarjeet Singh 0001'
p4161
I1
sS'Andreas Hotho'
p4162
I1
sS'Jamie F. Olson'
p4163
I1
sS'Nikunj C. Oza'
p4164
I4
sS'Josh Livni'
p4165
I1
sS'Matthew Hinds-Aldrich'
p4166
I1
sS'Karthik Raman 0001'
p4167
I3
sS'Yanwei Guo'
p4168
I1
sS'Giovanni Comarela'
p4169
I1
sS'Mark James Carman'
p4170
I1
sS'Sozo Inoue'
p4171
I1
sS'Victor E. Lee'
p4172
I2
sS'Murat Dundar'
p4173
I2
sS'Kai-Wei Chang'
p4174
I3
sS'Shichen Liu'
p4175
I1
sS'Dan Liu'
p4176
I1
sS'Changshui Zhang'
p4177
I3
sS'Xu Miao'
p4178
I1
sS'Pavel P. Kuksa'
p4179
I1
sS'Amin Karbasi'
p4180
I1
sS'S. S. Ravi'
p4181
I1
sS'Chi Wang 0001'
p4182
I14
sS'Yves Matkovic'
p4183
I1
sS'Robert J. Yan'
p4184
I1
sS'Beno\xc3\xaet Dumoulin'
p4185
I1
sS'Jong Kim 0001'
p4186
I1
sS'Jingci Ming'
p4187
I2
sS'Adam Jatowt'
p4188
I1
sS'Kotagiri Ramamohanarao'
p4189
I1
sS'Zhicheng Cui'
p4190
I1
sS'Christian Posse'
p4191
I1
sS'Anoop Korattikara'
p4192
I1
sS'Leon Stein'
p4193
I1
sS'Alexandre Mah'
p4194
I1
sS'Yi Mao'
p4195
I2
sS'Meghana Deodhar'
p4196
I2
sS'James T. Wilson'
p4197
I1
sS'Miguel Angel Alcobendas Lisbona'
p4198
I1
sS'Wei Wang 0010'
p4199
I4
sS'Tian Lin'
p4200
I1
sS'Benjamin Letham'
p4201
I1
sS'Alona Fyshe'
p4202
I1
sS'Neha Parikh'
p4203
I1
sS'Igor Kushnir'
p4204
I1
sS'Fabr\xc3\xadcio Benevenuto'
p4205
I1
sS'Liwei Wu'
p4206
I1
sS'Fan Guo'
p4207
I2
sS'Yunfei Lu'
p4208
I1
sS'Ying Wu'
p4209
I1
sS'Nicole Eikmeier'
p4210
I1
sS'Kareem S. Aggour'
p4211
I1
sS'Jeonghee Yi'
p4212
I2
sS'Minghui Qiu'
p4213
I2
sS'Alex Morales'
p4214
I1
sS'Jin-yi Cai'
p4215
I1
sS'Xing Zhao'
p4216
I1
sS'Hastagiri P. Vanchinathan'
p4217
I1
sS'Mirela Madalina Botezatu'
p4218
I2
sS'Aziz Huq'
p4219
I1
sS'Geli Fei'
p4220
I2
sS'Daniel P. Huttenlocher'
p4221
I2
sS'D\xc3\xb3ra Erd\xc3\xb6s'
p4222
I1
sS'Zhengyu Wang'
p4223
I1
sS'Zheng Zhao'
p4224
I4
sS'Amit Singh 0003'
p4225
I1
sS'Qinli Yang'
p4226
I2
sS'Rion Snow'
p4227
I1
sS'Matthew Malloy'
p4228
I1
sS'Antonio J. de Castro'
p4229
I1
sS'Yongxin Tong'
p4230
I4
sS'Janardhan Rao Doppa'
p4231
I1
sS'Naeemul Hassan'
p4232
I1
sS'Dou Shen'
p4233
I1
sS'Forrest Briggs'
p4234
I1
sS'Haoyu Zhang'
p4235
I1
sS'Steffen Rendle'
p4236
I2
sS'Sam Seljan'
p4237
I1
sS'Bai Wang'
p4238
I4
sS'Vidyuth Srinivasan'
p4239
I1
sS'Hakan Ferhatosmanoglu'
p4240
I1
sS'Karla L. Caballero Barajas'
p4241
I1
sS'Ajit Singh'
p4242
I1
sS'Christopher D. Manning'
p4243
I1
sS'Ian Fox'
p4244
I1
sS'Evangelos Kanoulas'
p4245
I1
sS'Martin Renqiang Min'
p4246
I2
sS'Marco Saerens'
p4247
I1
sS'Tianbao Yang'
p4248
I5
sS'Yang Zhang 0001'
p4249
I1
sS'Dan Sommerfield'
p4250
I1
sS'Yukino Baba'
p4251
I2
sS'Emile Jorgenson'
p4252
I1
sS'Delia Rusu'
p4253
I1
sS'Darya Filippova'
p4254
I1
sS'Xiaohan Zhang'
p4255
I1
sS'Kelly Ryan'
p4256
I1
sS'Shou-De Lin'
p4257
I9
sS'Chien-Liang Liu'
p4258
I1
sS'Jake M. Hofman'
p4259
I1
sS'Bin Zhou 0002'
p4260
I1
sS'Kelvin Luu'
p4261
I1
sS'Troy Chevalier'
p4262
I1
sS'Shuo Chen'
p4263
I3
sS'Diego S\xc3\xa1ez-Trumper'
p4264
I2
sS'Giorgio Leonardi'
p4265
I1
sS'Virg\xc3\xadlio A. F. Almeida'
p4266
I3
sS'Arne Koopman'
p4267
I1
sS'Shin Ando'
p4268
I1
sS'John P. Thompson'
p4269
I1
sS'Nick G. Duffield'
p4270
I2
sS'Tak W. Yan'
p4271
I3
sS'Deguang Kong'
p4272
I1
sS'George Valkanas'
p4273
I1
sS'Ha-Myung Park'
p4274
I1
sS'Yukihiro Tagami'
p4275
I3
sS'Xinyu Wei'
p4276
I3
sS'Bingsheng Wang'
p4277
I2
sS'Zi Yang'
p4278
I1
sS'Hector Garcia-Molina'
p4279
I3
sS'Matthijs van Leeuwen'
p4280
I1
sS'Min Wu 0008'
p4281
I1
sS'Shuo Zhou'
p4282
I1
sS'Prabhakar Raghavan'
p4283
I2
sS'Jon Hutchins'
p4284
I1
sS'Anya McGuirk'
p4285
I1
sS'Gong Chen'
p4286
I1
sS'Jakob Eriksson'
p4287
I1
sS'Richard Weber'
p4288
I1
sS'Xuren Zhou'
p4289
I1
sS'Vivek Ramamurthy'
p4290
I1
sS'Xue Liu'
p4291
I2
sS'Hsiang-Fu Yu'
p4292
I1
sS'Mong-Li Lee'
p4293
I2
sS'Raffael Marty'
p4294
I1
sS'Erin K. Grey'
p4295
I1
sS'Cecilia Mascolo'
p4296
I2
sS'Liudmila Ulanova'
p4297
I2
sS'Pinar Donmez'
p4298
I1
sS'Hua Ouyang'
p4299
I2
sS'Lawrence K. Saul'
p4300
I3
sS'Weihong Qian'
p4301
I1
sS'Bikram Sengupta'
p4302
I2
sS'Hui Xiong'
p4303
I37
sS'Daniel Boley'
p4304
I1
sS'Richard W. Vuduc'
p4305
I1
sS'Peng Xu'
p4306
I1
sS'Nanyu Chen'
p4307
I2
sS'Ole J. Mengshoel'
p4308
I1
sS'Seth A. Myers'
p4309
I2
sS'Honglei Zhuang'
p4310
I4
sS'Susan Briffa-Mirabella'
p4311
I1
sS'Amanda Gentzel'
p4312
I1
sS'Gary Hill'
p4313
I1
sS'Xin Mu'
p4314
I1
sS'Zheng Wang 0011'
p4315
I3
sS'Changsung Kang'
p4316
I1
sS'Hieu Khac Le'
p4317
I1
sS'Christoph Helma'
p4318
I1
sS'Chunqiu Zeng'
p4319
I5
sS'Yadong Zhu'
p4320
I1
sS'Theodoros Lappas'
p4321
I7
sS'Andreas Martin Lisewski'
p4322
I2
sS'Alex Deng'
p4323
I4
sS'Marco Avvenuti'
p4324
I1
sS'Johann Gamper'
p4325
I1
sS'Daniel B. Neill'
p4326
I2
sS'Arno Candel'
p4327
I1
sS'Moshe Lichman'
p4328
I1
sS'Ambuj K. Singh'
p4329
I3
sS'Iyad Batal'
p4330
I1
sS'Sunil Kumar Gupta 0001'
p4331
I1
sS'Jayshree Agarwal'
p4332
I1
sS'Xiangyu Zhao'
p4333
I1
sS'Felix Wu'
p4334
I2
sS'Furu Wei'
p4335
I2
sS'Sean Gilpin'
p4336
I3
sS'Byron C. Wallace'
p4337
I1
sS'Jian-Guang Lou'
p4338
I2
sS'Yanchi Liu'
p4339
I4
sS'Arya Farahi'
p4340
I1
sS'Mark Sandler'
p4341
I1
sS'M. Zubair Shafiq'
p4342
I1
sS'Dimitrios Kotzias'
p4343
I1
sS'Hui Zhang'
p4344
I1
sS'Xinwei Deng'
p4345
I1
sS'Alejandra Caro'
p4346
I1
sS'Shanyang Yin'
p4347
I1
sS'Alceu Ferraz Costa'
p4348
I1
sS'Nish Parikh'
p4349
I2
sS'Yanhua Li'
p4350
I1
sS'Zhong Su'
p4351
I2
sS'Neel Sundaresan'
p4352
I4
sS'Qi Lu'
p4353
I1
sS'Jeanne M. VanBriesen'
p4354
I1
sS'Elaine Angelino'
p4355
I1
sS'Shi Zhi'
p4356
I2
sS'So Hirai'
p4357
I1
sS'Zhixiang Eddie Xu'
p4358
I1
sS'Christoph Studer'
p4359
I2
sS'Hila Becker'
p4360
I1
sS'Min Wang'
p4361
I6
sS'Steve B. Jiang'
p4362
I1
sS'Kuan-Hao Huang'
p4363
I2
sS'Suhang Wang'
p4364
I1
sS'Ming Li 0014'
p4365
I1
sS'Wen-Chih Peng'
p4366
I3
sS'Maria A. Tsiarli'
p4367
I1
sS'Luming Zhang'
p4368
I1
sS'Hoang Nguyen'
p4369
I1
sS'Xing Xie 0001'
p4370
I8
sS'Vasile-Marian Scuturici'
p4371
I1
sS'Wang-Chien Lee'
p4372
I7
sS'Reuben P. Keller'
p4373
I1
sS'Jun Li 0016'
p4374
I1
sS'Ji Liu 0002'
p4375
I2
sS'Brian M. Alexander'
p4376
I1
sS'Yukiko Kawai'
p4377
I1
sS'Wei Chen 0025'
p4378
I2
sS'Keng-Pei Lin'
p4379
I2
sS'Jiangxin Wang'
p4380
I1
sS'Yanni Li'
p4381
I1
sS'Licheng Jiao'
p4382
I1
sS'Mahashweta Das'
p4383
I3
sS'Johan Hopstadius'
p4384
I1
sS'Joshua L. Moore'
p4385
I1
sS'B. Aditya Prakash'
p4386
I8
sS'Dietmar Ebner'
p4387
I1
sS'Marc Sturm'
p4388
I1
sS'Yue Wang'
p4389
I2
sS'Geoff Jiang'
p4390
I1
sS'Mark Crovella'
p4391
I3
sS'Rakesh Agrawal 0001'
p4392
I7
sS'Bo Zong'
p4393
I1
sS'Stephen Muggleton'
p4394
I1
sS'Manish Marwah'
p4395
I2
sS'Andy Diwen Zhu'
p4396
I1
sS'Li Guo 0008'
p4397
I1
sS'Peter Norvig'
p4398
I1
sS'Ajit Paul Singh'
p4399
I1
sS'Wei Zhang 0056'
p4400
I2
sS'Kiril Tsemekhman'
p4401
I1
sS'Wei Ding 0003'
p4402
I5
sS'Li Guo 0001'
p4403
I1
sS'Choon Hui Teo'
p4404
I1
sS'Ilya Zavorin'
p4405
I1
sS'Dingxiong Deng'
p4406
I1
sS'Jian Zheng'
p4407
I1
sS'Derek Willis'
p4408
I1
sS'Meng Qu'
p4409
I5
sS'Levent Koc 0001'
p4410
I1
sS'Guilin Li'
p4411
I1
sS'Jinliang Wei'
p4412
I1
sS'Dragomir R. Radev'
p4413
I1
sS'David P. Woodruff'
p4414
I2
sS'Igor Labutov'
p4415
I3
sS'Deepak Agarwal'
p4416
I20
sS'Sachidanand Alle'
p4417
I1
sS'Kunpeng Zhang'
p4418
I1
sS'Dmitry Efimov'
p4419
I2
sS'Guoliang Li 0001'
p4420
I1
sS'Usama M. Fayyad'
p4421
I3
sS'Yang Xiang'
p4422
I3
sS'Carson Kai-Sang Leung'
p4423
I2
sS'Keivan Alizadeh'
p4424
I1
sS'Nicolas Christin'
p4425
I1
sS'Jo\xc3\xa3o Pedro Gon\xc3\xa7alves'
p4426
I1
sS'Roman Vacul\xc3\xadn'
p4427
I1
sS'Pari Delir Haghighi'
p4428
I1
sS'Gerome Miklau'
p4429
I1
sS'Jun Liu 0003'
p4430
I9
sS'Wei Lu'
p4431
I3
sS'Michael E. Kress'
p4432
I1
sS'Alexandros Kalousis'
p4433
I1
sS'Xiao Bai 0002'
p4434
I1
sS'Bernardo A. Huberman'
p4435
I1
sS'Sue Kase'
p4436
I1
sS'Ronen Feldman'
p4437
I1
sS'Dimitrios Gunopulos'
p4438
I5
sS'Hongyan Liu'
p4439
I1
sS'Jianpeng Xu'
p4440
I1
sS'Chris H. Q. Ding'
p4441
I5
sS'Prithwish Basu'
p4442
I1
sS'Ming Zhou 0001'
p4443
I1
sS'Kyungyeol Park'
p4444
I1
sS'David Garc\xc3\xada-Soriano'
p4445
I1
sS'Shuicheng Yan'
p4446
I1
sS'Hosagrahar Visvesvaraya Jagadish'
p4447
I1
sS'Olivier Thonnard'
p4448
I1
sS'Christopher R. Dance'
p4449
I1
sS'Jinghe Zhang'
p4450
I1
sS'Mao Ye'
p4451
I2
sS'Daniel Huang'
p4452
I1
sS'Xiaodong Zhang 0001'
p4453
I1
sS'Hao Lin'
p4454
I2
sS'Yue Cao'
p4455
I1
sS'Kai Zhang 0001'
p4456
I5
sS'You Wu 0001'
p4457
I1
sS'Gleb Gusev'
p4458
I2
sS'Benjamin Solecki'
p4459
I2
sS'Rick Pechter'
p4460
I1
sS'John H. Thornton Jr.'
p4461
I1
sS'Brian J. Taylor'
p4462
I2
sS'Cliff Chiung-Yu Lin'
p4463
I1
sS'Hanna Mazzawi'
p4464
I1
sS'Alexander Ulianov'
p4465
I1
sS'Fosca Giannotti'
p4466
I7
sS'Gregoire Jauvion'
p4467
I1
sS'Huan Gui'
p4468
I1
sS'Wenliang Zhong'
p4469
I1
sS'Tianqi Chen'
p4470
I1
sS'Joy Sun'
p4471
I1
sS'Terence Critchlow'
p4472
I1
sS'Wanpracha Art Chaovalitwongse'
p4473
I1
sS'Ling Liu 0001'
p4474
I4
sS'Chiyuan Zhang'
p4475
I1
sS'Sameer Singh 0001'
p4476
I1
sS'Dongjin Song'
p4477
I1
sS'Junying Zhang'
p4478
I1
sS'Satish Tadepalli'
p4479
I1
sS'Michael Thompson'
p4480
I2
sS'Yin Lou'
p4481
I5
sS'David Mares'
p4482
I2
sS'Chris Neumann'
p4483
I1
sS'Junsong Yuan'
p4484
I1
sS'Ruiyun Yu'
p4485
I1
sS'Chen Luo'
p4486
I1
sS'Bowei Xi'
p4487
I1
sS'Swapna Savanna'
p4488
I1
sS'Francisco Pereira'
p4489
I1
sS'Antonio Ortega'
p4490
I1
sS'David M. Pennock'
p4491
I1
sS'Arie Gurfinkel'
p4492
I1
sS'James She'
p4493
I1
sS'Sharad Verma'
p4494
I1
sS'Srivatsava Daruru'
p4495
I1
sS'James Wei Luen Yip'
p4496
I1
sS'Jun Wang'
p4497
I7
sS'Jerry Scripps'
p4498
I1
sS'James Sharpnack'
p4499
I1
sS'Mihajlo Grbovic'
p4500
I2
sS'Hao Ma'
p4501
I2
sS'Christian Poellabauer'
p4502
I1
sS'Yang Zhang 0010'
p4503
I1
sS'Cristian Danescu-Niculescu-Mizil'
p4504
I1
sS'Yong Yu'
p4505
I6
sS'Gustavo Alonso'
p4506
I1
sS'Junming Liu'
p4507
I4
sS'Aditya Khosla'
p4508
I1
sS'Jimmy Xiangji Huang'
p4509
I1
sS'Yisong Yue'
p4510
I2
sS'Yoni Halpern'
p4511
I1
sS'Gene E. Alexander'
p4512
I1
sS'Evan K. Maxwell'
p4513
I1
sS'Sam Clark'
p4514
I1
sS'Swapnil Mishra'
p4515
I1
sS'John Zulueta'
p4516
I1
sS'Aaron Staple'
p4517
I1
sS'Ian Flint'
p4518
I1
sS'William W. Cohen'
p4519
I3
sS'David Peleg'
p4520
I1
sS'Javad Azimi'
p4521
I1
sS'Nick Koudas'
p4522
I1
sS'Wei Xiao'
p4523
I1
sS'Shunsuke Hirose'
p4524
I1
sS'Bishan Yang'
p4525
I1
sS'Lydia B. Chilton'
p4526
I2
sS'Evangelos E. Kotsifakos'
p4527
I1
sS'Mark Domick'
p4528
I1
sS'Sagar Vare'
p4529
I1
sS'Douglas J. Slotta'
p4530
I1
sS'Te-Kang Jan'
p4531
I1
sS'Nihan Kesim Cicekli'
p4532
I1
sS'Truyen Tran 0001'
p4533
I2
sS'Laura Irina Rusu'
p4534
I1
sS'J. C. Mao'
p4535
I2
sS'Zhisheng Li'
p4536
I1
sS'Jean-Marc Langlois'
p4537
I1
sS'Jianzhong Li'
p4538
I2
sS'Huizhi Xie'
p4539
I1
sS'Andrei Z. Broder'
p4540
I1
sS'Vrushank Vora'
p4541
I1
sS'Ashlesh Sharma'
p4542
I1
sS'Fei Xiao'
p4543
I1
sS'Richard S. Zemel'
p4544
I1
sS'Samuel Ieong'
p4545
I3
sS'Priyank Vyas'
p4546
I1
sS'James Biagioni'
p4547
I1
sS'Alok N. Choudhary'
p4548
I3
sS'Dan Zigmond'
p4549
I1
sS'Yanhong Guo'
p4550
I1
sS'Davide Mottin'
p4551
I1
sS'Thomas A. J. Schweiger'
p4552
I1
sS'Chao-Yuan Wu'
p4553
I1
sS'Tim Hanratty'
p4554
I2
sS'Anita Zakrzewska'
p4555
I1
sS'Trevor Burnham'
p4556
I1
sS'Laxmi Parida'
p4557
I1
sS'Li Xu'
p4558
I1
sS'Gordon V. Cormack'
p4559
I1
sS'James Cheng'
p4560
I5
sS'Fr\xc3\xa9d\xc3\xa9ric Dufau-Jo\xc3\xabl'
p4561
I1
sS'Fan Wei'
p4562
I1
sS'Ankita Joshi'
p4563
I1
sS'S. Sundararajan'
p4564
I1
sS'Jun Yang 0001'
p4565
I1
sS'Zilong Bai'
p4566
I1
sS'Jianhui Chen'
p4567
I8
sS'Wei Wang 0064'
p4568
I2
sS'Shingo Ono'
p4569
I2
sS'Ashir Ahmed'
p4570
I1
sS'Xiao Yu'
p4571
I5
sS'Roberto Trasarti'
p4572
I2
sS'Tong Sun'
p4573
I1
sS'Gregory R. Ganger'
p4574
I1
sS'Panagiotis Achlioptas'
p4575
I1
sS'Liran Katzir 0001'
p4576
I1
sS'Jianzong Wang'
p4577
I1
sS'Mohit Kumar'
p4578
I2
sS'Jun He 0008'
p4579
I1
sS'Brendan Kitts'
p4580
I2
sS'Shang Qiu'
p4581
I1
sS'Jun Du'
p4582
I1
sS'Denis Baylor'
p4583
I1
sS'Peter W. Li'
p4584
I2
sS'Alan J. Demers'
p4585
I1
sS'Andreas Z\xc3\xbcfle'
p4586
I2
sS'Amit Goyal 0002'
p4587
I2
sS'Toshimitsu Uesaka'
p4588
I1
sS'Luke Zettlemoyer'
p4589
I1
sS'Charles B. Morrey III'
p4590
I1
sS'Jian Huang 0002'
p4591
I1
sS'Wenqing Tang'
p4592
I1
sS'Jian Guo 0002'
p4593
I3
sS'Xiaopeng Li'
p4594
I1
sS'Greg Little'
p4595
I2
sS'Dhruv Arya'
p4596
I1
sS'Patrick Roos'
p4597
I1
sS'Toru Hotta'
p4598
I1
sS'Anna Phan'
p4599
I1
sS'Christina Papagiannopoulou'
p4600
I1
sS'Kamelia Aryafar'
p4601
I1
sS'Soujanya Vadapalli'
p4602
I1
sS'C.-C. Jay Kuo'
p4603
I1
sS'Sagar Chaki'
p4604
I1
sS'Diane Lambert'
p4605
I1
sS'Muthu Muthukrishnan'
p4606
I1
sS'Yi Ding'
p4607
I1
sS'Jonathan P. How'
p4608
I1
sS'Tom Chi'
p4609
I1
sS'Marco Gori'
p4610
I1
sS'Mark A. Friedl'
p4611
I1
sS'Yong Wang'
p4612
I2
sS'Shivani Agarwal 0001'
p4613
I1
sS'Entong Shen'
p4614
I1
sS'L\xc3\xa1szl\xc3\xb3 Luk\xc3\xa1cs'
p4615
I1
sS'Giles Hooker'
p4616
I1
sS'Yangqiu Song'
p4617
I10
sS'Daniel Emerson'
p4618
I1
sS'Prasad Gabbur'
p4619
I1
sS'Ran Xu'
p4620
I1
sS'Ning Zhong 0001'
p4621
I2
sS'Yao Zhang'
p4622
I1
sS'Andrea Marchetti'
p4623
I1
sS'Shady Shehata'
p4624
I1
sS'Tao Wu'
p4625
I1
sS'Tobias Schnabel'
p4626
I1
sS'Parisa Rashidi'
p4627
I2
sS'Hao Ding'
p4628
I1
sS'Kathleen M. Carley'
p4629
I1
sS'Liyang Xie'
p4630
I1
sS'Jeff Yan'
p4631
I1
sS'Bianca Zadrozny'
p4632
I2
sS'Yu-Xiang Wang'
p4633
I1
sS'Baoshi Yan'
p4634
I1
sS'Aristides Gionis'
p4635
I15
sS'Luh Yen'
p4636
I1
sS'Panagiotis Karras'
p4637
I3
sS'Hoang Anh Dau'
p4638
I1
sS'Timothy M. Lynar'
p4639
I1
sS'Krishnaram Kenthapadi'
p4640
I3
sS'Matthew C. Schmidt'
p4641
I1
sS'Gerard Labut'
p4642
I1
sS'Riddhiman Ghosh'
p4643
I1
sS'Seunghak Lee'
p4644
I1
sS'Lei Han'
p4645
I4
sS'John Bertetto'
p4646
I2
sS'Richard Chow'
p4647
I1
sS'Ryan Spring'
p4648
I1
sS'Peter J. Castaldi'
p4649
I1
sS'Tan Yan'
p4650
I1
sS'Matei Zaharia'
p4651
I1
sS'Marc E. Maier'
p4652
I2
sS'Hoang Trinh'
p4653
I1
sS'Markus Strohmaier'
p4654
I1
sS'Andrew Cotter'
p4655
I1
sS'Qian Liu'
p4656
I1
sS'Si Zhang'
p4657
I3
sS'Xiaolin Shi'
p4658
I2
sS'Denis Helic'
p4659
I1
sS'Weizhu Chen'
p4660
I2
sS'Yasuo Tabei'
p4661
I2
sS'Mu Li'
p4662
I2
sS'Jenna Wiens'
p4663
I1
sS'Michael J. Cavaretta'
p4664
I1
sS'Cyrus Shahabi'
p4665
I1
sS'Hugh Durrant-Whyte'
p4666
I2
sS'Hao Zhang'
p4667
I1
sS'Xuemin Lin'
p4668
I1
sS'Alexandros G. Dimakis'
p4669
I1
sS'Carlos Guestrin'
p4670
I9
sS'Jianchang Mao'
p4671
I2
sS'Sijie Ruan'
p4672
I1
sS'Bernhard Sch\xc3\xb6lkopf'
p4673
I2
sS'John R. Smith'
p4674
I1
sS'Mengting Wan'
p4675
I1
sS'Xiaowei Yan'
p4676
I1
sS'Chuanyi Ji'
p4677
I1
sS'Mauro Sozio'
p4678
I1
sS'Hao Zhong'
p4679
I1
sS'Thomas Moscibroda'
p4680
I1
sS'Steven Loscalzo'
p4681
I2
sS'Neal Lathia'
p4682
I1
sS'Nima Asadi 0001'
p4683
I1
sS'Thrivikrama Taula'
p4684
I1
sS'Samuel Maurus'
p4685
I2
sS'Dean Eckles'
p4686
I1
sS'Chao Zhang'
p4687
I5
sS'Huan Sun'
p4688
I4
sS'Kevin Murphy 0002'
p4689
I2
sS'Denis Moreira dos Reis'
p4690
I1
sS'Dan Cosley'
p4691
I1
sS'Wei-Cheng Chang'
p4692
I2
sS'Ming Hua'
p4693
I2
sS'Florian Bourse'
p4694
I1
sS'Xiu-Feng Wan'
p4695
I1
sS'Matteo Riondato'
p4696
I4
sS'Ana Lelescu'
p4697
I2
sS'Jaikit Savla'
p4698
I1
sS'Chris Drome'
p4699
I1
sS'Yi Li 0002'
p4700
I1
sS'Lujia Pan'
p4701
I1
sS'Ashwin Machanavajjhala'
p4702
I3
sS'Sheng Guo'
p4703
I1
sS'S. Sathiya Keerthi'
p4704
I2
sS'Saurabh Kataria'
p4705
I1
sS'Xin Fu'
p4706
I1
sS'Igor Naverniouk'
p4707
I1
sS'Qiang Yang 0001'
p4708
I17
sS'David Carrera'
p4709
I1
sS'David Hazel'
p4710
I1
sS'Shuang-Hong Yang'
p4711
I2
sS'Geoffrey I. Webb'
p4712
I5
sS'Lei Xiao'
p4713
I1
sS'Jian-Bo Yang'
p4714
I1
sS'Pedro Pereira Rodrigues'
p4715
I4
sS'Zhengming Xing'
p4716
I1
sS'Christos Giatsidis'
p4717
I1
sS'Duo Zhang'
p4718
I2
sS'Johan Ugander'
p4719
I2
sS'Kaustuv'
p4720
I1
sS'Bruno Cadonna'
p4721
I1
sS'Robert Munro'
p4722
I1
sS'Anna Monreale'
p4723
I2
sS'Bassel Ojjeh'
p4724
I1
sS'Anastasios Noulas'
p4725
I2
sS'Zhen Guo'
p4726
I1
sS'Glenn A. Tootle'
p4727
I1
sS'Kent Shi'
p4728
I1
sS'Wentian Lu'
p4729
I1
sS'Ruoyi Jiang'
p4730
I1
sS'John-Mark Agosta'
p4731
I1
sS'Yaliang Li'
p4732
I3
sS'Ziad Al Bawab'
p4733
I1
sS'Chuancong Gao'
p4734
I1
sS'Gemma C. Garriga'
p4735
I1
sS'Erik Buchmann'
p4736
I1
sS'Xiting Wang'
p4737
I1
sS'Hsun-Ping Hsieh'
p4738
I2
sS'Jimeng Sun'
p4739
I22
sS'Ad Feelders'
p4740
I1
sS'Junghoo Cho'
p4741
I2
sS'Arnon Lazerson'
p4742
I1
sS'Qiong Fang'
p4743
I1
sS'Taehwan Kim'
p4744
I1
sS'Nello Cristianini'
p4745
I1
sS'Michel Speiser'
p4746
I1
sS'Hung Hay Ho'
p4747
I1
sS'Spiros Antonatos'
p4748
I1
sS'Peter Brusilovsky'
p4749
I1
sS'Kiran Kate'
p4750
I1
sS'Zhengyou Zhang'
p4751
I1
sS'Tom M. Mitchell'
p4752
I2
sS'Bin Li'
p4753
I1
sS'Shafiqul Islam'
p4754
I2
sS'Wush Chi-Hsuan Wu'
p4755
I1
sS'Patricia Iglesias S\xc3\xa1nchez'
p4756
I1
sS'Sungjin Ahn'
p4757
I1
sS'Fei Wang'
p4758
I4
sS'Mohammad Maifi Hasan Khan'
p4759
I1
sS'Natalia V. Andrienko'
p4760
I1
sS'Jason C. K. Yeung'
p4761
I1
sS'Shyam Boriah'
p4762
I1
sS'Shikai Liu'
p4763
I1
sS'Alexandrin Popescul'
p4764
I1
sS'Wilhelmiina H\xc3\xa4m\xc3\xa4l\xc3\xa4inen'
p4765
I2
sS'Hoang Thanh Lam'
p4766
I1
sS'Kakali Sarkar'
p4767
I1
sS'Hancheng Ge'
p4768
I1
sS'Lance M. Kaplan'
p4769
I3
sS'Vijil Chenthamarakshan'
p4770
I2
sS'Yizhou Yan'
p4771
I2
sS'Vaibhav Khadilkar'
p4772
I1
sS'Sharad Nandanwar'
p4773
I1
sS'Junling Hu'
p4774
I1
sS'Sahely Bhadra'
p4775
I1
sS'Peng Wang'
p4776
I1
sS'Yong Chen'
p4777
I1
sS'Yusuke Tanaka'
p4778
I1
sS'Amy Shi Nash'
p4779
I1
sS'Rumi Ghosh'
p4780
I1
sS'Shaojun Wang'
p4781
I3
sS'Hongliang Fei'
p4782
I3
sS'Hefu Zhang'
p4783
I1
sS'Rucha Kanade'
p4784
I1
sS'Arthur Zimek'
p4785
I3
sS'Yunming Ye'
p4786
I1
sS'Wenqi He'
p4787
I1
sS'Ioannis Tsamardinos'
p4788
I2
sS'Shahar Golan'
p4789
I1
sS'William Trouleau'
p4790
I1
sS'Silviu Maniu'
p4791
I1
sS'Wei Chu'
p4792
I2
sS'John Moeller'
p4793
I1
sS'Rupesh Gupta'
p4794
I2
sS'Dacheng Tao'
p4795
I9
sS'David R. Cheriton'
p4796
I1
sS'Clifford R. Jack Jr.'
p4797
I1
sS'Ling-Yin Wei'
p4798
I1
sS'Mudhakar Srivatsa'
p4799
I3
sS'Yan Zhang 0004'
p4800
I1
sS'Boulos Harb'
p4801
I1
sS'Vijay Manikandan Janakiraman'
p4802
I1
sS'Olu Ajilore'
p4803
I1
sS'Mengyue Zhao'
p4804
I1
sS'Abhishek Gupta'
p4805
I3
sS'Sebastien Blandin'
p4806
I1
sS'Wagner Meira Jr.'
p4807
I2
sS'Alessio Signorini'
p4808
I1
sS'Saifur Rahman'
p4809
I1
sS'Lek-Heng Lim'
p4810
I1
sS'Quanming Yao'
p4811
I1
sS'Qingshan Jiang'
p4812
I2
sS'Jinbo Bi'
p4813
I3
sS'Sumanth Kolar'
p4814
I1
sS'Zhewei Wei'
p4815
I1
sS'Sameer Agarwal'
p4816
I1
sS'Chia-Hui Chang'
p4817
I1
sS'Jialei Wang'
p4818
I2
sS'Qiming Huang'
p4819
I2
sS'Kai-yang Chiang'
p4820
I1
sS'Oliver Schulte'
p4821
I1
sS'Sugato Basu'
p4822
I3
sS'Nihit Desai'
p4823
I3
sS'Amr Ahmed'
p4824
I8
sS'Mayuri Duggirala'
p4825
I1
sS'Michalis Faloutsos'
p4826
I1
sS'Xiang Cheng 0002'
p4827
I1
sS'Daniel Honbo'
p4828
I1
sS'Mohammad Shokoohi-Yekta'
p4829
I1
sS'Trishul M. Chilimbi'
p4830
I1
sS'Romana Khan'
p4831
I1
sS'Olivier Lichtarge'
p4832
I2
sS'Linfei Zhou'
p4833
I1
sS'Raghu Ramakrishnan'
p4834
I2
sS'Zhao Yang Dong'
p4835
I1
sS'Angeliki Rapti'
p4836
I1
sS'Yuming Ou'
p4837
I1
sS'Mich\xc3\xa8le Sebag'
p4838
I1
sS'Mayssam Sayyadian'
p4839
I1
sS'Ekaterina Gladkikh'
p4840
I1
sS'Michael Pohl'
p4841
I1
sS'Melih Abdulhayoglu'
p4842
I2
sS'Andrew Emmott'
p4843
I1
sS'Erhard Rahm'
p4844
I1
sS'Xiao Cai'
p4845
I1
sS'Lauren Haynes'
p4846
I2
sS'Robert M. Bell'
p4847
I1
sS'Zeinab Abbassi'
p4848
I1
sS'Oussama Chelly'
p4849
I1
sS'Madian Khabsa'
p4850
I1
sS'Dima Lepikhin'
p4851
I1
sS'J\xc3\xb6rg Sander'
p4852
I2
sS'Gao Cong'
p4853
I5
sS'Panayiotis Tsaparas'
p4854
I3
sS'Yasuhiro Fujiwara'
p4855
I3
sS'Chengxiang Zhai'
p4856
I3
sS'Cangzhou Yuan'
p4857
I1
sS'Laing Dai'
p4858
I1
sS'Bo Liu 0015'
p4859
I1
sS'Peng Wang 0004'
p4860
I1
sS'Alexander T. Ihler'
p4861
I2
sS'Nicole Brimmer'
p4862
I1
sS'Nan Zhang 0004'
p4863
I1
sS'Manas Somaiya'
p4864
I1
sS'Greg Sands'
p4865
I1
sS'Manik Varma'
p4866
I4
sS'Bartek Rajwa'
p4867
I2
sS'Max Goldman'
p4868
I2
sS'Melissa Kowalczyk'
p4869
I1
sS'Suhas Ranganath'
p4870
I1
sS'Junhui Wang'
p4871
I1
sS'Zhi-Hua Zhou'
p4872
I8
sS'Xuan-Hong Dang'
p4873
I2
sS'Sungjin Im'
p4874
I1
sS'Shota Okumura'
p4875
I1
sS'Ning Chen'
p4876
I2
sS'Purushottam Kar'
p4877
I1
sS'Anthony Fader'
p4878
I1
sS'Katherine A. Heller'
p4879
I1
sS'WenYen Chen'
p4880
I1
sS'Ananthram Swami'
p4881
I2
sS'Jacob D. Abernethy'
p4882
I1
sS'Amit Dhurandhar'
p4883
I3
sS'Alan Fern'
p4884
I1
sS'Debing Liu'
p4885
I1
sS'Tingjin Luo'
p4886
I1
sS'Dawei Liu'
p4887
I1
sS'Joseph V. Treglia'
p4888
I1
sS'Eric Malmi'
p4889
I1
sS'Matthew Marzilli'
p4890
I1
sS'Lakshminarayanan Subramanian'
p4891
I2
sS'Fenglong Ma'
p4892
I4
sS'Alexander Loewi'
p4893
I1
sS'Alan Murray'
p4894
I1
sS'Hong Gao'
p4895
I1
sS'Udo Kruschwitz'
p4896
I1
sS'Gary M. Weiss'
p4897
I1
sS'Thoralf M. Sundt'
p4898
I1
sS'Songtao Guo'
p4899
I2
sS'Robert L. Grossman'
p4900
I4
sS'Ashit Talukder'
p4901
I1
sS'Bo Jiang'
p4902
I1
sS'C. Lee Giles'
p4903
I2
sS'Bruno Pradel'
p4904
I1
sS'Quinten McNamara'
p4905
I1
sS'Raffay Hamid'
p4906
I1
sS'Fei Zou'
p4907
I1
sS'Martin S. Kohn'
p4908
I1
sS'Sayan Ranu'
p4909
I2
sS'Wu Ye'
p4910
I1
sS'Kunal Punera'
p4911
I2
sS'Xiaohua Liu'
p4912
I1
sS'Douglas Turnbull'
p4913
I2
sS'Wilfred Ng'
p4914
I3
sS'Neha Gupta 0001'
p4915
I1
sS'Michael L. Wick'
p4916
I2
sS'Thomas C. Bailey'
p4917
I1
sS'Michael Bendersky'
p4918
I1
sS'David L. Jensen'
p4919
I1
sS'Karin Murthy'
p4920
I1
sS'Jianyu Zhao'
p4921
I1
sS'Alexey Drutsa'
p4922
I2
sS'Kris Ganjam'
p4923
I1
sS'Andrew Zhai'
p4924
I1
sS'Takanori Maehara'
p4925
I4
sS'Huma Lodhi'
p4926
I1
sS'Fang Zhou'
p4927
I1
sS'Haishan Liu'
p4928
I1
sS'Ravi Kiran Holur Vijay'
p4929
I1
sS'Adithya Rao'
p4930
I2
sS'Ahmed Abdelali'
p4931
I1
sS'John Tomlin'
p4932
I2
sS'Ben Hamner'
p4933
I1
sS'Bart Thomee'
p4934
I1
sS'Chikashi Nobata'
p4935
I1
sS'Alexander Tuzhilin'
p4936
I4
sS'Mausam'
p4937
I1
sS'Saghar Hosseini'
p4938
I1
sS'Bridget Spitznagel'
p4939
I1
sS'Alfonso F. Cardenas'
p4940
I1
sS'Xi Wang'
p4941
I1
sS'Eric Chang'
p4942
I2
sS'Xiaofeng Gao'
p4943
I1
sS'Mustafa Ispir'
p4944
I2
sS'Isabelle Stanton'
p4945
I2
sS'Weidong Yang'
p4946
I1
sS'John Langford'
p4947
I1
sS'David P. Wipf'
p4948
I1
sS'David D. Jensen'
p4949
I6
sS'Lu Zhang'
p4950
I1
sS'Ping Li 0001'
p4951
I5
sS'Nikola S. M\xc3\xbcller'
p4952
I1
sS'Cheuk-kwong Lee'
p4953
I1
sS'Chong Jin Ong'
p4954
I1
sS'Todd Phillips'
p4955
I1
sS'Bahman Bahmani'
p4956
I1
sS'P. Radha Krishna'
p4957
I1
sS'Cheng-Te Li'
p4958
I2
sS'Berkant Barla Cambazoglu'
p4959
I1
sS'Jian Yang 0002'
p4960
I1
sS'Danny Shapiro'
p4961
I1
sS'Rasmus Pagh'
p4962
I2
sS'Gizem Korkmaz'
p4963
I1
sS'Kun Liu'
p4964
I2
sS'Fang Jin'
p4965
I2
sS'Graham Katz'
p4966
I2
sS'Andrew J. Connolly'
p4967
I1
sS'Jiangwen Sun'
p4968
I2
sS'Paul R. Schrater'
p4969
I1
sS'Xiaofei He'
p4970
I3
sS'Kieran McDonald'
p4971
I1
sS'Doyen Sahoo'
p4972
I1
sS'Yanming Xie'
p4973
I1
sS'Denis Lalanne'
p4974
I1
sS'Corina Graif'
p4975
I1
sS'Sara Hajian'
p4976
I1
sS'Chunyu Luo'
p4977
I1
s.