(dp1
S'Jayanth Koushik'
p2
I1
sS'Linli Xu'
p3
I2
sS'Achintya Kundu'
p4
I1
sS'Vikash K. Mansinghka'
p5
I3
sS'Alina Beygelzimer'
p6
I4
sS'Richard L. Lewis'
p7
I4
sS'Fernando C. N. Pereira'
p8
I2
sS'Deli Zhao'
p9
I2
sS'Shai Shalev-Shwartz'
p10
I11
sS'Chuck Kalish'
p11
I1
sS'Kevin Bleakley'
p12
I1
sS'Vincent Thomas'
p13
I1
sS'Tomasz M. Rutkowski'
p14
I1
sS'Xiaotong Yuan'
p15
I1
sS'Samuel Daulton'
p16
I1
sS'J\xc3\xb6rg Hendrik Kappes'
p17
I1
sS'El Mahdi El Mhamdi'
p18
I2
sS'James J. DiCarlo'
p19
I1
sS'\xc3\x89va Tardos'
p20
I2
sS'Jacquelyn A. Shelton'
p21
I3
sS'Shuang Li'
p22
I3
sS'Mohammad Ali Bashiri'
p23
I2
sS'Richard Nock'
p24
I5
sS'Dongho Kim'
p25
I1
sS'Jasmina Bogojeska'
p26
I1
sS'Justin Gilmer'
p27
I1
sS'Jianfeng Wang'
p28
I1
sS'Benjamin Taskar'
p29
I1
sS'Nal Kalchbrenner'
p30
I1
sS'Christian K. Machens'
p31
I6
sS'Jian-Hua Mao'
p32
I1
sS'Ashkan Norouzi-Fard'
p33
I2
sS'Pierre Sermanet'
p34
I1
sS'Anton Osokin'
p35
I3
sS'Heung-Yeung Shum'
p36
I1
sS'Matjaz Jogan'
p37
I1
sS'Jie Liu 0006'
p38
I1
sS'Huimin Ma'
p39
I1
sS'Liam Mac Dermed'
p40
I1
sS'J. Anthony Movshon'
p41
I1
sS'Yan Liu 0002'
p42
I1
sS'Sanjeev R. Kulkarni'
p43
I1
sS'Dario Zanca'
p44
I1
sS'Chuong B. Do'
p45
I2
sS'Fred S. Richardson'
p46
I1
sS'Xiangru Lian'
p47
I4
sS'Linxi Liu'
p48
I1
sS'Brian McWilliams'
p49
I4
sS'Franco Pestilli'
p50
I2
sS'Wei Wu'
p51
I1
sS'Jun-Yan Zhu'
p52
I1
sS'Bowei Yan'
p53
I2
sS'Peter Dayan'
p54
I10
sS'R\xc3\xa9mi Bardenet'
p55
I2
sS'Qizhe Xie'
p56
I1
sS'Ming-Yu Liu'
p57
I1
sS'Zequn Jie'
p58
I2
sS'Devon R. Hjelm'
p59
I1
sS'Kevin C. Chen'
p60
I1
sS'Scott Kuindersma'
p61
I1
sS'Alberto Su\xc3\xa1rez'
p62
I2
sS'Dmitry M. Malioutov'
p63
I1
sS'Yu Cheng'
p64
I3
sS'Ilija Bogunovic'
p65
I3
sS'Vikas Sindhwani'
p66
I6
sS'Pat Hanrahan'
p67
I1
sS'Conrado Miranda'
p68
I1
sS'Nam Nguyen'
p69
I1
sS'Frank Nielsen'
p70
I2
sS'Lazar Valkoz'
p71
I1
sS'Yifei Ma'
p72
I1
sS'Qiaozhu Mei'
p73
I1
sS'Dennis Strelow'
p74
I1
sS'Walter F. Stewart'
p75
I1
sS'Georges A. Goetz'
p76
I1
sS'Xiaoxiao Guo'
p77
I4
sS'Gabriel Parra'
p78
I1
sS'H. Brendan McMahan'
p79
I5
sS'Degang Zhang'
p80
I1
sS'Gerald Quon'
p81
I1
sS'Carmen Vidaurre'
p82
I1
sS'Parikshit Ram'
p83
I3
sS'Hisashi Kashima'
p84
I4
sS'Danqi Chen'
p85
I1
sS'Thomas Jaksch'
p86
I1
sS'Huyen Do'
p87
I1
sS'Bo Liu 0006'
p88
I2
sS'Chengxu Zhuang'
p89
I1
sS'Sorin Lerner'
p90
I1
sS'Karthika Mohan'
p91
I2
sS'Qi Tian'
p92
I1
sS'P. Thomas Fletcher'
p93
I1
sS'Caroline Uhler'
p94
I1
sS'Amir Khosrowshahi'
p95
I1
sS'Serhat Selcuk Bucak'
p96
I1
sS'Vignesh Ramanathan'
p97
I1
sS'Ran El-Yaniv'
p98
I6
sS'Elisabetta Chicca'
p99
I1
sS'Luca Bascetta'
p100
I1
sS'Yuqian Zhang'
p101
I1
sS'Jean-Philippe Avouac'
p102
I1
sS'Hai-Son Le'
p103
I2
sS'Yifan Sun'
p104
I1
sS'Arno Onken'
p105
I3
sS'Ronny Lempel'
p106
I1
sS'R\xc3\xa9mi Lajugie'
p107
I1
sS'Sebastian Tschiatschek'
p108
I3
sS'Connor W. Coley'
p109
I1
sS'Adam Fleisher'
p110
I2
sS'Hsiu-Chin Lin'
p111
I1
sS'Jia Deng'
p112
I5
sS'Subbarao Kambhampati'
p113
I2
sS'Alexander J. Ratner'
p114
I2
sS'Prem Melville'
p115
I1
sS'Guido Sanguinetti'
p116
I4
sS'Geoffrey Roeder'
p117
I1
sS'Isik Baris Fidaner'
p118
I1
sS'Eric Verbeek'
p119
I1
sS'Jamie Morgenstern'
p120
I1
sS'Yingjian Wang'
p121
I1
sS'Judea Pearl'
p122
I5
sS'Arthur Choi'
p123
I7
sS'Michel Besserve'
p124
I2
sS'Gautam C. Kamath'
p125
I1
sS'Ilya Shpitser'
p126
I2
sS'James T. Kwok'
p127
I3
sS'Michael Kamp'
p128
I1
sS'Pavlo Lutsik'
p129
I1
sS'Sheng-Jun Huang'
p130
I1
sS'Dimitris Achlioptas'
p131
I1
sS'Matthew Botvinick'
p132
I3
sS'Yang Wang 0003'
p133
I5
sS'Paul Merolla'
p134
I1
sS'Rob E. Aguilar'
p135
I1
sS'Peter Richt\xc3\xa1rik'
p136
I1
sS'Mahantesh Halappanavar'
p137
I1
sS'St\xc3\xa9phan Cl\xc3\xa9men\xc3\xa7on'
p138
I9
sS'Kirill Neklyudov'
p139
I1
sS'Fran\xc3\xa7ois Duport'
p140
I1
sS'Li Xu 0001'
p141
I2
sS'Tatsuya Harada'
p142
I1
sS'Ho Chung Leon Law'
p143
I1
sS'Yongbo Li'
p144
I1
sS'Katherine Chen'
p145
I1
sS'Xinchen Yan'
p146
I2
sS'Bogdan Savchynskyy'
p147
I3
sS'Peter Spirtes'
p148
I1
sS'Xianghang Liu'
p149
I3
sS'Ming Tan'
p150
I1
sS'Shie Mannor'
p151
I19
sS'Amit Deshpande'
p152
I1
sS'Zeyuan Allen-Zhu'
p153
I1
sS'Jonas Mueller'
p154
I1
sS'Neil Gallagher'
p155
I1
sS'Roni Khardon'
p156
I2
sS'William R. Zame'
p157
I1
sS'Daniel Bartz'
p158
I2
sS'Chad Scherrer'
p159
I1
sS'Igor Shinkar'
p160
I1
sS'Alim Virani'
p161
I1
sS'Boqian Zhang'
p162
I1
sS'Constantin A. Rothkopf'
p163
I1
sS'Joe Zachariah'
p164
I1
sS'Eduardo Corona'
p165
I1
sS'Yingbo Zhou'
p166
I1
sS'Zhilin Yang'
p167
I3
sS'Gilles Louppe'
p168
I2
sS'Seyed-Mohsen Moosavi-Dezfooli'
p169
I1
sS'Dominique Joncas'
p170
I2
sS'Mehdi Keramati'
p171
I1
sS'Alexandre Pouget'
p172
I3
sS'Soham De'
p173
I1
sS'Dharmendra S. Modha'
p174
I1
sS'Bal\xc3\xa1zs Sz\xc3\xb6r\xc3\xa9nyi'
p175
I3
sS'Ben Taskar'
p176
I8
sS'Daniel Berend'
p177
I1
sS'Zhongfei (Mark) Zhang'
p178
I1
sS'Simon R. F. Ashton'
p179
I1
sS'Yuya Yoshikawa'
p180
I2
sS'Puyang Xu'
p181
I1
sS'Liang Wang 0001'
p182
I2
sS'Chiou-Shann Fuh'
p183
I1
sS'Geoff Pleiss'
p184
I1
sS'Rong Jin'
p185
I20
sS'Sagie Benaim'
p186
I1
sS'Deepti Pachauri'
p187
I3
sS'Yonina Eldar'
p188
I1
sS'Peter Battaglia'
p189
I4
sS'Dohyung Park'
p190
I2
sS'Gautier Marti'
p191
I1
sS'Jeffrey W. Miller'
p192
I2
sS'Gunnar Kedenburg'
p193
I2
sS'Alkis Gotovos'
p194
I1
sS'Haichao Zhang'
p195
I2
sS'Valero Laparra'
p196
I1
sS'Ahmad Beirami'
p197
I1
sS'Sanja Fidler'
p198
I6
sS'Rong Ge 0001'
p199
I3
sS'David A. McAllester'
p200
I4
sS'Guangyun Chen'
p201
I1
sS'Hakan Inan'
p202
I1
sS'Yizhi Wang'
p203
I1
sS'Katerina Fragkiadaki'
p204
I2
sS'Gerwin Schalk'
p205
I2
sS'Dominik Endres'
p206
I2
sS'Joseph Paul Cohen'
p207
I1
sS'Michael Dinerstein'
p208
I1
sS'Peter E. Latham'
p209
I3
sS'William J. Huggins'
p210
I1
sS'Timothy P. Lillicrap'
p211
I1
sS'Ji Lin'
p212
I1
sS'Ji Liu'
p213
I4
sS'Hengshuai Yao'
p214
I2
sS'Sanjeev Satheesh'
p215
I1
sS'Xinghua Lou'
p216
I2
sS'Rakshit Trivedi'
p217
I1
sS'Vijay V. Desai'
p218
I1
sS'William Falcon'
p219
I1
sS'Branislav Kveton'
p220
I4
sS'Shijun Wang'
p221
I1
sS'Gert R. G. Lanckriet'
p222
I5
sS'Chris Eliasmith'
p223
I1
sS'Georg Zeller'
p224
I1
sS'Alan Welsh'
p225
I1
sS'Razvan Pascanu'
p226
I9
sS'Shuiwang Ji'
p227
I1
sS'Nicholas Priebe'
p228
I1
sS'Songbai Yan'
p229
I2
sS'Jialin Zhang'
p230
I1
sS'Kentaro Minami'
p231
I1
sS'Yuqiang Chen'
p232
I1
sS'Jian Peng 0001'
p233
I1
sS'Vinayak A. Rao'
p234
I1
sS'Kyle R. Ulrich'
p235
I3
sS'Shai Ben-David'
p236
I3
sS'Yong Jae Lee'
p237
I1
sS'F\xc3\xa1bio Augusto Faria'
p238
I1
sS'John W. Byers'
p239
I1
sS'Atsushi Miyamae'
p240
I1
sS'Olivier Bousquet'
p241
I3
sS'Min Jin Chong'
p242
I1
sS'Nima Taghipour'
p243
I1
sS'Aidan N. Gomez'
p244
I2
sS'Fran\xc3\xa7ois Caron'
p245
I1
sS'Kevin S. Xu 0001'
p246
I1
sS'Andr\xc3\xa1s Antos'
p247
I2
sS'Johannes Traa'
p248
I1
sS'Gerasimos Palaiopanos'
p249
I1
sS'Yaser Sheikh'
p250
I2
sS'Alexandre Karpenko'
p251
I1
sS'Oliver Williams'
p252
I1
sS'Hadi Mohasel Afshar'
p253
I1
sS'Amir Massoud Farahmand'
p254
I4
sS'Dmitry Pidan'
p255
I1
sS'Yannick Schwartz'
p256
I1
sS'Rohit Girdhar'
p257
I1
sS'Romain Brasselet'
p258
I1
sS'Pedro M. Domingos'
p259
I4
sS'Shantanu Jain'
p260
I1
sS'Jan-Mark Geusebroek'
p261
I1
sS'Nicholas Fisher'
p262
I1
sS'Thomas Nowotny'
p263
I1
sS'Zhitao Ying'
p264
I1
sS'XianXing Zhang'
p265
I2
sS'Cun Mu'
p266
I1
sS'Yannig Goude'
p267
I1
sS'Liang Xiong'
p268
I1
sS'Bertrand Michel'
p269
I1
sS'Joachim M. Buhmann'
p270
I6
sS'Ingmar Kanitscheider'
p271
I1
sS'Aviad Rubinstein'
p272
I1
sS'Ehsan Emamjomeh-Zadeh'
p273
I1
sS'Paul Roebber'
p274
I1
sS'Shihai Wang'
p275
I1
sS'Yuanhao Chen'
p276
I3
sS'Pradheep Elango'
p277
I1
sS'Benjamin Van Roy'
p278
I11
sS'Wen Gao 0001'
p279
I2
sS'Muhammad Farhan'
p280
I1
sS'Matth\xc3\xa4us Kleindessner'
p281
I1
sS'Lorenz K. M\xc3\xbcller'
p282
I1
sS'Enze Zhou'
p283
I1
sS'Guillaume Alain'
p284
I1
sS'Alex K. Susemihl'
p285
I2
sS'Kristiaan Pelckmans'
p286
I1
sS'Eric P. Xing'
p287
I27
sS'Lijun Wu'
p288
I1
sS'Gregory A. Worrell'
p289
I1
sS'Masashi Sugiyama'
p290
I20
sS'Jennifer Gillenwater'
p291
I3
sS'Oncel Tuzel'
p292
I2
sS'Jung Kwon Lee'
p293
I1
sS'Guido Mont\xc3\xbafar'
p294
I1
sS'Jaehyung Lee'
p295
I2
sS'Trevor Cohn'
p296
I1
sS'Ibrahim M. Alabdulmohsin'
p297
I1
sS'Bryan D. He'
p298
I3
sS'Isabel Valera'
p299
I6
sS'Justin M. Solomon'
p300
I1
sS'Nicolas Le Roux'
p301
I5
sS'Michael Collins 0001'
p302
I2
sS'Ryuichi Kiryo'
p303
I1
sS'Alexandru O. Balan'
p304
I1
sS'Tze-Yun Leong'
p305
I1
sS'Hai Li 0001'
p306
I1
sS'Zhuowen Tu'
p307
I1
sS'Nina Taft'
p308
I1
sS'Stephen Gould'
p309
I3
sS'Sergei Vassilvitskii'
p310
I4
sS'Friederike U. Hohlefeld'
p311
I1
sS'Yuan Shen'
p312
I1
sS'Ricardo Bezerra de Andrade e Silva'
p313
I3
sS'Youngmin Cho'
p314
I2
sS'Deqing Sun'
p315
I1
sS'Christian Daniel'
p316
I1
sS'Sean B. Holden'
p317
I2
sS'Guang Cheng'
p318
I1
sS'Jason K. Johnson'
p319
I1
sS'David Liben-Nowell'
p320
I1
sS'Radu Soricut'
p321
I1
sS'Maxwell D. Collins'
p322
I1
sS'Anatoli Juditsky'
p323
I1
sS'Jason D. Lee'
p324
I9
sS'Wouter M. Koolen'
p325
I11
sS'Song Zuo'
p326
I1
sS'Jeonghee Kim'
p327
I1
sS'David Tse'
p328
I4
sS'Dawn Xiaodong Song'
p329
I1
sS'Ryota Tomioka'
p330
I9
sS'Brian D. Ziebart'
p331
I5
sS'Giacomo Zanella'
p332
I1
sS'Pramod K. Varshney'
p333
I1
sS'Miljan Martic'
p334
I1
sS'Tingni Sun'
p335
I1
sS'Chiranjib Bhattacharyya'
p336
I7
sS'Jeffrey M. Beck'
p337
I4
sS'David Warde-Farley'
p338
I1
sS'Thierry Arti\xc3\xa8res'
p339
I1
sS'Emma Cohen'
p340
I1
sS'Garrett Thomas'
p341
I1
sS'Feng Liang'
p342
I4
sS'Wilsun Xu'
p343
I1
sS'Nishith Khandwala'
p344
I1
sS'Rakesh Shivanna'
p345
I2
sS'Kaihua Zhu'
p346
I1
sS'Cha Zhang'
p347
I1
sS'Yannai A. Gonczarowski'
p348
I1
sS'Dieter Fox'
p349
I2
sS'Won Hwa Kim'
p350
I1
sS'Luigi Acerbi'
p351
I2
sS'Ben London'
p352
I1
sS'Michael Kaufmann 0001'
p353
I1
sS'Tetsuro Morimura'
p354
I2
sS'Andreas Zeller'
p355
I1
sS'Dustin Tran'
p356
I4
sS'Benjamin Schrauwen'
p357
I7
sS'Theodoros Evgeniou'
p358
I1
sS'Cho-Jui Hsieh'
p359
I14
sS'Joo-Hwee Lim'
p360
I1
sS'Neil Zeghidour'
p361
I1
sS'Mattias H\xc3\xb6glund'
p362
I1
sS'Alan Stocker'
p363
I1
sS'Laura Dietz'
p364
I1
sS'Michael Janner'
p365
I1
sS'Hongteng Xu'
p366
I1
sS'Shenghuo Zhu'
p367
I5
sS'Eiji Mizutani'
p368
I1
sS'Julien Mairal'
p369
I9
sS'Ambedkar Dukkipati'
p370
I1
sS'Ashutosh Saxena'
p371
I6
sS'Donghyuk Shin'
p372
I1
sS'Tristan Webb'
p373
I1
sS'Minjae Lee'
p374
I1
sS'Yonatan Gur'
p375
I1
sS'Javier R. Movellan'
p376
I3
sS'Seong-Hwan Jun'
p377
I1
sS'Sushant Sachdeva'
p378
I2
sS'Aniket Anand Deshmukh'
p379
I1
sS'Andres Mu\xc3\xb1oz Medina'
p380
I3
sS'Hongdong Li'
p381
I1
sS'Jamie H. Morgenstern'
p382
I1
sS'Tanya Schmah'
p383
I1
sS'Daniel D. Lee'
p384
I10
sS'Christos Thrampoulidis'
p385
I1
sS'Jan Benda'
p386
I1
sS'Christoph Schn\xc3\xb6rr'
p387
I1
sS'Jie Chen'
p388
I1
sS'Hao Wang'
p389
I1
sS'Joel A. Tropp'
p390
I4
sS'Martin Both'
p391
I1
sS'Johannes Partzsch'
p392
I1
sS'Sidhant Misra'
p393
I1
sS'Tuan Anh Le'
p394
I1
sS'Anastasya Mishchuk'
p395
I1
sS'Giovanni Zappella'
p396
I3
sS'Fanhua Shang'
p397
I2
sS'Takuya Kida'
p398
I1
sS'Itay Hubara'
p399
I3
sS'Fredrik Lindsten'
p400
I3
sS'Josip Djolonga'
p401
I5
sS'Paul F. M. J. Verschure'
p402
I1
sS'G. Dinesh'
p403
I1
sS'Johannes E. Schindelin'
p404
I1
sS'Dmitry Pechyony'
p405
I1
sS'Sepp Hochreiter'
p406
I3
sS'Gao Huang'
p407
I1
sS'Seungjin Choi'
p408
I3
sS'Xingjian Shi'
p409
I4
sS'Ilya O. Tolstikhin'
p410
I4
sS'Jonathan D. Cohen'
p411
I4
sS'Alexandr Andoni'
p412
I1
sS'Frank McSherry'
p413
I2
sS'Brooks King-Casas'
p414
I1
sS'Karen Willcox'
p415
I2
sS'Eran Malach'
p416
I1
sS'Jonah G. Cader'
p417
I1
sS'Feng Chen 0007'
p418
I1
sS'Raef Bassily'
p419
I1
sS'Le Song'
p420
I28
sS'Shinichi Nakajima'
p421
I8
sS'Alejandro Newell'
p422
I2
sS'Viren Jain'
p423
I3
sS'Chin-Chi Hsu'
p424
I1
sS'Yedid Hoshen'
p425
I1
sS'Sebastian Millner'
p426
I1
sS'David L\xc3\xb3pez-Paz'
p427
I2
sS'Nigel H. Goddard'
p428
I2
sS'Adam R. Klivans'
p429
I2
sS'Xiaodi Hou'
p430
I1
sS'Zhecan Wang'
p431
I1
sS'Mario Lucic'
p432
I3
sS'Yoshihiro Yamanishi'
p433
I1
sS'Carl Edward Rasmussen'
p434
I5
sS'Artin Armagan'
p435
I1
sS'Shuang Wu'
p436
I2
sS'Yuan-Ting Hu'
p437
I1
sS'Ajay Jasra'
p438
I1
sS'Waldo Valenzuela'
p439
I1
sS'Jan Pfeifer'
p440
I2
sS'Mohammad Emtiyaz Khan'
p441
I3
sS'Wicher Bergsma'
p442
I1
sS'Natalia Neverova'
p443
I1
sS'Jacob Bergsma'
p444
I1
sS'S. Shankar Sastry'
p445
I1
sS'Alexander Novikov'
p446
I1
sS'Wen-Hao Chen'
p447
I1
sS'Il Memming Park'
p448
I8
sS'Mark Steyvers'
p449
I3
sS'Yangyan Li'
p450
I1
sS'Chris Pal'
p451
I1
sS'Ruohan Zhang'
p452
I1
sS'Trung V. Nguyen'
p453
I1
sS'Roy Dong'
p454
I1
sS'Qixing Huang'
p455
I2
sS'Mingzhe Wang'
p456
I1
sS'Matthias Hein 0001'
p457
I16
sS'Eilon Vaadia'
p458
I1
sS'Irwin King'
p459
I7
sS'Heng Huang'
p460
I8
sS'Ehsan Adeli-Mosabbeb'
p461
I1
sS'Vladimir Vovk'
p462
I1
sS'Nahum Shimkin'
p463
I1
sS'Matthieu Devin'
p464
I1
sS'Seungyeon Kim'
p465
I1
sS'Aki Vehtari'
p466
I1
sS'Winfried Denk'
p467
I2
sS'Anatole von Lilienfeld'
p468
I1
sS'Stephan Mandt'
p469
I3
sS'Nathan Wiebe'
p470
I1
sS'Brent Miller'
p471
I1
sS'Xin Yao 0001'
p472
I1
sS'Fei Xu'
p473
I3
sS'Xinran He'
p474
I1
sS'Nan Ye'
p475
I3
sS'Abhishek Kumar'
p476
I1
sS'Ofir Nachum'
p477
I1
sS'Jakob H. Macke'
p478
I13
sS'Jiquan Ngiam'
p479
I3
sS'Lev Reyzin'
p480
I1
sS'Christos Dimitrakakis'
p481
I1
sS'Antoine Snijders'
p482
I1
sS'Stefano Soatto'
p483
I3
sS'Tom Minka'
p484
I4
sS'Gediminas Luksys'
p485
I1
sS'Andrew Howard'
p486
I1
sS'Ian Wong'
p487
I1
sS'Charles Dubout'
p488
I1
sS'Rong Zhu'
p489
I1
sS'Eric M. Christiansen'
p490
I1
sS'Alan L. F. Lee'
p491
I1
sS'Sohaib Khan'
p492
I1
sS'Angeliki Lazaridou'
p493
I1
sS'Shin Ishii'
p494
I1
sS'Di Wang'
p495
I2
sS'Wen Dong 0001'
p496
I2
sS'Timothy T. Rogers'
p497
I5
sS'Huitong Qiu'
p498
I1
sS'Bertrand Thirion'
p499
I6
sS'Brian Milch'
p500
I1
sS'Wei-Ying Ma'
p501
I1
sS'Mehrdad Mahdavi'
p502
I6
sS'Mark Johnson'
p503
I2
sS'Michael D. Lee'
p504
I1
sS'Sjoerd van Steenkiste'
p505
I1
sS'Jake Snell'
p506
I1
sS'R. Chris Miall'
p507
I1
sS'Alyson K. Fletcher'
p508
I7
sS'Stefano Panzeri'
p509
I2
sS'Prashanth L. A.'
p510
I1
sS'Prasad Tadepalli'
p511
I5
sS'William D. Smart'
p512
I1
sS'Jean Harb'
p513
I1
sS'Andrew Wilson'
p514
I3
sS'David H. Wolpert'
p515
I1
sS'Danny Ziyi Chen'
p516
I1
sS'Antti Rasmus'
p517
I3
sS'Qin Zhang 0001'
p518
I1
sS'Wooseok Ha'
p519
I1
sS'Bernd G\xc3\xa4rtner'
p520
I1
sS'Damien Scieur'
p521
I3
sS'Deeparnab Chakrabarty'
p522
I1
sS'Jayashree Karlekar'
p523
I1
sS'Qiwei Ye'
p524
I2
sS'Lalit Jain'
p525
I3
sS'Julien Stainer'
p526
I1
sS'Nicholas Barry'
p527
I1
sS'Naiyan Wang'
p528
I1
sS'Hao Yu'
p529
I1
sS'Alexandra J. Golby'
p530
I1
sS'Xiaoming Sun'
p531
I1
sS'Ryan Giordano'
p532
I1
sS'Kazuo Okanoya'
p533
I2
sS'Dimitris Bertsimas'
p534
I1
sS'Wotao Yin'
p535
I2
sS'Jayadev Acharya'
p536
I3
sS'Jalal Fadili'
p537
I3
sS'Stewart Hall'
p538
I1
sS'Amrita Saha'
p539
I1
sS'Vittorio Murino'
p540
I3
sS'Rina Foygel Barber'
p541
I2
sS'Takashi Washio'
p542
I2
sS'Steven C. H. Hoi'
p543
I2
sS'Chinmay Hegde'
p544
I5
sS'Daniel Ritchie'
p545
I1
sS'Ali Nouri'
p546
I1
sS'Paul McKeigue'
p547
I1
sS'Sukhendu Das'
p548
I1
sS'Jonas Schneider'
p549
I2
sS'Rapha\xc3\xabl Fonteneau'
p550
I1
sS'Sheeraz Ahmad'
p551
I1
sS'Alireza Aghasi'
p552
I1
sS'Tong Guan'
p553
I1
sS'Matthew H. Wilder'
p554
I2
sS'Jessa Bekker'
p555
I1
sS'Frederic Koehler'
p556
I1
sS'Wanli Ouyang'
p557
I2
sS'Luc J. Van Gool'
p558
I4
sS'Wenhao Zhang'
p559
I2
sS'Adrian Wills'
p560
I1
sS'Ryan Babbush'
p561
I1
sS'Roland Kwitt'
p562
I2
sS'Jinwoo Shin'
p563
I4
sS'Rodrigo Nogueira'
p564
I1
sS'Jurgen Van Gael'
p565
I1
sS'Li-Ping Liu'
p566
I2
sS'Hassan A. Kingravi'
p567
I1
sS'Ye Chen'
p568
I1
sS'Matteo Papini'
p569
I1
sS'Shantanu Rane'
p570
I1
sS'Kevin G. Jamieson'
p571
I6
sS'Wolfgang Lehrach'
p572
I1
sS'Bo Waggoner'
p573
I2
sS'Soheil Mohajer'
p574
I1
sS'Olivier Fercoq'
p575
I4
sS'Matthew Loper'
p576
I1
sS'D\xc3\xaddac Rodr\xc3\xadguez Arbon\xc3\xa8s'
p577
I1
sS'Tao Hu'
p578
I2
sS'Vivien Seguy'
p579
I1
sS'Olivier Marre'
p580
I1
sS'Christian Puhrsch'
p581
I1
sS'Arash A. Amini'
p582
I1
sS'Maureen Clerc'
p583
I1
sS'Harshal R. Maske'
p584
I1
sS'Weidong Cai'
p585
I2
sS'Zhuo Wang'
p586
I3
sS'Tanja Schultz'
p587
I1
sS'Kimberly L. Stachenfeld'
p588
I1
sS'Martin Heusel'
p589
I1
sS'Arshed Nabeel'
p590
I1
sS'Amy Perfors'
p591
I1
sS'Brahim Chaib-draa'
p592
I4
sS'Zibo Meng'
p593
I1
sS'Alexander G. Schwing'
p594
I13
sS'Deepayan Chakrabarti'
p595
I2
sS'Matthew T. Harrison'
p596
I1
sS'Tommaso Fellin'
p597
I1
sS'Suvrit Sra'
p598
I13
sS'Mohammad Khajah'
p599
I1
sS'Benjamin M. Marlin'
p600
I3
sS'Guy L. Steele Jr.'
p601
I1
sS'Ken Takiyama'
p602
I1
sS'Hangen He'
p603
I1
sS'Chris Dyer'
p604
I2
sS'Georgios B. Giannakis'
p605
I2
sS'Yoshiki Suzuki'
p606
I1
sS'Trevor Hastie'
p607
I2
sS'Idan Schwartz'
p608
I1
sS'Kenneth D. Miller'
p609
I1
sS'Jose Ayres Pereira'
p610
I1
sS'Nicol N. Schraudolph'
p611
I1
sS'Hanul Shin'
p612
I1
sS'Xu-Dong Zhang'
p613
I1
sS'Zheng Xu 0002'
p614
I1
sS'Vivek Srikumar'
p615
I1
sS'Benedict J. Leimkuhler'
p616
I1
sS'Misha Denil'
p617
I3
sS'Nan Du'
p618
I7
sS'Emilie Kaufmann'
p619
I3
sS'Sinong Geng'
p620
I1
sS'Hartwig R. Siebner'
p621
I1
sS'Yi-An Lai'
p622
I1
sS'Richard Peng'
p623
I1
sS'James Y. Zou'
p624
I4
sS'Florentin W\xc3\xb6rg\xc3\xb6tter'
p625
I1
sS'Partha Pratim Talukdar'
p626
I1
sS'Ragupathyraj Valluvan'
p627
I1
sS'Jonathan Kadmon'
p628
I1
sS'Yoav Goldberg'
p629
I2
sS'William Dabney'
p630
I1
sS'Eug\xc3\xa8ne Ndiaye'
p631
I2
sS'Antoine D\xc3\xa9sir'
p632
I1
sS'Yonatan Belinkov'
p633
I1
sS'William M. Campbell'
p634
I2
sS'Martin A. Riedmiller'
p635
I2
sS'Chiru Bhattacharyya'
p636
I2
sS'Naoto Ohsaka'
p637
I1
sS'Sanghack Lee'
p638
I1
sS'Kumar Sricharan'
p639
I2
sS'Terence D. Sanger'
p640
I1
sS'Eiji Uchibe'
p641
I1
sS'Abhishek Sharma'
p642
I1
sS'Ehsan Abbasi'
p643
I1
sS'Michael B. Wakin'
p644
I1
sS'Mark A. Davenport'
p645
I1
sS'Victor Bittorf'
p646
I2
sS'Yu Zhang'
p647
I2
sS'Roger Frigola'
p648
I2
sS'Qiang Qiu'
p649
I1
sS'Weichang Li'
p650
I1
sS'Andrea Passerini'
p651
I1
sS'Stefano Fusi'
p652
I1
sS'Steve N. MacEachern'
p653
I1
sS'Prakash Panangaden'
p654
I2
sS'Benjamin J. Culpepper'
p655
I1
sS'Hossein Esfandiari'
p656
I1
sS'Gheorghe Comanici'
p657
I1
sS'Jan Kautz'
p658
I2
sS'Eric Brochu'
p659
I1
sS'Evimaria Terzi'
p660
I1
sS'Sayan Mukherjee'
p661
I1
sS'Sergey Levine'
p662
I10
sS'Yi-Kai Liu'
p663
I2
sS'Lumin Zhang'
p664
I1
sS'Feng Wu'
p665
I1
sS'Yichuan Tang'
p666
I2
sS'R\xc3\xb3mer Rosales'
p667
I1
sS'Ronan Fruit'
p668
I1
sS'Hung Hai Bui'
p669
I2
sS'Qing Zhao'
p670
I1
sS'Irina Rish'
p671
I1
sS'Raman Sankaran'
p672
I2
sS'Xinyun Chen'
p673
I1
sS'Sheng Chen'
p674
I5
sS'Andrew M. McDonald'
p675
I1
sS'Florian Steinke'
p676
I2
sS'Leon A. Gatys'
p677
I1
sS'Antti Honkela'
p678
I1
sS'Andrea Bonarini'
p679
I1
sS'Gary Holt'
p680
I1
sS'Dominique Tschopp'
p681
I1
sS'Th\xc3\xa9odore Bluche'
p682
I1
sS'Dmitry Volkinshtein'
p683
I1
sS'Rich Caruana'
p684
I2
sS'Tzu-Kuo Huang'
p685
I4
sS'Abdul-Saboor Sheikh'
p686
I3
sS'Xiao Li'
p687
I1
sS'John C. Duchi'
p688
I15
sS'Neil Burch'
p689
I1
sS'Richard Socher'
p690
I7
sS'Charles Kalish'
p691
I1
sS'Chengkai Zhang'
p692
I1
sS'Ariel Rokem'
p693
I1
sS'Sashank J. Reddi'
p694
I4
sS'Buser Say'
p695
I1
sS'Parag Singla'
p696
I5
sS'Manuela M. Veloso'
p697
I1
sS'Yilu Guo'
p698
I1
sS'Oguz Elibol'
p699
I1
sS'Serge Massar'
p700
I1
sS'Gergely Neu'
p701
I7
sS'Shengjia Zhao'
p702
I2
sS'Zhixun Su'
p703
I1
sS'Xinyang Yi'
p704
I4
sS'Tian Lan'
p705
I2
sS'Xiao-Ming Wu'
p706
I3
sS'Klaus-Robert M\xc3\xbcller'
p707
I14
sS'Michail Kontitsis'
p708
I1
sS'Sejun Park'
p709
I1
sS'Rudy R. Bunel'
p710
I2
sS'Yi-Da Wu'
p711
I1
sS'Lee Campbell'
p712
I1
sS'Omkar Muralidharan'
p713
I1
sS'Maximilian Balandat'
p714
I1
sS'Nino Shervashidze'
p715
I1
sS'Oksana Yakhnenko'
p716
I1
sS'Dan Garber'
p717
I5
sS'Yijun Huang'
p718
I2
sS'Lerrel Pinto'
p719
I1
sS'Biswa Sengupta'
p720
I1
sS'Franziska Meier'
p721
I1
sS'Ioannis Partalas'
p722
I2
sS'Douglas Eck'
p723
I2
sS'Dongsheng Li'
p724
I1
sS'Bojun Tu'
p725
I1
sS'Dan Wu'
p726
I1
sS'Sam Patterson'
p727
I1
sS'S. M. Ali Eslami'
p728
I4
sS'Faisal Khan'
p729
I1
sS'Yuan Zhao'
p730
I1
sS'Max Hinne'
p731
I1
sS'Julie A. Shah'
p732
I3
sS'Lei Wu'
p733
I1
sS'Peter Kairouz'
p734
I2
sS'Yi Ouyang'
p735
I1
sS'Ilana Witten'
p736
I1
sS'Yali Wan'
p737
I2
sS'Florian Strub'
p738
I1
sS'Shaunak Chatterjee'
p739
I1
sS'Justin T. Khim'
p740
I1
sS'Feng Yan'
p741
I1
sS'Chi Jin'
p742
I4
sS'Wenlin Chen'
p743
I1
sS'Tianshi Gao'
p744
I2
sS'Lawrence Cayton'
p745
I2
sS'Aurel A. Lazar'
p746
I2
sS'Michael Pfeiffer'
p747
I3
sS'Zhize Li'
p748
I1
sS'Stephen Baccus'
p749
I1
sS'Hang Cui'
p750
I1
sS'Dominique Guillot'
p751
I1
sS'Sungwoong Kim'
p752
I1
sS'In-So Kweon'
p753
I1
sS'Boaz Nadler'
p754
I2
sS'Kobus Barnard'
p755
I1
sS'Soumyadeep Chatterjee'
p756
I1
sS'Manfred K. Warmuth'
p757
I7
sS'James M. Rehg'
p758
I1
sS'Yuxuan Wang'
p759
I1
sS'Jorge G. Silva'
p760
I2
sS'Stephen J. Green'
p761
I1
sS'Felix V. Agakov'
p762
I1
sS'Toke Jansen Hansen'
p763
I1
sS'Andrew Loeb'
p764
I1
sS'Adam Craig Pocock'
p765
I1
sS'Ladan Shams'
p766
I2
sS'Wei Fan'
p767
I2
sS'Vasiliy Karasev'
p768
I1
sS'Holakou Rahmanian'
p769
I1
sS'Huixia Judy Wang'
p770
I1
sS'Liang Sun 0001'
p771
I4
sS'Thore Graepel'
p772
I3
sS'Lloyd Russell'
p773
I1
sS'Yichen Wang'
p774
I4
sS"Alexander D'Amour"
p775
I1
sS'Jeff G. Schneider'
p776
I9
sS'Addison Hu'
p777
I1
sS'Kristofer E. Bouchard'
p778
I1
sS'Ron Meir'
p779
I6
sS'Surbhi Goel'
p780
I1
sS'Mingyuan Zhou'
p781
I5
sS'Bhanukiran Vinzamuri'
p782
I1
sS'Michael I. Jordan'
p783
I45
sS'Yibiao Zhao'
p784
I1
sS'Nina Mishra'
p785
I1
sS'Aur\xc3\xa9lien Lucchi'
p786
I3
sS'Akos Vetek'
p787
I1
sS'Ivan Titov'
p788
I1
sS'Luis E. Ortiz'
p789
I4
sS'Joseph Lehec'
p790
I1
sS'Josh Tenenbaum'
p791
I8
sS'Jonathan Ullman'
p792
I1
sS'Mario Boley'
p793
I1
sS'Alexander Zimin'
p794
I1
sS'Sasu Tarkoma'
p795
I1
sS'Congcong Li'
p796
I2
sS'Geoffrey T. Manley'
p797
I1
sS'Jean-Pierre Martens'
p798
I1
sS'David Baker'
p799
I1
sS'Yichong Xu'
p800
I1
sS'Jong Kyoung Kim'
p801
I1
sS'Iain A. Matthews'
p802
I1
sS'Arthur U. Asuncion'
p803
I3
sS'Moses Charikar'
p804
I1
sS'Guillaume Bouchard'
p805
I2
sS'Qi Zhang'
p806
I1
sS'S\xc3\xb6ren Laue'
p807
I1
sS'P\xc3\xa9ter Karkus'
p808
I1
sS'Andr\xc3\xa9 Elisseeff'
p809
I1
sS'Chris Fernandez'
p810
I1
sS'Pierre Geurts'
p811
I1
sS'Davide Badoni'
p812
I1
sS'S. Derin Babacan'
p813
I4
sS'Johan A. K. Suykens'
p814
I1
sS'Agnes Radl'
p815
I1
sS'Eric Tzeng'
p816
I1
sS'Mihaela van der Schaar'
p817
I4
sS'Andrea Frome'
p818
I1
sS'Christoph Hofer'
p819
I1
sS'Maksim Zhukovskii'
p820
I1
sS'Guillaume Rabusseau'
p821
I3
sS'David Levine'
p822
I1
sS'R. Srikant'
p823
I1
sS'Sonia A. Bhaskar'
p824
I1
sS'Marios Savvides'
p825
I1
sS'Shohei Hido'
p826
I1
sS'Shimon Whiteson'
p827
I3
sS'Issam Safa'
p828
I1
sS'Ana Radovanovic'
p829
I1
sS'Miguel P. Eckstein'
p830
I1
sS'J. Andrew Bagnell'
p831
I1
sS'Deguang Kong'
p832
I1
sS'Saizheng Zhang'
p833
I3
sS'Frederik Mallmann-Trenn'
p834
I1
sS'Demjan Grubic'
p835
I1
sS'Balamurugan Palaniappan'
p836
I1
sS'Rhiju Das'
p837
I1
sS'Ichiro Takeuchi'
p838
I6
sS'Shusen Wang'
p839
I1
sS'Jason Eisner'
p840
I4
sS'Qi Lei'
p841
I2
sS'Soheil Feizi'
p842
I2
sS'Felipe Llinares-L\xc3\xb3pez'
p843
I1
sS'Salman Avestimehr'
p844
I1
sS'Danijar Hafner'
p845
I1
sS'Henry R. Ehrenberg'
p846
I1
sS'Dotan Di Castro'
p847
I1
sS'Michael Cogswell'
p848
I1
sS'Brian Bullins'
p849
I1
sS'Pascal Pompey'
p850
I1
sS'Pinghua Gong'
p851
I2
sS'Vladimir Kolmogorov'
p852
I2
sS'Gal Elidan'
p853
I4
sS'\xc3\x9cr\xc3\xbcn Dogan'
p854
I2
sS'Piyush Rai'
p855
I6
sS'Nobuyuki Shimizu'
p856
I1
sS'Yu Zhang 0006'
p857
I2
sS'Amir Saffari'
p858
I1
sS'Tom\xc3\xa1s Koc\xc3\xa1k'
p859
I1
sS'Harish G. Ramaswamy'
p860
I2
sS'Joseph Keshet'
p861
I5
sS'Ken-ichi Kawarabayashi'
p862
I1
sS'Jin Lu'
p863
I1
sS'Sathya Narayanan Ravi'
p864
I1
sS'Tuan Anh Nguyen 0001'
p865
I1
sS'Leandro Soriano Marcolino'
p866
I1
sS'Cosmin Adrian Bejan'
p867
I1
sS'Emma Brunskill'
p868
I5
sS'Jonathan Breshears'
p869
I1
sS'Peter J. Sadowski'
p870
I2
sS'Dylan J. Foster'
p871
I4
sS'Marcel A. J. van Gerven'
p872
I2
sS'Cong Zhao'
p873
I1
sS'Ravindran Kannan'
p874
I1
sS'Alexander Gasnikov'
p875
I1
sS'Taiji Suzuki'
p876
I8
sS'Yong Jiang'
p877
I1
sS'Jeff Donahue'
p878
I1
sS'Milan Vojnovic'
p879
I3
sS'Wei-Cheng Chang'
p880
I1
sS'Arun Sai Suggala'
p881
I1
sS'Francesco Dinuzzo'
p882
I2
sS'Damien Garreau'
p883
I1
sS'Dean P. Foster'
p884
I7
sS'Amin Jalali'
p885
I1
sS'Tonio Ball'
p886
I1
sS'Madalina Fiterau'
p887
I1
sS'Paul A. Viola'
p888
I1
sS'Sara Shanian'
p889
I1
sS'Mitesh M. Khapra'
p890
I1
sS'Yin Chen'
p891
I1
sS'Jalal Etesami'
p892
I1
sS'Seok Hyun Jin'
p893
I1
sS'Aram Galstyan'
p894
I3
sS'Yi Sun'
p895
I3
sS'Tegan Maharaj'
p896
I1
sS'Joseph Wang'
p897
I3
sS'Mark A. Girolami'
p898
I4
sS'Francis Dutil'
p899
I1
sS'Umut G\xc3\xbc\xc3\xa7l\xc3\xbc'
p900
I2
sS'Marina Meila'
p901
I6
sS'Sander M. Bohte'
p902
I3
sS'Asuman E. Ozdaglar'
p903
I2
sS'Qian Xu'
p904
I1
sS'Stephen J. Wright'
p905
I4
sS'Pan Xu'
p906
I2
sS'Zhengdong Lu'
p907
I5
sS'Hongsheng Li'
p908
I1
sS'Zhangyang Wang'
p909
I1
sS'Lan Du'
p910
I1
sS'Ronghang Hu'
p911
I1
sS'Anna Harutyunyan'
p912
I1
sS'Ian En-Hsu Yen'
p913
I6
sS'Tamara Broderick'
p914
I6
sS'Yanqi Zhou'
p915
I1
sS'Yizhou Wang 0001'
p916
I1
sS'Pierre Machart'
p917
I1
sS'Hongming Pu'
p918
I1
sS'Yung-Kyun Noh'
p919
I3
sS'Le An'
p920
I1
sS'Jinsong Tan'
p921
I1
sS'Trung Le'
p922
I2
sS'Stefano Favaro'
p923
I1
sS'Taylor Berg-Kirkpatrick'
p924
I1
sS'Mandar Dixit'
p925
I1
sS'Dmitriy Serdyuk'
p926
I1
sS'Yiran Chen'
p927
I2
sS'David J. Crandall'
p928
I1
sS'Zhiqiang Hu'
p929
I1
sS'Wongun Choi'
p930
I1
sS'Ian B. Ross'
p931
I1
sS'Peter W. Glynn'
p932
I2
sS'Marijn F. Stollenga'
p933
I2
sS'Ulrike von Luxburg'
p934
I6
sS'Olivier Chapelle'
p935
I6
sS'Moritz Helmstaedter'
p936
I2
sS'Andrew M. Saxe'
p937
I3
sS'Siddharth Ancha'
p938
I1
sS'Rafael M. Frongillo'
p939
I7
sS'Mingzhang Yin'
p940
I1
sS'Theodore J. Perkins'
p941
I1
sS'Lin Chen 0003'
p942
I2
sS'Felipe A. Tobar'
p943
I1
sS'Thomas Peel'
p944
I1
sS'Emilie Morvant'
p945
I1
sS'Fanny Yang'
p946
I3
sS'Andrea Tacchetti'
p947
I1
sS'Santiago R. Balseiro'
p948
I1
sS'Meiguang Jin'
p949
I1
sS'Pai-Hsi Huang'
p950
I1
sS'Thomas Finley'
p951
I1
sS'Austin R. Benson'
p952
I2
sS'Yan Duan'
p953
I4
sS'William T. Freeman'
p954
I1
sS'James G. Scott'
p955
I1
sS'Minh Hoai'
p956
I1
sS'Sungrack Yun'
p957
I1
sS'Weichi Yao'
p958
I1
sS'Jure Leskovec'
p959
I5
sS'Nihat Ay'
p960
I1
sS'Alexander A. Alemi'
p961
I1
sS'Charles Beattie'
p962
I1
sS'Xin Liu 0002'
p963
I2
sS'Ankit Singh Rawat'
p964
I1
sS'Jan R. Peters'
p965
I1
sS'Kee-Eung Kim'
p966
I4
sS'Gabriel Krummenacher'
p967
I2
sS'Rinu Boney'
p968
I1
sS'Marcelo Fiori'
p969
I2
sS'Zhoutong Zhang'
p970
I1
sS'Shervin Javdani'
p971
I1
sS'David C. Parkes'
p972
I8
sS'Guillermo A. Cecchi'
p973
I1
sS'Michael W. Mahoney'
p974
I8
sS'Alireza Makhzani'
p975
I2
sS'Maria-Florina Balcan'
p976
I9
sS'James An'
p977
I1
sS'Lavi Shpigelman'
p978
I1
sS'Jason Ge'
p979
I1
sS'Duy Quang Vu'
p980
I1
sS'Joelle Pineau'
p981
I10
sS'Thomas J. Walsh'
p982
I1
sS'Qiang Cheng'
p983
I2
sS'Olivier Capp\xc3\xa9'
p984
I2
sS'Ming-Ting Sun'
p985
I1
sS'Zhaohan Guo'
p986
I1
sS'Mudassir Shabbir'
p987
I1
sS'Jan-Matthis Lueckmann'
p988
I1
sS'Luca Maria Gambardella'
p989
I1
sS'Bela A. Frigyik'
p990
I2
sS'Lenka Zdeborov\xc3\xa1'
p991
I4
sS'Bryan R. Gibson'
p992
I2
sS'Byron Boots'
p993
I6
sS'Zhanhong Jiang'
p994
I1
sS'Andreas Mayr'
p995
I2
sS'Colin Campbell'
p996
I2
sS'Ravi Sastry Ganti Mahapatruni'
p997
I1
sS'Za\xc3\xafd Harchaoui'
p998
I9
sS'John Agapiou'
p999
I1
sS'Jianqiu Ji'
p1000
I1
sS'Vlad Niculae'
p1001
I2
sS'Andreas Geiger'
p1002
I2
sS'Nick Foti'
p1003
I1
sS'Jacob Goldberger'
p1004
I2
sS'S\xc3\xa9bastien Leprince'
p1005
I1
sS'Aaron Defazio'
p1006
I3
sS'Tungyou Lin'
p1007
I1
sS'Ching-An Cheng'
p1008
I2
sS'Karsten M. Borgwardt'
p1009
I8
sS'L\xc3\xa1szl\xc3\xb3 A. V\xc3\xa9gh'
p1010
I1
sS'Ren\xc3\xa9 Vidal'
p1011
I2
sS'Haochen Wei'
p1012
I1
sS'Lancelot F. James'
p1013
I1
sS'Tom Schaul'
p1014
I4
sS'Hsin Chen'
p1015
I1
sS'Hsiao-Wei Tung'
p1016
I1
sS'Thomas Dorin'
p1017
I1
sS'Alan Jern'
p1018
I4
sS'Tony X. Han'
p1019
I1
sS'Facundo M\xc3\xa9moli'
p1020
I1
sS'John C. Mitchell'
p1021
I1
sS'Nawanol Ampornpunt'
p1022
I1
sS'Tomi Janhunen'
p1023
I1
sS'Franz Pernkopf'
p1024
I1
sS'Lester W. Mackey'
p1025
I3
sS'Greg Ver Steeg'
p1026
I2
sS'Firdaus Janoos'
p1027
I2
sS'Chen Huang'
p1028
I1
sS'Wenming Zheng'
p1029
I1
sS'Jialian Li'
p1030
I1
sS'Cristian Brotto'
p1031
I1
sS'Tor Lattimore'
p1032
I9
sS'Artur Dubrawski'
p1033
I3
sS'Jack Valmadre'
p1034
I1
sS'Stefan Bauer'
p1035
I2
sS'Ferenc Huszar'
p1036
I1
sS'Carmelo Piccione'
p1037
I1
sS'Leonard E. White'
p1038
I1
sS'Yuh-Jye Lee'
p1039
I1
sS'Wei Ji Ma'
p1040
I2
sS'Man Lan'
p1041
I1
sS'Chong Jiang'
p1042
I1
sS'Jiajing Xu'
p1043
I1
sS'Issei Sato'
p1044
I5
sS'Avrim Blum'
p1045
I7
sS'Ren\xc3\xa9 Sch\xc3\xbcffny'
p1046
I1
sS'Artem Sokolov'
p1047
I1
sS'Anirban Roychowdhury'
p1048
I2
sS'Sergio Guadarrama'
p1049
I1
sS'Christian Mayr'
p1050
I1
sS'Brendan Shillingford'
p1051
I1
sS'Minh Tan Nguyen'
p1052
I1
sS'Yan Liu'
p1053
I3
sS'Jingdong Chen'
p1054
I1
sS'Mehrdad Ghadiri'
p1055
I1
sS'John W. Roberts'
p1056
I1
sS'Stefan Habenschuss'
p1057
I2
sS'Scott Yang'
p1058
I4
sS'Tom Nicholson'
p1059
I1
sS'Tu Nguyen'
p1060
I1
sS'Tran The Truyen'
p1061
I1
sS'Firas Hamze'
p1062
I1
sS'Anna Thomas'
p1063
I1
sS'Chendi Huang'
p1064
I1
sS'Stephen Green'
p1065
I1
sS'Scott Cohen'
p1066
I1
sS'Kevin R. Moon'
p1067
I1
sS'Kendrick N. Kay'
p1068
I1
sS'Jin W. Kim'
p1069
I1
sS'Steven K. Esser'
p1070
I1
sS'Fuxin Li'
p1071
I2
sS'Alp Kucukelbir'
p1072
I1
sS'Chongjie Zhang'
p1073
I1
sS'Luke S. Zettlemoyer'
p1074
I1
sS'Ming Lin'
p1075
I1
sS'Christopher Beckham'
p1076
I1
sS'Andr\xc3\xa9 da Motta Salles Barreto'
p1077
I2
sS'Chao Yuan'
p1078
I1
sS'Kejun Huang'
p1079
I1
sS'Le Fang'
p1080
I1
sS'Christian Albers'
p1081
I2
sS'Wei-Shou Hsu'
p1082
I1
sS'Demis Hassabis'
p1083
I2
sS'Ke Jiang'
p1084
I2
sS'Adri\xc3\xa0 Recasens'
p1085
I1
sS'Yanshuai Cao'
p1086
I1
sS'Chao Pan'
p1087
I1
sS'Longyin Wen'
p1088
I1
sS'David Rubin'
p1089
I1
sS'Huziel Enoc Sauceda Felix'
p1090
I1
sS'Ryan Lowe'
p1091
I1
sS'Christopher Harvey'
p1092
I1
sS'Ping Luo'
p1093
I1
sS'Zelda E. Mariet'
p1094
I2
sS'Song Liu'
p1095
I2
sS'Evangelos Theodorou'
p1096
I1
sS'Yuanjun Gao'
p1097
I2
sS'Yang Zhang'
p1098
I1
sS'Philippe Donnat'
p1099
I1
sS'David R. Karger'
p1100
I1
sS'Nicolai Meinshausen'
p1101
I2
sS'Laurent Dinh'
p1102
I2
sS'David F. Harwath'
p1103
I1
sS'Shan-Hung Wu'
p1104
I1
sS'Rui Ponte Costa'
p1105
I1
sS'Amarnag Subramanya'
p1106
I1
sS'Finale Doshi-Velez'
p1107
I5
sS'Adam Bloniarz'
p1108
I1
sS'A. Robert Calderbank'
p1109
I2
sS'Krzysztof Choromanski'
p1110
I1
sS'Prasanna Sattigeri'
p1111
I1
sS'Thomas P. Parnell'
p1112
I1
sS'Kai Wei'
p1113
I1
sS'Kush R. Varshney'
p1114
I2
sS'Ahmed El Alaoui'
p1115
I1
sS'Cong Xu'
p1116
I1
sS'Mikko Heikkil\xc3\xa4'
p1117
I1
sS'Arkadas Ozakin'
p1118
I1
sS'Guillaume P. Dehaene'
p1119
I1
sS'Russ Tedrake'
p1120
I1
sS'H. Steven Scholte'
p1121
I1
sS'Pedro A. Ortega'
p1122
I2
sS'Scott Roy'
p1123
I1
sS'Jean Ponce'
p1124
I2
sS'Joshua Kulas'
p1125
I1
sS'Albert S. Berahas'
p1126
I1
sS'Quentin J. M. Huys'
p1127
I1
sS'Matthew Staib'
p1128
I1
sS'Ilias Diakonikolas'
p1129
I3
sS'Matthew F. Der'
p1130
I1
sS'Christoph Sawade'
p1131
I3
sS'Arturs Backurs'
p1132
I1
sS'Yashar Ahmadian'
p1133
I1
sS'Xiaogang Wang'
p1134
I5
sS'Umar Syed'
p1135
I8
sS'DeLiang Wang'
p1136
I1
sS'Ludwig Schmidt'
p1137
I5
sS'Dmitry Kamenetsky'
p1138
I1
sS'Eduard H. Hovy'
p1139
I1
sS'Tommi S. Jaakkola'
p1140
I14
sS'Vahab S. Mirrokni'
p1141
I5
sS'Pekka Parviainen'
p1142
I1
sS'Sundeep Rangan'
p1143
I7
sS"Alexandre d'Aspremont"
p1144
I8
sS'Antti Hyttinen'
p1145
I1
sS'Aaron Wilson'
p1146
I1
sS'Nadia Payet'
p1147
I1
sS'Marcel Stimberg'
p1148
I1
sS'Joseph Geumlek'
p1149
I1
sS'Tom Sercu'
p1150
I1
sS'Marius Leordeanu'
p1151
I1
sS'Byoung-Tak Zhang'
p1152
I3
sS'Andrew C. Miller'
p1153
I2
sS'Ziv Bar-Joseph'
p1154
I2
sS'Pinar Yanardag'
p1155
I1
sS'R\xc3\xa9mi Lam'
p1156
I2
sS'Jonathan J. Hunt'
p1157
I2
sS'Louis Theran'
p1158
I1
sS'Niklas Kasenburg'
p1159
I1
sS'Leonidas Lampropoulos'
p1160
I1
sS'Joshua T. Abbott'
p1161
I3
sS'Emre Kiciman'
p1162
I1
sS'Karl Schultz'
p1163
I1
sS'Sharmodeep Bhattacharya'
p1164
I1
sS'Katerina Clemens'
p1165
I1
sS'Juan A. Rodr\xc3\xadguez-Aguilar'
p1166
I1
sS'Kiyohito Nagano'
p1167
I2
sS'Adrian R. Vetta'
p1168
I1
sS'Xinying Song'
p1169
I1
sS'Chengtao Li'
p1170
I2
sS'Marcus A. Maloof'
p1171
I1
sS'Shaobing Gao'
p1172
I1
sS'Sanjay Krishnan'
p1173
I1
sS'Frank No\xc3\xa9'
p1174
I1
sS'Yuanzhi Li'
p1175
I6
sS'Polina Golland'
p1176
I3
sS'Mohammad E. Khan'
p1177
I2
sS'Ross B. Girshick'
p1178
I3
sS'Yang Xu'
p1179
I1
sS'Huahua Wang'
p1180
I4
sS'Viviana Petrescu'
p1181
I1
sS'Ronggang Wang'
p1182
I1
sS'Joseph Salmon'
p1183
I4
sS'Svetlana Lazebnik'
p1184
I4
sS'Yao Ma'
p1185
I1
sS'Pulkit Grover'
p1186
I2
sS'Thomas G. Dietterich'
p1187
I3
sS'Saurabh Singh'
p1188
I1
sS'Nitin Motgi'
p1189
I1
sS'Yingzhen Yang'
p1190
I1
sS'Esther T. Chan'
p1191
I1
sS'Eric Grimson'
p1192
I2
sS'Markus Weimer'
p1193
I2
sS'Dan Lizotte'
p1194
I1
sS'Sifei Liu'
p1195
I1
sS'Yong Ren'
p1196
I2
sS'\xc3\x80gata Lapedriza'
p1197
I1
sS'Erik Sj\xc3\xb6lund'
p1198
I1
sS'Matthias H. J. Munk'
p1199
I1
sS'Yu-Feng Li'
p1200
I1
sS"Florence d'Alch\xc3\xa9-Buc"
p1201
I1
sS'Nicholas Hay'
p1202
I1
sS'Quentin Berthet'
p1203
I2
sS'Oren Etzioni'
p1204
I1
sS'Dino Oglic'
p1205
I1
sS'Yining Wang'
p1206
I6
sS'Jason D. Hartline'
p1207
I1
sS'Parikshit Shah'
p1208
I1
sS'Michael Schober'
p1209
I1
sS'Bruno Scarpa'
p1210
I1
sS'Ming-Hsuan Yang'
p1211
I1
sS'Jan Feyereisl'
p1212
I1
sS'Ben Calderhead'
p1213
I3
sS'Beomjoon Kim'
p1214
I1
sS'Paul Swoboda'
p1215
I1
sS'Cameron Musco'
p1216
I3
sS'Seyed Mehran Kazemi'
p1217
I1
sS'Stephane Oudard'
p1218
I1
sS'Pawel M. Chilinski'
p1219
I1
sS'Xaq Pitkow'
p1220
I3
sS'Constantine Caramanis'
p1221
I8
sS'Jianchao Yang'
p1222
I1
sS'Francesco Locatello'
p1223
I1
sS'Ahmad Salman'
p1224
I1
sS'Ning Gu'
p1225
I1
sS'Sohail Bahmani'
p1226
I1
sS'Darrell Hoy'
p1227
I1
sS'Harikrishna Narasimhan'
p1228
I4
sS'Raquel Urtasun'
p1229
I17
sS'Peter Schulam'
p1230
I3
sS'Kayhan \xc3\x96zcimder'
p1231
I1
sS'Noam Brown'
p1232
I2
sS'Bart Goossens'
p1233
I1
sS'Yu-Ying Liu'
p1234
I1
sS'Karthikeyan Shanmugam'
p1235
I5
sS'David Barber'
p1236
I4
sS'Slobodan Mitrovic'
p1237
I1
sS'Timothy Arthur Mann'
p1238
I2
sS'Haoyuan Gao'
p1239
I1
sS'Michael Ross'
p1240
I1
sS'Sujay Sanghavi'
p1241
I11
sS'Duane Szafron'
p1242
I2
sS'Figen \xc3\x96ztoprak'
p1243
I1
sS'Seyed Hamed Hassani'
p1244
I1
sS'Thomas P. Hayes'
p1245
I1
sS'Yanjun Han'
p1246
I1
sS'Sujith Ravi'
p1247
I1
sS'Liva Ralaivola'
p1248
I4
sS'Aditya Grover'
p1249
I1
sS'Constantinos Daskalakis'
p1250
I2
sS'Vasant G. Honavar'
p1251
I1
sS'Liangbei Xu'
p1252
I1
sS'Yi Zhang'
p1253
I1
sS'Ashique Rupam Mahmood'
p1254
I1
sS'Satwik Kottur'
p1255
I1
sS'Marek Doniec'
p1256
I1
sS'Clay J. Stanek'
p1257
I1
sS'Sachiko Kinoshita'
p1258
I1
sS'Volkan Cevher'
p1259
I15
sS'Sergey Kirshner'
p1260
I1
sS'Ben Carterette'
p1261
I1
sS'Radu Marinescu 0002'
p1262
I1
sS'Tomasz Malisiewicz'
p1263
I1
sS'Alexander Binder'
p1264
I1
sS'Maosong Sun'
p1265
I1
sS'Futoshi Futami'
p1266
I1
sS'Stefan Falkner'
p1267
I1
sS'Carlos Faraco'
p1268
I1
sS'Jon McAuliffe'
p1269
I2
sS'Alexander Rakhlin'
p1270
I10
sS'Bryan R. Conroy'
p1271
I1
sS'Leslie Pack Kaelbling'
p1272
I2
sS'Fran\xc3\xa7ois G. Meyer'
p1273
I1
sS'Jes\xc3\xbas Cerquides'
p1274
I1
sS'Purnamrita Sarkar'
p1275
I4
sS'Shahin Jabbari'
p1276
I1
sS'Long Zhu'
p1277
I2
sS'Andrew McCallum'
p1278
I6
sS'Bert De Brabandere'
p1279
I1
sS'Prateek Jain 0002'
p1280
I26
sS'Neil D. Lawrence'
p1281
I8
sS'Aaron Klein'
p1282
I2
sS'Arash Amini'
p1283
I1
sS'Suchi Saria'
p1284
I2
sS'Yariv Maron'
p1285
I1
sS'Dianqi Li'
p1286
I1
sS'Trung-Thanh Pham'
p1287
I1
sS'Yelong Shen'
p1288
I1
sS'Sahand Negahban'
p1289
I6
sS'Arthur Mensch'
p1290
I2
sS'Yuan Qi'
p1291
I1
sS'Kian Ming Adam Chai'
p1292
I4
sS'Azarakhsh Jalalvand'
p1293
I1
sS'Hanlin Goh'
p1294
I1
sS'Cong Xie'
p1295
I1
sS'Morten M\xc3\xb8rup'
p1296
I2
sS'Stephen Tyree'
p1297
I1
sS'Evan Racah'
p1298
I1
sS'Djordje Jevdjic'
p1299
I1
sS'Hossein Adeli'
p1300
I1
sS'Brendan Lucier'
p1301
I1
sS'Zheng Zhang 0003'
p1302
I1
sS'Yoav Wald'
p1303
I1
sS'Kannan Achan'
p1304
I1
sS'Hao Li'
p1305
I1
sS'Rashish Tandon'
p1306
I1
sS'Mohammad Norouzi 0002'
p1307
I2
sS'Xiangru Huang'
p1308
I2
sS'Jan M. Maciejowski'
p1309
I1
sS'Xiaofeng Ren'
p1310
I3
sS'Al\xc3\xa1n Aspuru-Guzik'
p1311
I1
sS'Thomas B. Sch\xc3\xb6n'
p1312
I4
sS'Vatsal Sharan'
p1313
I1
sS'Marc Sebban'
p1314
I1
sS'Kristjan Greenewald'
p1315
I2
sS'Andrew Delong'
p1316
I1
sS'Kevin Shi'
p1317
I1
sS'Weiran Wang'
p1318
I2
sS'Charles Y. Zheng'
p1319
I1
sS'Samuel J. Gershman'
p1320
I1
sS'Pietro Perona'
p1321
I4
sS'Evgeniy Bart'
p1322
I1
sS'Katherine A. Heller'
p1323
I8
sS'Alberto Garc\xc3\xada-Dur\xc3\xa1n'
p1324
I2
sS'Jaime S. Ide'
p1325
I1
sS"Dianne P. O'Leary"
p1326
I1
sS'Christian A. Naesseth'
p1327
I1
sS'Akihiro Kishimoto'
p1328
I1
sS'Scott Niekum'
p1329
I3
sS'Nuno Vasconcelos'
p1330
I12
sS'Jan Chorowski'
p1331
I1
sS'Dajiang Zhu'
p1332
I1
sS'Argyris Kalogeratos'
p1333
I1
sS'Mayur Naik'
p1334
I1
sS'M. Pawan Kumar'
p1335
I5
sS'Michael Shvartsman'
p1336
I1
sS'Onur Teymur'
p1337
I1
sS'Emmanuel Abbe'
p1338
I3
sS'Murat Dundar'
p1339
I1
sS'Todd E. Zickler'
p1340
I1
sS'Alan Fern'
p1341
I6
sS'Mikko Koivisto'
p1342
I1
sS'Cheng Deng'
p1343
I2
sS'Raphael Sznitman'
p1344
I1
sS'Yi Zhang 0010'
p1345
I2
sS'Xiaorui Sun'
p1346
I2
sS'Chunpeng Wu'
p1347
I2
sS'Vadim V. Nikulin'
p1348
I2
sS'Matthieu Courbariaux'
p1349
I2
sS'Ruiyu Li'
p1350
I1
sS'Peter Stobbe'
p1351
I1
sS'Isao Ono'
p1352
I1
sS'Xiaohan Wei'
p1353
I2
sS'Stefan Schaal'
p1354
I3
sS'Sanjoy K. Mitter'
p1355
I2
sS'Hastagiri P. Vanchinathan'
p1356
I1
sS'Florian Franzen'
p1357
I1
sS'Adam Tauman Kalai'
p1358
I1
sS'Nam H. Nguyen'
p1359
I1
sS'Chris Junchi Li'
p1360
I2
sS'Lei Wang'
p1361
I1
sS'Emanuele Ragnoli'
p1362
I1
sS'Armando Solar-Lezama'
p1363
I2
sS'Ivo Danihelka'
p1364
I3
sS'Panagiotis Toulis'
p1365
I1
sS'Xuejun Liao'
p1366
I6
sS'Diane Hu'
p1367
I1
sS'Shou-De Lin'
p1368
I3
sS'Debarun Dhar'
p1369
I1
sS'Armin Pourshafeie'
p1370
I1
sS'Klaus Pawelzik'
p1371
I2
sS'Abbas Abdolmaleki'
p1372
I1
sS'Michael Tangermann'
p1373
I1
sS'Anqi Wu'
p1374
I3
sS'Sanjoy Dasgupta'
p1375
I10
sS'Kirthevasan Kandasamy'
p1376
I4
sS'Abdel-rahman Mohamed'
p1377
I1
sS'Jonathan Terhorst'
p1378
I1
sS'Hsiang-Fu Yu'
p1379
I4
sS'Jian Xu 0002'
p1380
I1
sS'Zhe Li'
p1381
I1
sS'Chao Wang'
p1382
I1
sS'Lawrence K. Saul'
p1383
I4
sS'Simon Wiesler'
p1384
I1
sS'Sanmay Das'
p1385
I2
sS'David I. Inouye'
p1386
I2
sS'Happy Mittal'
p1387
I2
sS'Manish Raghavan'
p1388
I1
sS'Jerry Li 0001'
p1389
I2
sS'Danica Kragic'
p1390
I1
sS'Yandong Liu'
p1391
I1
sS'William H. Montgomery'
p1392
I1
sS'Stanislav Minsker'
p1393
I1
sS'Xilin Chen'
p1394
I1
sS'Majid Janzamin'
p1395
I1
sS'Wen Lu'
p1396
I1
sS'Wieland Brendel'
p1397
I2
sS'Martin Royer'
p1398
I1
sS'Asier Mujika'
p1399
I1
sS'Jiri Matas'
p1400
I1
sS'Wataru Kumagai'
p1401
I2
sS'Elaine Angelino'
p1402
I1
sS'Yong Zhang'
p1403
I1
sS'Zhou Lu'
p1404
I1
sS'Christoph Studer'
p1405
I1
sS'Tom Brown'
p1406
I1
sS'Gianfranco Doretto'
p1407
I1
sS'Qi Li'
p1408
I1
sS'Bolei Zhou'
p1409
I1
sS'Seth Neel'
p1410
I1
sS'Justin Dauwels'
p1411
I1
sS'Angelika Kimmig'
p1412
I1
sS'Matteo Carandini'
p1413
I1
sS'Jian Zhang'
p1414
I2
sS'Yue Wang'
p1415
I2
sS'Jingren Zhou'
p1416
I1
sS'Davood Hajinezhad'
p1417
I1
sS'Piotr Koniusz'
p1418
I1
sS'Xi Chen'
p1419
I15
sS'Toby Sharp'
p1420
I1
sS'Marin Kobilarov'
p1421
I1
sS'Yuhong Guo'
p1422
I6
sS'Benjamin Moseley'
p1423
I2
sS'Siamak Ravanbakhsh'
p1424
I4
sS'Jun Liu 0003'
p1425
I6
sS'Eshcar Hillel'
p1426
I1
sS'Christina Heinze'
p1427
I1
sS'Wolfgang Maass 0001'
p1428
I7
sS'Ying Liu 0009'
p1429
I1
sS'Thibaut Horel'
p1430
I1
sS'Qixia Jiang'
p1431
I1
sS'Mateo Rojas-Carulla'
p1432
I1
sS'Francesca Petralia'
p1433
I2
sS'M. Clara De Paolis Kaluza'
p1434
I1
sS'Raghu Meka'
p1435
I2
sS'Junya Honda'
p1436
I2
sS'Yiling Chen'
p1437
I2
sS'Jiaya Jia'
p1438
I2
sS'Gr\xc3\xa9gory Rogez'
p1439
I1
sS'Mehrtash Harandi'
p1440
I1
sS'Viet Cuong Nguyen'
p1441
I1
sS'Shipra Agrawal'
p1442
I2
sS'Alvaro A. C\xc3\xa1rdenas'
p1443
I1
sS'Rebecca E. Morrison'
p1444
I1
sS'Chandrajit Bajaj'
p1445
I1
sS'James Sharpnack'
p1446
I4
sS'Ranulfo Romo'
p1447
I2
sS'Misha Pavel'
p1448
I1
sS'Joon Hee Choi'
p1449
I1
sS'Aditya Khosla'
p1450
I2
sS'Jennifer Wortman'
p1451
I2
sS'Carsten Rother'
p1452
I4
sS'Sepideh Pourazarm'
p1453
I1
sS'Catherine Martelli'
p1454
I1
sS'Anca D. Dragan'
p1455
I2
sS'Martin P. Paulus'
p1456
I1
sS'Adam Scibior'
p1457
I1
sS'Anna Stockl'
p1458
I1
sS'Mahdi Soltanolkotabi'
p1459
I2
sS'Joseph T. Francis'
p1460
I1
sS'Elke Kirschbaum'
p1461
I1
sS'Daniel N. Holtmann-Rice'
p1462
I2
sS'Karl Bringmann'
p1463
I1
sS'Paolo Frasconi'
p1464
I1
sS'Nicol\xc3\xb2 Cesa-Bianchi'
p1465
I11
sS'James Cheng'
p1466
I2
sS'Jianhui Chen'
p1467
I2
sS'Adhiraj Somani'
p1468
I1
sS'Jes\xc3\xbas Cid-Sueiro'
p1469
I1
sS'Mohamad Dia'
p1470
I1
sS'Gregory R. Ganger'
p1471
I1
sS'Oana Ursu'
p1472
I1
sS'Tobias Glasmachers'
p1473
I1
sS'Mikl\xc3\xb3s Z. R\xc3\xa1cz'
p1474
I1
sS'Devavrat Shah'
p1475
I16
sS'Qi Lou'
p1476
I1
sS'Silvio Savarese'
p1477
I2
sS'Vikas Singh'
p1478
I8
sS'Wee Sun Lee'
p1479
I9
sS'Vineet Goyal'
p1480
I2
sS'Prem Gopalan'
p1481
I4
sS'Maria Pavlovskaia'
p1482
I1
sS'Miguel L\xc3\xa1zaro-Gredilla'
p1483
I5
sS'Paolo Del Giudice'
p1484
I1
sS'Pierre-Louis Giscard'
p1485
I1
sS'Morteza Zadimoghaddam'
p1486
I2
sS'Branislav Bosansk\xc3\xbd'
p1487
I1
sS'Haotian Pang'
p1488
I1
sS'Huazhong Ning'
p1489
I1
sS'Andrzej Truski'
p1490
I1
sS'Zakria Hussain'
p1491
I1
sS'Aristides Gionis'
p1492
I1
sS'Jamie Shotton'
p1493
I1
sS'Shuheng Zhou'
p1494
I3
sS'Shreya Saxena'
p1495
I1
sS'Yuan Jiang'
p1496
I1
sS'David J. Weiss'
p1497
I2
sS'Vijay Mahadevan'
p1498
I3
sS'Alon Orlitsky'
p1499
I6
sS'Ferran Diego'
p1500
I2
sS'Alexandra Meliou'
p1501
I1
sS'Cyril Zhang'
p1502
I1
sS'Asok Ray'
p1503
I1
sS'Yann Dauphin'
p1504
I3
sS'Carlos Blanco 0002'
p1505
I1
sS'Matthias Feurer'
p1506
I1
sS'Ali Tofigh'
p1507
I1
sS'Michael Pacer'
p1508
I1
sS'Balaraman Ravindran'
p1509
I1
sS'Cyrus Rashtchian'
p1510
I1
sS'Xingwei Yang'
p1511
I1
sS'Chao Zhang'
p1512
I1
sS'Shigeyuki Oba'
p1513
I1
sS'Kaushik Sinha'
p1514
I3
sS'Thibault Lesieur'
p1515
I1
sS'Chuan-Yung Tsai'
p1516
I1
sS'Edwin V. Bonilla'
p1517
I6
sS'Hemant Tyagi'
p1518
I2
sS'Varun Kanade'
p1519
I6
sS'Ling Huang'
p1520
I3
sS'Di He'
p1521
I2
sS'Shuang-Hong Yang'
p1522
I1
sS'John T. Halloran'
p1523
I1
sS'Andriy Mnih'
p1524
I7
sS'Bal\xc3\xa1zs Ujfalussy'
p1525
I1
sS'Adrian Weller'
p1526
I4
sS'Benjamin Shababo'
p1527
I1
sS'Nan Li'
p1528
I2
sS'Shreyas Saxena'
p1529
I1
sS'Rodney J. Douglas'
p1530
I1
sS'Jimeng Sun'
p1531
I2
sS'Daniel M. Wolpert'
p1532
I1
sS'Alexander Zien'
p1533
I1
sS'Chen Luo'
p1534
I1
sS'Uri Hasson'
p1535
I2
sS'Jie Zhou'
p1536
I1
sS'Yitong Li'
p1537
I1
sS'Jianke Zhu'
p1538
I3
sS'Chen-Ping Yu'
p1539
I1
sS'Giuseppe Pica'
p1540
I1
sS'Alessandro Antonucci'
p1541
I1
sS'Kun Dong'
p1542
I1
sS'Kevyn Collins-Thompson'
p1543
I1
sS'Rik Sarkar'
p1544
I1
sS'Taesup Moon'
p1545
I1
sS'Yi Li'
p1546
I1
sS'Amin Jalali 0002'
p1547
I1
sS'Aude Billard'
p1548
I1
sS'Nikhil R. Devanur'
p1549
I1
sS'Oluwasanmi Koyejo'
p1550
I7
sS'Edward Grefenstette'
p1551
I2
sS'Sotetsu Iwamura'
p1552
I1
sS'Jinhui Xu 0001'
p1553
I2
sS'Minwei Ye'
p1554
I1
sS'Volkmar Welker'
p1555
I1
sS'Julia P. Owen'
p1556
I1
sS'Pramod Viswanath'
p1557
I6
sS'Ali Borji'
p1558
I1
sS'Ulrich Bauer'
p1559
I1
sS'Jakub Tarnawski'
p1560
I1
sS'Chen Chen 0003'
p1561
I1
sS'M\xc3\xa1ty\xc3\xa1s A. Sustik'
p1562
I3
sS'Manfred Opper'
p1563
I12
sS'Mikio L. Braun'
p1564
I1
sS'Mehran Javanmardi'
p1565
I1
sS'Bruno Scherrer'
p1566
I4
sS'Daniel Soudry'
p1567
I4
sS'Daniel Yamins'
p1568
I1
sS'Timothy F. Cootes'
p1569
I1
sS'Alexander Pritzel'
p1570
I2
sS'Weiwei Liu'
p1571
I2
sS'Laura Balzano'
p1572
I1
sS'Meelis Kull'
p1573
I1
sS'Wen-Mei W. Hwu'
p1574
I1
sS'Jin Kyu Kim'
p1575
I2
sS'Sundar Vishwanathan'
p1576
I1
sS'Ameet S. Talwalkar'
p1577
I3
sS'Dan Cornford'
p1578
I1
sS'Robert V. Lindsey'
p1579
I4
sS'Andrew J. Frank'
p1580
I1
sS'Edward Meeds'
p1581
I1
sS'Yash H. Malviya'
p1582
I1
sS'Michael H. Bowling'
p1583
I7
sS'Hanbo Chen'
p1584
I1
sS'Yichao Lu'
p1585
I3
sS'Elisa Ricci'
p1586
I1
sS'Meire Fortunato'
p1587
I1
sS'Tong Che'
p1588
I1
sS'Zhan Shi'
p1589
I1
sS'Gergo Bohner'
p1590
I1
sS'David Bindel'
p1591
I2
sS'Jialei Wang'
p1592
I2
sS'Roi Weiss'
p1593
I1
sS'Pascal Poupart'
p1594
I5
sS'Marleen de Bruijne'
p1595
I1
sS'Vikas C. Raykar'
p1596
I4
sS'Paolo Favaro'
p1597
I1
sS'Wulfram Gerstner'
p1598
I7
sS'Xuemei Xie'
p1599
I1
sS'Neil D. B. Bruce'
p1600
I1
sS'Alex Wang'
p1601
I1
sS'Vikram Krishnamurthy'
p1602
I1
sS'Marco Zaffalon'
p1603
I2
sS'Adel Javanmard'
p1604
I3
sS'George Papandreou'
p1605
I1
sS'Youngmoo Kim'
p1606
I1
sS'Ofer Zeitouni'
p1607
I1
sS'Jonas Peters'
p1608
I3
sS'Nan Ding'
p1609
I7
sS'Gui-Rong Xue'
p1610
I1
sS'Luis Ceze'
p1611
I1
sS'Max Vladymyrov'
p1612
I1
sS'Stanley H. Chan'
p1613
I1
sS'Lars Buesing'
p1614
I10
sS'Pascal Vincent'
p1615
I3
sS'Andrew McHutchon'
p1616
I1
sS'Ting-Wei Lin'
p1617
I1
sS'Arshdeep Sekhon'
p1618
I1
sS'Aur\xc3\xa9lien Garivier'
p1619
I2
sS'Pradeep Varakantham'
p1620
I1
sS'Gongguo Tang'
p1621
I1
sS'Troy Lee'
p1622
I1
sS'Nikolaj Tatti'
p1623
I1
sS'Wing Hung Wong'
p1624
I2
sS'Larry A. Wasserman'
p1625
I12
sS'Mladen Kolar'
p1626
I6
sS'Anastasia A. Bezzubtseva'
p1627
I1
sS'Ole Winther'
p1628
I7
sS'ChengYue Gong'
p1629
I1
sS'Xiao-Jiao Mao'
p1630
I1
sS'Oren Freifeld'
p1631
I1
sS'Niao He'
p1632
I4
sS'Yusuf Aytar'
p1633
I1
sS'Kevin Leyton-Brown'
p1634
I2
sS'Chelsea Finn'
p1635
I1
sS'Samy Bengio'
p1636
I8
sS'Assaf Glazer'
p1637
I3
sS'Skander Mensi'
p1638
I1
sS'Arvind Thiagarajan'
p1639
I1
sS'Ronald Berezney'
p1640
I1
sS'Laurent Charlin'
p1641
I1
sS'Jaakko Luttinen'
p1642
I1
sS'Hong Cheng'
p1643
I2
sS'Wenxiu Sun'
p1644
I1
sS'Gabriel Goh'
p1645
I1
sS'Jeffrey Dean'
p1646
I3
sS'Keerthiram Murugesan'
p1647
I2
sS'Bryant Chen'
p1648
I1
sS'Cheng Soon Ong'
p1649
I2
sS'David Haglin'
p1650
I1
sS'Mark Dredze'
p1651
I3
sS'Raia Hadsell'
p1652
I1
sS'John P. Cunningham'
p1653
I10
sS'Philippe Preux'
p1654
I1
sS'R. Bharat Rao'
p1655
I1
sS'Ramin Raziperchikolaei'
p1656
I2
sS'Abdeslam Boularias'
p1657
I3
sS'Marc Vuffray'
p1658
I1
sS'Hidekazu Oiwa'
p1659
I1
sS'Hadrien Hendrikx'
p1660
I1
sS'Nicole Kr\xc3\xa4mer'
p1661
I1
sS'Hado van Hasselt'
p1662
I2
sS'Adri\xc3\xa0 Puigdom\xc3\xa8nech Badia'
p1663
I1
sS'Guolin Ke'
p1664
I2
sS'Ruichen Qian'
p1665
I1
sS'Salah Rifai'
p1666
I1
sS'Jacob L. Yates'
p1667
I1
sS'Owen Macindoe'
p1668
I1
sS'Takashi Ishida'
p1669
I1
sS'Ilija Ilievski'
p1670
I1
sS'Weiyang Liu'
p1671
I1
sS'Yifan Wang'
p1672
I2
sS'Jia Yuan Yu'
p1673
I1
sS'David F. Gleich'
p1674
I3
sS'Michael Bowling'
p1675
I2
sS'Chi-Jen Lu'
p1676
I2
sS'Sofia Mosci'
p1677
I1
sS'Maia Fraser'
p1678
I1
sS'Shabnam N. Kadir'
p1679
I1
sS'Kisuk Lee'
p1680
I2
sS'Yusuke Watanabe'
p1681
I2
sS'Ozan Irsoy'
p1682
I1
sS'Arthur Flajolet'
p1683
I2
sS'Christoph Feichtenhofer'
p1684
I1
sS'Lise Getoor'
p1685
I2
sS'Jing Qian'
p1686
I1
sS'Jinseok Nam'
p1687
I1
sS'Fritz Sommer'
p1688
I1
sS'Wen-Yu Hua'
p1689
I1
sS'Ashwin Venkataraman'
p1690
I1
sS'Jordi Grau-Moya'
p1691
I1
sS'Tie-Yan Liu'
p1692
I14
sS'Christopher G. Lucas'
p1693
I4
sS'Hans Peter Graf'
p1694
I1
sS'Alex Wiltschko'
p1695
I1
sS'Benigno Uria'
p1696
I1
sS'Tobias Baumgartner 0002'
p1697
I1
sS'Stephen Becker'
p1698
I3
sS'Shaul Druckmann'
p1699
I2
sS'Hyeji Kim'
p1700
I1
sS'Hossein Azari Soufiani'
p1701
I4
sS'Massimiliano Pontil'
p1702
I9
sS'Ohad Shamir'
p1703
I14
sS'Henning Sprekeler'
p1704
I1
sS'Hal Daum\xc3\xa9 III'
p1705
I13
sS'David G. T. Barrett'
p1706
I3
sS'Rajiv Khanna'
p1707
I2
sS'Michael H\xc3\xa4usser'
p1708
I3
sS'Ricardo Baptista'
p1709
I1
sS'Ning Zhang'
p1710
I1
sS'Ryota Kobayashi'
p1711
I1
sS'Jean-Claude Dreher'
p1712
I1
sS'Yan Tong'
p1713
I1
sS'Heinrich Jiang'
p1714
I1
sS'Jean-Pascal Pfister'
p1715
I2
sS'Aditya V. Nori'
p1716
I1
sS'Kaustav Kundu'
p1717
I1
sS'ChengEn Lu'
p1718
I1
sS'Lei Zhang 0006'
p1719
I1
sS'Shalini De Mello'
p1720
I1
sS'Wei Ji'
p1721
I1
sS'Kevin Scaman'
p1722
I2
sS'Matthew Brand'
p1723
I1
sS'Avi Pfeffer'
p1724
I1
sS'Byunghan Lee'
p1725
I1
sS'Jiechao Xiong'
p1726
I1
sS'Trac D. Tran'
p1727
I1
sS'Wengong Jin'
p1728
I1
sS'Lukas Kroc'
p1729
I1
sS'Ivor W. Tsang'
p1730
I2
sS'Haim Cohen'
p1731
I1
sS'Greg Mori'
p1732
I7
sS'Aditya G. Parameswaran'
p1733
I1
sS'Michael U. Gutmann'
p1734
I1
sS'Shixiang Gu'
p1735
I3
sS'David Newman'
p1736
I2
sS'Ehsan Elhamifar'
p1737
I4
sS'Alexander L. Strehl'
p1738
I3
sS'Francisco J. R. Ruiz'
p1739
I6
sS'Tom Gunter'
p1740
I1
sS'Jagarlapudi Saketha Nath'
p1741
I1
sS'Chunming Qiao'
p1742
I1
sS'Tapani Raiko'
p1743
I4
sS'James Cipar'
p1744
I1
sS'Roger B. Grosse'
p1745
I5
sS'Laurens van der Maaten'
p1746
I2
sS'Seunghoon Hong'
p1747
I1
sS'Shahin Shahrampour'
p1748
I2
sS'Kai Yu'
p1749
I1
sS'Jan Leike'
p1750
I1
sS'Elvis Dohmatob'
p1751
I1
sS'Kyle Miller'
p1752
I1
sS'Danilo P. Mandic'
p1753
I1
sS'Feng Niu'
p1754
I1
sS'Mona Eberts'
p1755
I1
sS'Uygar S\xc3\xbcmb\xc3\xbcl'
p1756
I1
sS'Peter A. Flach'
p1757
I1
sS'Yu-Ming Chang'
p1758
I1
sS'David Eriksson'
p1759
I1
sS'Pierre Dangauthier'
p1760
I1
sS'Zhaowen Wang'
p1761
I1
sS'Michael J. Kearns'
p1762
I3
sS'Ola Svensson'
p1763
I1
sS'Jiwen Lu'
p1764
I1
sS'Marc Howard'
p1765
I1
sS'Shilin Ding'
p1766
I1
sS'Shih-Chii Liu'
p1767
I1
sS'Pedro Mercado'
p1768
I1
sS'Kostas Tsioutsiouliklis'
p1769
I1
sS'Stefan Huber 0001'
p1770
I1
sS'Wenzhao Lian'
p1771
I1
sS'Kewei Tu'
p1772
I1
sS'Paul Wagner'
p1773
I2
sS'Lukasz Kopec'
p1774
I1
sS'Daniel J. Hsu'
p1775
I18
sS'Matthias Poloczek'
p1776
I2
sS'Mario Fritz'
p1777
I4
sS'Hao He'
p1778
I1
sS'Carmen Sandi'
p1779
I1
sS'Sriram Srinivasan'
p1780
I1
sS'Ryan P. Adams'
p1781
I13
sS'Dmitry Pavlov'
p1782
I1
sS'Thomas Hofmann'
p1783
I4
sS'Adams Wei Yu'
p1784
I1
sS'Fabian Pedregosa'
p1785
I1
sS'Arnd Christian K\xc3\xb6nig'
p1786
I2
sS'Varun Gupta'
p1787
I1
sS'Aarti Singh'
p1788
I14
sS'Liliang Zhang'
p1789
I1
sS'Amir Najmi'
p1790
I1
sS'Zhenghao Wang'
p1791
I1
sS'Feng Cheng'
p1792
I1
sS'Kristina Toutanova'
p1793
I1
sS'Mehmet G\xc3\xb6nen'
p1794
I1
sS'Charles A. Sutton'
p1795
I6
sS'Kensuke Sekihara'
p1796
I1
sS'Yihua Chen'
p1797
I1
sS'Jean Barbier'
p1798
I1
sS'JunYoung Gwak'
p1799
I1
sS'Salil P. Vadhan'
p1800
I1
sS'Nisarg Shah 0001'
p1801
I2
sS'Minhyung Cho'
p1802
I2
sS'L\xc3\xa9on Bottou'
p1803
I1
sS'Long Jin'
p1804
I1
sS'Zhenan Sun'
p1805
I1
sS'Silvia Villa'
p1806
I2
sS'Walter Senn'
p1807
I1
sS'Olana Missura'
p1808
I2
sS'Predrag V. Klasnja'
p1809
I1
sS'Tao Lei'
p1810
I1
sS'Jiarong Jiang'
p1811
I2
sS'Qi Rose Yu'
p1812
I1
sS'Soheil Behnezhad'
p1813
I1
sS'Nicolas Macris'
p1814
I1
sS'Tom Liu'
p1815
I1
sS'Tsuyoshi Ueno'
p1816
I1
sS'Makoto Yamada'
p1817
I2
sS'Ayan Sinha'
p1818
I1
sS'Matthias W. Seeger'
p1819
I5
sS'Rajarshi Das'
p1820
I1
sS'Qiang Wu'
p1821
I1
sS'Zhujin Liang'
p1822
I1
sS'Johannes F\xc3\xbcrnkranz'
p1823
I1
sS'Yuandong Tian'
p1824
I1
sS'Xiangyu Wang'
p1825
I5
sS'Bo Li 0026'
p1826
I2
sS'Xiaoyin Ge'
p1827
I1
sS'Merlise Clyde'
p1828
I1
sS'Vivek K. Goyal'
p1829
I2
sS'Danfeng Qin'
p1830
I1
sS'Alex Kantchelian'
p1831
I1
sS'R\xc3\xa9my Degenne'
p1832
I1
sS'Salomon Diether'
p1833
I1
sS'Dawei Yang'
p1834
I1
sS'Carlo Ciliberto'
p1835
I2
sS'Kristof Sch\xc3\xbctt'
p1836
I2
sS'Mar\xc3\xada Vanrell 0001'
p1837
I1
sS'R\xc3\xa9mi Munos'
p1838
I30
sS'H\xc3\xa9l\xc3\xa8ne Paugam-Moisy'
p1839
I1
sS'Andreas Bartels'
p1840
I1
sS'Balaji Vasan Srinivasan'
p1841
I1
sS'Junchi Yan'
p1842
I1
sS'David Gamarnik'
p1843
I2
sS'Soroosh Shafieezadeh-Abadeh'
p1844
I1
sS'Zeeshan Syed'
p1845
I1
sS'Mitra J. Z. Hartmann'
p1846
I1
sS'Jon M. Kleinberg'
p1847
I2
sS'Elad Hoffer'
p1848
I1
sS'Joseph Harrison'
p1849
I1
sS'Alan S. Willsky'
p1850
I9
sS'Zheng Zhang'
p1851
I1
sS'Petr L\xc3\xa1nsk\xc3\xbd'
p1852
I1
sS'Ingo Steinwart'
p1853
I5
sS'Jakob J. Verbeek'
p1854
I1
sS'De Wen Soh'
p1855
I1
sS'Finnian Lattimore'
p1856
I1
sS'Jeany Son'
p1857
I1
sS'Milind Ganjoo'
p1858
I1
sS'Qinshi Wang'
p1859
I1
sS'Karthik Sridharan'
p1860
I13
sS'Farzan Farnia'
p1861
I2
sS'Haim Avron'
p1862
I2
sS'Nicol\xc3\xb2 Colombo'
p1863
I2
sS'MohammadTaghi Hajiaghayi'
p1864
I1
sS'Dirk Husmeier'
p1865
I2
sS'Geoffrey J. Gordon'
p1866
I6
sS'Artur Speiser'
p1867
I1
sS'Pavel Dvurechensky'
p1868
I1
sS'E. James Kehoe'
p1869
I1
sS'Reza Eghbali'
p1870
I1
sS'Anbang Yao'
p1871
I1
sS'Janice Chen'
p1872
I1
sS'Yuzong Liu'
p1873
I1
sS'Or Sheffet'
p1874
I1
sS'Jonathan Z. Simon'
p1875
I1
sS'Christopher Bongsoo Choy'
p1876
I1
sS'Seunghyun Park'
p1877
I1
sS'Rob Fergus'
p1878
I10
sS'Dinghan Shen'
p1879
I1
sS'Anton Mallasto'
p1880
I1
sS'Shiyu Chang'
p1881
I1
sS'Richard C. Wilson'
p1882
I1
sS'Corinna Cortes'
p1883
I7
sS'Michael Lindenbaum'
p1884
I3
sS'Zhengyou Zhang'
p1885
I1
sS'Yi Wu 0013'
p1886
I1
sS'Taifeng Wang'
p1887
I2
sS'Changbo Zhu'
p1888
I1
sS'Aryeh Kontorovitch'
p1889
I1
sS'Toan Tran'
p1890
I1
sS'Jean-Bastien Grill'
p1891
I2
sS'Andreas Uhl'
p1892
I1
sS'Danilo Bzdok'
p1893
I2
sS'Liangpeng Zhang'
p1894
I1
sS'Minija Tamosiunaite'
p1895
I1
sS'Chunyuan Li'
p1896
I7
sS'Prashant Doshi'
p1897
I1
sS'Keke Chen'
p1898
I1
sS'\xc3\x87aglar G\xc3\xbcl\xc3\xa7ehre'
p1899
I2
sS'Vickie Baracos'
p1900
I1
sS'David J. Schwab'
p1901
I1
sS'MohammadHossein Bateni'
p1902
I2
sS'Pierre J. Magistretti'
p1903
I1
sS'Dan Alistarh'
p1904
I2
sS'Stephen Pasteris'
p1905
I3
sS'Silvio Lattanzi'
p1906
I4
sS'Lukasz Kaiser'
p1907
I3
sS'Samuel Livingstone'
p1908
I1
sS'Tue Herlau'
p1909
I1
sS'Michael Riis Andersen'
p1910
I1
sS'Chun-Liang Li'
p1911
I1
sS'Robert A. Jacobs'
p1912
I1
sS'Motonobu Kanagawa'
p1913
I1
sS'Tuomas Sandholm'
p1914
I4
sS'Theo Pavlakou'
p1915
I1
sS'Ian A. Kash'
p1916
I1
sS'Weihao Kong'
p1917
I2
sS'Mohammad Ghavamzadeh'
p1918
I12
sS'Risi Kondor'
p1919
I5
sS'Can Xu'
p1920
I1
sS'Yoonho Hwang'
p1921
I1
sS'Romain Deguest'
p1922
I2
sS'Abhisek Kundu'
p1923
I1
sS'Yunchao Gong'
p1924
I1
sS'Matt Jones'
p1925
I3
sS'Theophane Weber'
p1926
I4
sS'Zhengjia Huang'
p1927
I1
sS'Terry Koo'
p1928
I1
sS'Nikhil Parthasarathy'
p1929
I1
sS'Jin Yu 0001'
p1930
I1
sS'Zhihuan Qiu'
p1931
I1
sS'Hristo S. Paskov'
p1932
I1
sS'Guy Shani'
p1933
I1
sS'Hongyang Zhang'
p1934
I3
sS'John Shawe-Taylor'
p1935
I4
sS'Ruoyu Sun'
p1936
I1
sS'HongJiang Zhang'
p1937
I1
sS'Jos\xc3\xa9 Miguel Hern\xc3\xa1ndez-Lobato'
p1938
I9
sS'Yuhao Wang'
p1939
I1
sS'Aritra Guha'
p1940
I1
sS'Qiyang Han'
p1941
I1
sS'Jianmin Wang'
p1942
I2
sS'Gilles Stoltz'
p1943
I2
sS'Jifeng Dai'
p1944
I1
sS'Wei Wen'
p1945
I2
sS'Sarah M. N. Woolley'
p1946
I1
sS'Yizhong Ru'
p1947
I1
sS'Yuening Hu'
p1948
I1
sS'Jiayu Zhou'
p1949
I3
sS'Yi Wu'
p1950
I2
sS'Maria Lomeli'
p1951
I1
sS'Yuanjun Xiong'
p1952
I1
sS'Bilegsaikhan Naidan'
p1953
I1
sS'Yu Sun'
p1954
I1
sS'Yanmei Tie'
p1955
I1
sS'Phillip A. Jang'
p1956
I1
sS'Xiuyuan Cheng'
p1957
I1
sS'Jeff Wickens'
p1958
I1
sS'Stanislav Nikolov'
p1959
I1
sS'Lie Wang'
p1960
I1
sS'David K. Duvenaud'
p1961
I7
sS'David M. Schneider'
p1962
I1
sS'Mehrdad Farajtabar'
p1963
I4
sS'Aryan Mokhtari'
p1964
I2
sS'Manas A. Pathak'
p1965
I1
sS'Debarghya Ghoshdastidar'
p1966
I1
sS'Onur Dikmen'
p1967
I2
sS'Takayuki Osogami'
p1968
I3
sS'Mrinal Kalakrishnan'
p1969
I1
sS'Yoichi Miyawaki'
p1970
I1
sS'Krzysztof Onak'
p1971
I1
sS'Matteo Turchetta'
p1972
I2
sS'Rahul Jain 0002'
p1973
I1
sS'Linda G. Shapiro'
p1974
I1
sS'Hoong Chuin Lau'
p1975
I1
sS'Imed Zitouni'
p1976
I1
sS'Khashayar Rohanimanesh'
p1977
I1
sS'Marcus Rohrbach'
p1978
I1
sS'Ofer Meshi'
p1979
I5
sS'Duan Tran'
p1980
I1
sS'Li-Jia Li'
p1981
I2
sS'Hongyu Su'
p1982
I1
sS'Richard G. Gibson'
p1983
I2
sS'Ersin Yumer'
p1984
I2
sS'Wolfgang Einh\xc3\xa4user'
p1985
I1
sS'Angelo Arleo'
p1986
I1
sS'Tal Ben Yakar'
p1987
I1
sS'Aaditya Ramdas'
p1988
I3
sS'William B. March'
p1989
I1
sS'D. Sculley'
p1990
I1
sS'Adam A. Margolin'
p1991
I1
sS'Tian Gao'
p1992
I1
sS'Wenye Li'
p1993
I1
sS'Gunwoong Park'
p1994
I1
sS'Yu-Bin Yang'
p1995
I1
sS'Eli Upfal'
p1996
I1
sS'Georgios Tziritas'
p1997
I1
sS'Robert E. Schapire'
p1998
I9
sS'Kihyuk Sohn'
p1999
I3
sS'Kostas Daniilidis'
p2000
I1
sS'C\xc3\xa9dric Archambeau'
p2001
I3
sS'Asish Ghoshal'
p2002
I1
sS'Angela Eigenstetter'
p2003
I1
sS'Mark Palatucci'
p2004
I1
sS'Ioana Dumitriu'
p2005
I1
sS'Timothy N. Rubin'
p2006
I1
sS'Mikhail Figurnov'
p2007
I1
sS'XuanLong Nguyen'
p2008
I5
sS'Michael Lamar'
p2009
I1
sS'Yoshinobu Kawahara'
p2010
I6
sS'Jacob R. Gardner'
p2011
I1
sS'Himanshu Jain'
p2012
I1
sS'Seyoung Park'
p2013
I1
sS'Vibhav Vineet'
p2014
I1
sS'Suhas N. Diggavi'
p2015
I2
sS'Thomas Bonald'
p2016
I2
sS'Adam Coates'
p2017
I2
sS'Karen Ullrich'
p2018
I1
sS'Adji Bousso Dieng'
p2019
I1
sS'Tom Stepleton'
p2020
I1
sS'Feng Shi'
p2021
I1
sS'Mohammad Norouzi'
p2022
I3
sS'Sharad Goel'
p2023
I1
sS'Ferran Diego Andilla'
p2024
I2
sS'Hoi Chan'
p2025
I1
sS'Pedro H. O. Pinheiro'
p2026
I1
sS'Matthew J. Hausknecht'
p2027
I1
sS'Sascha Swiercy'
p2028
I1
sS'Amir Globerson'
p2029
I8
sS'Karthik Ramani'
p2030
I1
sS'Zongben Xu'
p2031
I1
sS'Javier Turek'
p2032
I1
sS'Marcello Pelillo'
p2033
I2
sS'Behzad Golshan'
p2034
I1
sS'Senthil Purushwalkam'
p2035
I1
sS'Tomoya Murata'
p2036
I1
sS'Jinhui Xu'
p2037
I1
sS'Hongbo Zhou'
p2038
I1
sS'Kuang-chih Lee'
p2039
I1
sS'Anastasia Podosinnikova'
p2040
I1
sS'Jonathan Sorg'
p2041
I1
sS'Matthew Titsworth'
p2042
I1
sS'Georg Ostrovski'
p2043
I1
sS'Yun Fu'
p2044
I1
sS'Luiz F. O. Chamon'
p2045
I1
sS'Guy Bresler'
p2046
I3
sS'Benjamin Recht'
p2047
I7
sS'Gautam Dasarathy'
p2048
I2
sS'Daniele Calandriello'
p2049
I2
sS'Takafumi Kanamori'
p2050
I4
sS'Michael Gashler'
p2051
I1
sS'Tianqi Zhao'
p2052
I1
sS'Daniel J. Mankowitz'
p2053
I2
sS'Kilian Q. Weinberger'
p2054
I9
sS'Hanan Samet'
p2055
I1
sS'Ashwinkumar Badanidiyuru'
p2056
I1
sS'Peder A. Olsen'
p2057
I2
sS'Guy Van den Broeck'
p2058
I4
sS'Shaobo Han'
p2059
I3
sS'Aaron Hertzmann'
p2060
I1
sS'Xu Chen'
p2061
I1
sS'Jean Lafond'
p2062
I1
sS'Julie Dethier'
p2063
I1
sS'Anna Volokitin'
p2064
I1
sS'Fabio Vitale'
p2065
I4
sS'Jonathan Vacher'
p2066
I1
sS'Xiuyuan Lu'
p2067
I1
sS'Mark Craven'
p2068
I1
sS'John Tran'
p2069
I1
sS'Luca Benini'
p2070
I1
sS'Jonathon Byrd'
p2071
I1
sS'Jaakko Peltonen'
p2072
I1
sS'Abbas Bazzi'
p2073
I1
sS'Murat A. Erdogdu'
p2074
I6
sS'Fei Xia'
p2075
I1
sS'S\xc3\xa9bastien Racani\xc3\xa8re'
p2076
I1
sS'Patrick J. Wolfe'
p2077
I2
sS'Pasi Jyl\xc3\xa4nki'
p2078
I1
sS'Ciamac Cyrus Moallemi'
p2079
I1
sS'Seonwoo Min'
p2080
I2
sS'Daniel Nikovski'
p2081
I1
sS'Sylvain Arlot'
p2082
I2
sS'Alnur Ali'
p2083
I1
sS'Renato Negrinho'
p2084
I1
sS'Noam Shazeer'
p2085
I2
sS'Nicole Immorlica'
p2086
I1
sS'Satinder Singh'
p2087
I1
sS'Miguel \xc3\x81. Carreira-Perpi\xc3\xb1\xc3\xa1n'
p2088
I5
sS'Yue Wu'
p2089
I1
sS'Rein Houthooft'
p2090
I3
sS'Rina Panigrahy'
p2091
I1
sS'Zhan Wei Lim'
p2092
I2
sS'Nir Levine'
p2093
I2
sS'Philipp Kr\xc3\xa4henb\xc3\xbchl'
p2094
I1
sS'Kacper P. Chwialkowski'
p2095
I1
sS'Maziar Sanjabi'
p2096
I1
sS'Dongryeol Lee'
p2097
I4
sS'Pamela Abshire'
p2098
I1
sS'John Blitzer'
p2099
I3
sS'Andrew Hickl'
p2100
I1
sS'Christopher Berlind'
p2101
I1
sS'Weihua Hu'
p2102
I1
sS'Rachel Ward'
p2103
I1
sS'Tele Hotloo Hao'
p2104
I1
sS'Tim Lillicrap'
p2105
I4
sS'Nir Rosenfeld'
p2106
I1
sS'Goran Radanovic'
p2107
I1
sS'John Lim'
p2108
I1
sS'Daniele Durante'
p2109
I1
sS'Daniel J. Cameron'
p2110
I1
sS'Teodor Vanislavov Marinov'
p2111
I1
sS'John M. Winn'
p2112
I4
sS'S\xc3\xa9bastien Bubeck'
p2113
I5
sS'Mauro Scanagatta'
p2114
I2
sS'Florian Stimberg'
p2115
I2
sS'Yu-Hong Dai'
p2116
I1
sS'Brenden M. Lake'
p2117
I3
sS'Praneeth Netrapalli'
p2118
I4
sS'Rocco A. Servedio'
p2119
I6
sS'Chris J. Maddison'
p2120
I4
sS'Kristan Staudenmayer'
p2121
I1
sS'Shirley Ho'
p2122
I1
sS'David Eigen'
p2123
I1
sS'Qingshan Liu'
p2124
I2
sS'Hanghang Tong'
p2125
I1
sS'Binbin Lin'
p2126
I2
sS'Kaushik Patnaik'
p2127
I1
sS'Kentaro Katahira'
p2128
I2
sS'Payam Delgosha'
p2129
I1
sS'Firas Abuzaid'
p2130
I1
sS'Ha Hong'
p2131
I1
sS'Benjamin Packer'
p2132
I2
sS'Ming Yu'
p2133
I1
sS'Jacob Andreas'
p2134
I2
sS'Johan Pensar'
p2135
I1
sS'Alexander S. Ecker'
p2136
I3
sS'Juergen Gall'
p2137
I1
sS'Asrar Ahmed'
p2138
I1
sS'Han Liu'
p2139
I30
sS'Matthieu Cord'
p2140
I1
sS'Mark Herbster'
p2141
I5
sS'Nuri Denizcan Vanli'
p2142
I1
sS'Jon D. McAuliffe'
p2143
I2
sS'Abhratanu Dutta'
p2144
I1
sS'Varsha Dani'
p2145
I1
sS'Weidong Ma'
p2146
I1
sS'Mohammad Taha Bahadori'
p2147
I2
sS'Stanley Durrleman'
p2148
I1
sS'Krysta Marie Svore'
p2149
I1
sS'Alexey Dosovitskiy'
p2150
I4
sS'Qunwei Li'
p2151
I1
sS'Joshua L. Moore'
p2152
I1
sS'Oswin Krause'
p2153
I1
sS'Li Zhang 0001'
p2154
I1
sS'Hanjun Dai'
p2155
I2
sS'Andre Wibisono'
p2156
I4
sS'Julia Kreutzer'
p2157
I1
sS'Bob McGrew'
p2158
I1
sS'Baoyuan Wang'
p2159
I1
sS'Andrei-Cristian Barbos'
p2160
I1
sS'Tao Sun'
p2161
I1
sS'Du Tran'
p2162
I1
sS'Tom Griffiths'
p2163
I1
sS'Henry A. Kautz'
p2164
I2
sS'Jingrui He'
p2165
I2
sS'Wu-Jun Li'
p2166
I3
sS'Nicholas Cepeda'
p2167
I1
sS'Tai Qin'
p2168
I1
sS'Daniel J. Navarro'
p2169
I2
sS'Manuele Bicego'
p2170
I1
sS'Horace Pan'
p2171
I1
sS'Blake E. Woodworth'
p2172
I2
sS'Yuting Zhang'
p2173
I1
sS'Arjun K. Bansal'
p2174
I1
sS'Aharon Birnbaum'
p2175
I1
sS'Kun Zhang 0001'
p2176
I2
sS'Guang-Tong Zhou'
p2177
I1
sS'Qiujia Li'
p2178
I1
sS'Wonmin Byeon'
p2179
I1
sS'Hu Ding'
p2180
I1
sS'Yury Makarychev'
p2181
I1
sS'Nitish Korula'
p2182
I1
sS'Liefeng Bo'
p2183
I6
sS'Hayato Kobayashi'
p2184
I1
sS'J\xc3\xa9r\xc3\xa9mie Mary'
p2185
I2
sS'Suha Kwak'
p2186
I1
sS'Xinwang Liu'
p2187
I1
sS'David Kim'
p2188
I1
sS'Zhenyao Zhu'
p2189
I1
sS'Magnus Rattray'
p2190
I3
sS'Paul Kidwell'
p2191
I1
sS'Nakul Verma'
p2192
I2
sS'Norm Aleks'
p2193
I1
sS'Atsushi Shibagaki'
p2194
I1
sS'Iasonas Kokkinos'
p2195
I1
sS'Tara Javidi'
p2196
I1
sS'Matey Neykov'
p2197
I1
sS'Erik M. Lindgren'
p2198
I1
sS'Fabio Tozeto Ramos'
p2199
I2
sS'Yossi Adi'
p2200
I1
sS'Kaiming Li'
p2201
I1
sS'Saeid Motiian'
p2202
I1
sS'Kate Saenko'
p2203
I4
sS'Anqi Liu'
p2204
I2
sS'Arthur Guez'
p2205
I4
sS'Babak Hassibi'
p2206
I5
sS'Daoqiang Zhang'
p2207
I1
sS'Andrew Zisserman'
p2208
I10
sS'Takao Miura'
p2209
I1
sS'Padhraic Smyth'
p2210
I5
sS'Sameer Sheorey'
p2211
I1
sS'Martin Jaggi'
p2212
I5
sS'Paul Lamere'
p2213
I1
sS'Gilad Lerman'
p2214
I1
sS'Yik-Cheung Tam'
p2215
I1
sS'Rapha\xc3\xabl Bailly'
p2216
I1
sS'Damek Davis'
p2217
I1
sS'Elias Bareinboim'
p2218
I4
sS'Zachary Freudenburg'
p2219
I1
sS'Romain Brette'
p2220
I1
sS'Halid Ziya Yerebakan'
p2221
I1
sS'Beresford N. Parlett'
p2222
I1
sS'Daniel Golovin'
p2223
I4
sS'Christian Wojek'
p2224
I1
sS'Edward Keefer'
p2225
I1
sS'Olga Veksler'
p2226
I1
sS'Ling Yan'
p2227
I1
sS'Tengyao Wang'
p2228
I1
sS'Zhenguo Li'
p2229
I3
sS'Robert E. Kass'
p2230
I2
sS'Yan-Ming Zhang'
p2231
I1
sS'Gautam Kamath'
p2232
I1
sS'Elliot A. Ludvig'
p2233
I1
sS'Sham Kakade'
p2234
I5
sS'Renato Paes Leme'
p2235
I1
sS'Emin Orhan'
p2236
I1
sS'Shuang Song'
p2237
I2
sS'Yusuke Muraoka'
p2238
I1
sS'David Page'
p2239
I3
sS'Yuxin Chen'
p2240
I1
sS'\xc3\x96zg\xc3\xbcr Simsek'
p2241
I3
sS'Been Kim'
p2242
I3
sS'Nishanth Dikkala'
p2243
I1
sS'Jing Gao'
p2244
I1
sS'Bernt Schiele'
p2245
I5
sS'Shulin Yang'
p2246
I2
sS'Botond Cseke'
p2247
I3
sS'Marco Grzegorczyk'
p2248
I1
sS'C. V. Jawahar'
p2249
I1
sS'David J. Kriegman'
p2250
I1
sS'Waleed Ammar'
p2251
I1
sS'Minh Ha Quang'
p2252
I1
sS'Yizhe Zhang'
p2253
I5
sS'Jiaming Song'
p2254
I2
sS'Karren Yang'
p2255
I1
sS'Gholamreza Haffari'
p2256
I1
sS'Cong Fang'
p2257
I1
sS'Michiel Hermans'
p2258
I1
sS'Hesham Mostafa'
p2259
I1
sS'Sekitoshi Kanai'
p2260
I1
sS'Yair Weiss'
p2261
I7
sS'Dan Walker'
p2262
I1
sS'Todd Phillips'
p2263
I1
sS'Kei Wakabayashi'
p2264
I1
sS'Michael J. Freedman'
p2265
I1
sS'Sungroh Yoon'
p2266
I2
sS'Yexiang Xue'
p2267
I1
sS'Rishabh Singh'
p2268
I1
sS'Michal Valko'
p2269
I7
sS'Massimiliano Giulioni'
p2270
I1
sS'Siddartha Y. Ramamohan'
p2271
I1
sS'Dougal Maclaurin'
p2272
I1
sS'Eugene Belilovsky'
p2273
I1
sS'Kevin Ellis'
p2274
I2
sS'Anand Singh'
p2275
I1
sS'Amir Leshem'
p2276
I1
sS'Sebastian Pokutta'
p2277
I2
sS'Xue-Xin Wei'
p2278
I2
sS'Kyuhong Shim'
p2279
I1
sS'Michael Chertkov'
p2280
I5
sS'Sorathan Chaturapruek'
p2281
I1
sS'Joachim Giesen'
p2282
I1
sS'Jinbo Xu'
p2283
I2
sS'Ilaria Giulini'
p2284
I1
sS'Furong Huang'
p2285
I1
sS'Bistra Dilkina'
p2286
I1
sS'Yao Shuai'
p2287
I1
sS'St\xc3\xa9phane Canu'
p2288
I1
sS'Mathew E. Diamond'
p2289
I1
sS'David A. Maltz'
p2290
I1
sS'Feng Nan'
p2291
I2
sS'Bang Zhang'
p2292
I1
sS'Byungkon Kang'
p2293
I1
sS'Katja Hansen'
p2294
I1
sS'Karthik Mohan'
p2295
I1
sS'Krishna P. Gummadi'
p2296
I1
sS'Yichuan Zhang'
p2297
I3
sS'Olivier Grisel'
p2298
I1
sS'David Klindt'
p2299
I1
sS'Aaron Schein'
p2300
I1
sS'Jasper Snoek'
p2301
I4
sS'Shenlong Wang'
p2302
I2
sS'Kevin Jing'
p2303
I1
sS'Ga Wu'
p2304
I1
sS'Luke Maurits'
p2305
I1
sS'Siena Ang'
p2306
I1
sS'Piotr Indyk'
p2307
I4
sS'Alessandro Perina'
p2308
I3
sS'Xiaokang Yang'
p2309
I1
sS'Andrei M. Raigorodskii'
p2310
I1
sS'Zhiting Hu'
p2311
I1
sS'Christian Szegedy'
p2312
I2
sS'Sunita Sarawagi'
p2313
I1
sS'Timothy K. Horiuchi'
p2314
I1
sS'Aurelie C. Lozano'
p2315
I6
sS'Xavier Bresson'
p2316
I5
sS'Sargur N. Srihari'
p2317
I2
sS'Zhihua Zhang'
p2318
I6
sS'Maksims Volkovs'
p2319
I3
sS'Satoru Iwata'
p2320
I1
sS'Ian Porteous'
p2321
I1
sS'Luozheng Li'
p2322
I1
sS'Soumendu Sundar Mukherjee'
p2323
I1
sS'Sarah Filippi'
p2324
I1
sS'Michael N. Shadlen'
p2325
I1
sS'James H. von Brecht'
p2326
I3
sS'Llion Jones'
p2327
I1
sS'Joseph G. Makin'
p2328
I1
sS'Audrunas Gruslys'
p2329
I2
sS'Jianxu Chen'
p2330
I1
sS'Jessica B. Hamrick'
p2331
I1
sS'Michael J. Tarr'
p2332
I1
sS'Terrence C. Stewart'
p2333
I1
sS'Akiko Takeda'
p2334
I3
sS'Donald Goldfarb'
p2335
I1
sS'Satoshi Ikehata'
p2336
I1
sS'Dirk B. Walther'
p2337
I2
sS'Michael Young'
p2338
I1
sS'Samuel Tenka'
p2339
I1
sS'Zhangjie Cao'
p2340
I1
sS'Bala Rajaratnam'
p2341
I2
sS'Peng Lin'
p2342
I1
sS'Yuval Tassa'
p2343
I3
sS'Yonatan Wexler'
p2344
I2
sS'Jo\xc3\xa3o Carreira'
p2345
I1
sS'Pieter Abbeel'
p2346
I16
sS'Duc Thien Nguyen'
p2347
I1
sS'Zhenwen Dai'
p2348
I2
sS'Sang-Woo Lee'
p2349
I2
sS'Zhiyuan Li'
p2350
I2
sS'Tolga Bolukbasi'
p2351
I1
sS'Freeman L. Rawson III'
p2352
I1
sS'Peter Auer'
p2353
I2
sS'Shizhen Xu'
p2354
I1
sS'Yannick Schroecker'
p2355
I1
sS'Oliver Wang'
p2356
I1
sS'Shimon Ullman'
p2357
I1
sS'Abhradeep Thakurta'
p2358
I1
sS'Tuomas Haarnoja'
p2359
I1
sS'Pierre Morizet-Mahoudeaux'
p2360
I1
sS'Gervasio Puertas'
p2361
I1
sS'Jos\xc3\xa9 del R. Mill\xc3\xa1n'
p2362
I1
sS'Wei-Sheng Lai'
p2363
I1
sS'Yonghui Wu'
p2364
I1
sS'Han-Jia Ye'
p2365
I1
sS'Michael P. Holmes'
p2366
I2
sS'Gasper Tkacik'
p2367
I2
sS'Petros Maniatis'
p2368
I1
sS'John D. Lafferty'
p2369
I12
sS'Raffaello Camoriano'
p2370
I1
sS'Yaoliang Yu'
p2371
I11
sS'Justin Lazarow'
p2372
I1
sS'Alain de Cheveign\xc3\xa9'
p2373
I1
sS'Yao Xie 0002'
p2374
I1
sS'Alexandru Niculescu-Mizil'
p2375
I2
sS'Ben Recht'
p2376
I3
sS'Joseph Bockhorst'
p2377
I1
sS'Cynthia Rudin'
p2378
I2
sS'Chenghui Cai'
p2379
I1
sS'Guy Lebanon'
p2380
I2
sS'Xiaocheng Shang'
p2381
I1
sS'Ryohei Fujimaki'
p2382
I5
sS'Aurko Roy'
p2383
I2
sS'Wenyu Liu'
p2384
I2
sS'C. C. Laan'
p2385
I1
sS'Yi-An Ma'
p2386
I1
sS'Ian Osband'
p2387
I4
sS'Tsuhan Chen'
p2388
I2
sS'Mohammad Sadegh Talebi'
p2389
I1
sS'Alexander J. Hartemink'
p2390
I1
sS'Terran Lane'
p2391
I1
sS'Horst Bunke'
p2392
I1
sS'Karol Kurach'
p2393
I1
sS'Ryan Gomes'
p2394
I2
sS'Quynh N. Nguyen'
p2395
I1
sS'Tom Fletcher'
p2396
I1
sS'Jonathan Bassen'
p2397
I1
sS'Ting-Yu Cheng'
p2398
I1
sS'Jonathan Scholz'
p2399
I1
sS'Simon B. Laughlin'
p2400
I1
sS'Weijie Su'
p2401
I1
sS'Samuel Gerber'
p2402
I1
sS'Amir Yehudayoff'
p2403
I2
sS'Hadi Daneshmand'
p2404
I1
sS'Vu C. Dinh'
p2405
I1
sS'Prashant G. Mehta'
p2406
I1
sS'David Wingate'
p2407
I3
sS'Erinc Merdivan'
p2408
I1
sS'Takuma Otsuka'
p2409
I1
sS'Andrew Ziegler'
p2410
I1
sS'Sohan Seth'
p2411
I1
sS'R\xc3\xa9mi Gribonval'
p2412
I1
sS'Gunnar R\xc3\xa4tsch'
p2413
I4
sS'Kui Tang'
p2414
I1
sS'Dehua Cheng'
p2415
I1
sS'Matus Telgarsky'
p2416
I2
sS'Sejong Yoon'
p2417
I1
sS'Vikram Tankasali'
p2418
I1
sS'Zhenliang Zhang'
p2419
I1
sS'Andrej Risteski'
p2420
I4
sS'Chun-Nan Hsu'
p2421
I1
sS'Jack Lanchantin'
p2422
I1
sS'Vignesh Ganapathiraman'
p2423
I1
sS'Edward Boyden'
p2424
I1
sS'Zhongwen Xu'
p2425
I1
sS'Boleslaw K. Szymanski'
p2426
I1
sS'Anne-Marie Dogonowski'
p2427
I1
sS'S. Vishwanathan'
p2428
I1
sS'Toby Hocking'
p2429
I1
sS'Yunzhu Li'
p2430
I1
sS'Taylor W. Killian'
p2431
I1
sS'Adi Botea'
p2432
I1
sS'Bruce E. Hajek'
p2433
I1
sS'Katharina Eggensperger'
p2434
I1
sS'Alexander Shekhovtsov'
p2435
I1
sS'Chao Qin'
p2436
I1
sS'Stephen C. Strother'
p2437
I1
sS'Robert Nowak'
p2438
I1
sS'Ariadna Quattoni'
p2439
I1
sS'Tianlin Shi'
p2440
I1
sS'Rajesh P. Rao'
p2441
I2
sS'Zhourong Chen'
p2442
I1
sS'Carl P. T. Jackson'
p2443
I1
sS'Ethan R. Elenberg'
p2444
I1
sS'Gerhard Neumann'
p2445
I4
sS'Ross Goroshin'
p2446
I1
sS'Yu-Xiong Wang'
p2447
I2
sS'Nico S. Gorbach'
p2448
I2
sS'Chonghai Hu'
p2449
I1
sS'Mehryar Mohri'
p2450
I22
sS'Zohar Shay Karnin'
p2451
I3
sS'Seyed Mehdi Iranmanesh'
p2452
I1
sS'Naoki Abe'
p2453
I1
sS'Olivier Buffet'
p2454
I1
sS'Stephen Giguere'
p2455
I1
sS'Manasi Vartak'
p2456
I1
sS'Namrata Vaswani'
p2457
I1
sS'Rita Chattopadhyay'
p2458
I1
sS'Kaustubh R. Patil'
p2459
I1
sS'Wei Zhang'
p2460
I1
sS'Adnan Darwiche'
p2461
I8
sS'Huanran Lu'
p2462
I1
sS'Sreeram Kannan'
p2463
I2
sS'Yiming Ying'
p2464
I5
sS'Karin Strauss'
p2465
I1
sS'Ming-Hsuan Yang 0001'
p2466
I3
sS'Daniel Sheldon'
p2467
I1
sS'Arun Tejasvi Chaganty'
p2468
I2
sS'Adrien Wohrer'
p2469
I1
sS'Martin Tak\xc3\xa1c'
p2470
I2
sS'Philip Schniter'
p2471
I1
sS'Manuel Watter'
p2472
I1
sS'Hassan Ashtiani'
p2473
I1
sS'Gyemin Lee'
p2474
I1
sS'Michael N. Jones'
p2475
I1
sS'Chris Piech'
p2476
I1
sS'Tamara Fernandez'
p2477
I1
sS'Venkat Chandrasekaran'
p2478
I2
sS'Bo Zhang'
p2479
I7
sS'Julian Yarkony'
p2480
I1
sS'Masaaki Imaizumi'
p2481
I1
sS'Chaoyue Liu'
p2482
I1
sS'Tai Sing Lee'
p2483
I1
sS'Jo\xc3\xa3o V. Messias'
p2484
I2
sS'Bao-Gang Hu'
p2485
I2
sS'David J. Miller 0001'
p2486
I1
sS'Hirakendu Das'
p2487
I1
sS'Jarod Roland'
p2488
I1
sS'Christoph Lippert'
p2489
I2
sS'Yuxin Wu'
p2490
I1
sS'Danilo Jimenez Rezende'
p2491
I8
sS'Edward Challis'
p2492
I1
sS'Mohsen Hejrati'
p2493
I1
sS'Veeranjaneyulu Sadhanala'
p2494
I2
sS'Rie Johnson'
p2495
I2
sS'Thomas Brox'
p2496
I4
sS'Anoop Korattikara Balan'
p2497
I2
sS'Sanjay Chawla'
p2498
I2
sS'Sergey Ioffe'
p2499
I1
sS'David Simcha'
p2500
I1
sS'Takeo Kanade'
p2501
I2
sS'Robert D. Skeel'
p2502
I1
sS'Shariq A. Mobin'
p2503
I1
sS'Kunal Talwar'
p2504
I1
sS'Trevor Campbell'
p2505
I4
sS'Rathinakumar Appuswamy'
p2506
I1
sS'Takeshi Yamada'
p2507
I2
sS'Emily B. Fox'
p2508
I8
sS'David M. Blei'
p2509
I29
sS'Yiu Man Lam'
p2510
I1
sS'Yi-Te Hong'
p2511
I2
sS'XiaoJian Wu'
p2512
I1
sS'Geoffrey E. Hinton'
p2513
I20
sS'Mohammad Reza Karimi'
p2514
I1
sS'Eftychios A. Pnevmatikakis'
p2515
I3
sS'Haipeng Luo'
p2516
I5
sS'A\xc3\xa4ron van den Oord'
p2517
I4
sS'Thorsten Joachims'
p2518
I3
sS'Sandra Ebert'
p2519
I1
sS'Chip Schaff'
p2520
I1
sS'Jian Li'
p2521
I4
sS'John Quan'
p2522
I1
sS'Marcin Andrychowicz'
p2523
I3
sS'Zhuolin Jiang'
p2524
I1
sS'Artsiom Sanakoyeu'
p2525
I1
sS'Nicolas Usunier'
p2526
I7
sS'Pierre W. Ferrez'
p2527
I1
sS'Pradeep Shenoy'
p2528
I2
sS'Rizal Fathony'
p2529
I2
sS'Sean Gerrish'
p2530
I3
sS'AmirEmad Ghassami'
p2531
I1
sS'Jiawei Han 0001'
p2532
I3
sS'Saher Esmeir'
p2533
I1
sS'Kuan-Chieh Wang'
p2534
I1
sS'Yingzhen Li'
p2535
I2
sS'Thomas Powers'
p2536
I1
sS'Claire Tomlin'
p2537
I3
sS'Victor Gabillon'
p2538
I5
sS'Yuanyuan Liu'
p2539
I2
sS'Feiping Nie'
p2540
I6
sS'Pingfan Tang'
p2541
I1
sS'Marcel Nonnenmacher'
p2542
I2
sS'Leigh J. Hochberg'
p2543
I1
sS'Zhandong Liu'
p2544
I3
sS'Yuexin Wu'
p2545
I1
sS'Harald Steck'
p2546
I2
sS'Philip S. Yu'
p2547
I2
sS'Taufik Xu'
p2548
I1
sS'Yuancheng Zhu'
p2549
I2
sS'Zhao Fu'
p2550
I1
sS'Lawrence Murray'
p2551
I1
sS'Joydeep Ghosh'
p2552
I3
sS'Frank Chongwoo Park'
p2553
I1
sS'Xiaolong Wang 0004'
p2554
I2
sS'Luigi Carratino'
p2555
I1
sS'J. Zico Kolter'
p2556
I6
sS'Hakan Bilen'
p2557
I3
sS'Juliette Chevallier'
p2558
I1
sS'Xuanli Chen'
p2559
I1
sS'Ahmed Hefny'
p2560
I3
sS'Mathieu Sinn'
p2561
I2
sS'Jiming Peng'
p2562
I2
sS'Mathias Drton'
p2563
I2
sS'Yangqing Jia'
p2564
I4
sS'KyungHyun Cho'
p2565
I3
sS'Kent Quanrud'
p2566
I1
sS'Luca Pasa'
p2567
I1
sS'Zafer Barut\xc3\xa7uoglu'
p2568
I1
sS'Sebastian Gerwinn'
p2569
I4
sS'Sven J. Dickinson'
p2570
I1
sS'Chris Barber'
p2571
I1
sS'Jean-Baptiste Schiratti'
p2572
I1
sS'Maithreyi Raghu'
p2573
I1
sS'Erwan Scornet'
p2574
I1
sS'Yusu Wang'
p2575
I3
sS'Gregory S. Corrado'
p2576
I2
sS'David Hsu'
p2577
I5
sS'Tom Goldstein'
p2578
I2
sS'Charles Kemp'
p2579
I9
sS'Dilin Wang'
p2580
I1
sS'Brody Huval'
p2581
I1
sS'Rosie Jones'
p2582
I1
sS'Habib Benali'
p2583
I1
sS'Nick Chamandy'
p2584
I1
sS'Minh N. Do'
p2585
I1
sS'Elissa Aminoff'
p2586
I1
sS'Peichao Peng'
p2587
I1
sS'Dimitris S. Papailiopoulos'
p2588
I3
sS'Shanshan Wu'
p2589
I2
sS'Bogdan Alexe'
p2590
I2
sS'Alex Krizhevsky'
p2591
I1
sS'Atsushi Nitanda'
p2592
I1
sS'Yee Whye Teh'
p2593
I29
sS'Navdeep Jaitly'
p2594
I4
sS'George Papamakarios'
p2595
I2
sS'Paul Rigor'
p2596
I1
sS'Matti J\xc3\xa4rvisalo'
p2597
I1
sS'Ce Liu'
p2598
I2
sS'Soumya Ray'
p2599
I2
sS'Andreas Gr\xc3\xbcbl'
p2600
I1
sS'Russell Greiner'
p2601
I3
sS'Sumit Basu'
p2602
I1
sS'Bing Zhao'
p2603
I1
sS'Tal Yarkoni'
p2604
I1
sS'Andy Schuetz'
p2605
I1
sS'Siddhartha Srinivasa'
p2606
I1
sS'Kazuho Watanabe'
p2607
I1
sS'Klaus Obermayer'
p2608
I3
sS'Sekhar C. Tatikonda'
p2609
I2
sS'Kenichi Kurihara'
p2610
I2
sS'Bhaswar B. Bhattacharya'
p2611
I1
sS'Zenglin Xu'
p2612
I6
sS'Steven Niederer'
p2613
I1
sS'Fiery Cushman'
p2614
I1
sS'Suriya Gunasekar'
p2615
I3
sS'Holly Br\xc3\xbcgge Jimison'
p2616
I1
sS'Andrew Cotter'
p2617
I4
sS'Xiaoli Fern'
p2618
I3
sS'David Silver'
p2619
I11
sS'Krikamol Muandet'
p2620
I2
sS'Filip Radlinski'
p2621
I1
sS'Dinggang Shen'
p2622
I2
sS'Di Kang'
p2623
I1
sS'Hongyuan Mei'
p2624
I1
sS'Ali Farhadi'
p2625
I1
sS'Peyman Mohajerin Esfahani'
p2626
I1
sS'Zhaosong Lu'
p2627
I2
sS'Tsuyoshi Kato'
p2628
I1
sS'Henrik Ohlsson'
p2629
I1
sS'Jaedeug Choi'
p2630
I2
sS'Can Karakus'
p2631
I1
sS'Erik Linstead'
p2632
I1
sS'Peva Blanchard'
p2633
I1
sS'Adam Kalai'
p2634
I2
sS'Zhao Song'
p2635
I3
sS'David B. Dunson'
p2636
I14
sS'Yulai Cong'
p2637
I1
sS'Taehwan Kim 0003'
p2638
I1
sS'Mohammad Ali Maddah-Ali'
p2639
I1
sS'Hagai Lalazar'
p2640
I1
sS'Miguel R. D. Rodrigues'
p2641
I1
sS'Marcus Liwicki'
p2642
I2
sS'Manish Singh'
p2643
I1
sS'Leif H. Finkel'
p2644
I1
sS'Cheng Zhang 0005'
p2645
I1
sS'Gaute T. Einevoll'
p2646
I1
sS'William Z. Chen'
p2647
I1
sS'Masato Okada'
p2648
I5
sS'Dan Zhang 0007'
p2649
I1
sS'Dahui Wang'
p2650
I1
sS'Guy Lever'
p2651
I1
sS'Xia Qu'
p2652
I1
sS'Guosheng Lin'
p2653
I1
sS'Dharmashankar Subramanian'
p2654
I1
sS'Hynek Hermansky'
p2655
I1
sS'Bart De Moor'
p2656
I1
sS'Carlos Guestrin'
p2657
I9
sS'Quentin Cormier'
p2658
I1
sS'Jianchang Mao'
p2659
I1
sS'Jos\xc3\xa9 Carlos Pr\xc3\xadncipe'
p2660
I1
sS'Sami Remes'
p2661
I1
sS'James Hensman'
p2662
I4
sS'Niki Parmar'
p2663
I1
sS'Jarvis D. Haupt'
p2664
I2
sS'Weining Lu'
p2665
I1
sS'Alban Desmaison'
p2666
I2
sS'Yuchen Zhang'
p2667
I4
sS'Sajid M. Siddiqi'
p2668
I1
sS'Derek Hoiem'
p2669
I1
sS'Jiajun Wu 0001'
p2670
I7
sS'Ernesto De Vito'
p2671
I1
sS'Ali Jalali'
p2672
I2
sS'Shipeng Yu'
p2673
I3
sS'Daisuke Hatano'
p2674
I1
sS'Rahul Kidambi'
p2675
I1
sS'Charles A. Micchelli'
p2676
I2
sS'Jackson Gorham'
p2677
I1
sS'Jie Wang'
p2678
I4
sS'Lijun Zhang 0005'
p2679
I5
sS'Tianqi Chen'
p2680
I1
sS'Steven Cheng-Xian Li'
p2681
I1
sS'Adam R. Teichert'
p2682
I1
sS'Pierre-Arnaud Coquelin'
p2683
I2
sS'Noah D. Goodman'
p2684
I9
sS'Barbara Rakitsch'
p2685
I1
sS'Emre Neftci'
p2686
I1
sS'Aniruddha Bhargava'
p2687
I2
sS'Marco Barreno'
p2688
I1
sS'Liwei Wang'
p2689
I1
sS'Edmond A. Jonckheere'
p2690
I1
sS'Tae-Kyun Kim'
p2691
I1
sS'Hansheng Diao'
p2692
I1
sS'He Sun 0001'
p2693
I1
sS'Barry Chai'
p2694
I1
sS'Joseph Modayil'
p2695
I2
sS'Bhargav Avasarala'
p2696
I1
sS'Sebastian Stober'
p2697
I1
sS'Kevin Roth'
p2698
I1
sS'Byung-Gon Chun'
p2699
I1
sS'Francesco Orabona'
p2700
I8
sS'Odalric-Ambrym Maillard'
p2701
I8
sS'Cristian Sminchisescu'
p2702
I5
sS'Aswin Raghavan'
p2703
I1
sS'Sethuraman Panchanathan'
p2704
I1
sS'Ying Zhang'
p2705
I2
sS'William E. Bishop'
p2706
I1
sS'Andrew G. Berneshawi'
p2707
I1
sS'Fabian Mentzer'
p2708
I1
sS'Sugiri Pranata'
p2709
I1
sS'Koji Tsuda'
p2710
I1
sS'Yanping Huang'
p2711
I2
sS'Alex Lamb'
p2712
I2
sS'Judy Hoffman'
p2713
I2
sS'Douglas Roossien'
p2714
I1
sS'Sashank Jakkam Reddi'
p2715
I1
sS'John Lygeros'
p2716
I1
sS'Douglas E. Sturim'
p2717
I1
sS'Mehdi Mirza'
p2718
I2
sS'John Mark Agosta'
p2719
I1
sS'Dinesh Ramasamy'
p2720
I1
sS'Krishnakant Saboo'
p2721
I1
sS'Charlie Frogner'
p2722
I2
sS'Aleksandra Mojsilovic'
p2723
I1
sS'Tejas D. Kulkarni'
p2724
I4
sS'Moshe Babaioff'
p2725
I1
sS'Marc Haelterman'
p2726
I1
sS'Zuoguan Wang'
p2727
I2
sS'Xuanjing Huang'
p2728
I1
sS'Aasa Feragen'
p2729
I2
sS'Zhijun Yang'
p2730
I1
sS'Marie Szafranski'
p2731
I1
sS'Adam Kohn'
p2732
I1
sS'Lihua Lei'
p2733
I1
sS'Weifeng Chen'
p2734
I1
sS'Barna Saha'
p2735
I2
sS'Animashree Anandkumar'
p2736
I5
sS"Simon Timothy O'Callaghan"
p2737
I1
sS'Michal Feldman'
p2738
I1
sS'Jeremy Lewi'
p2739
I1
sS'Josef Sivic'
p2740
I2
sS'Jiaqi Zhang'
p2741
I1
sS'George Danezis'
p2742
I1
sS'Jo\xc3\xa3o Paulo Costeira'
p2743
I1
sS'Richard S. Sutton'
p2744
I7
sS'Jiaji Huang'
p2745
I1
sS'Wei Bian'
p2746
I1
sS'Omer Bobrowski'
p2747
I1
sS'Matthew Chalk'
p2748
I1
sS'Dimitris Samaras'
p2749
I3
sS'Xueqi Cheng'
p2750
I1
sS'John E. Hopcroft'
p2751
I2
sS'Klaus Greff'
p2752
I3
sS'Bonnie Kirkpatrick'
p2753
I1
sS'Jun-Kun Wang'
p2754
I1
sS'James MacGlashan'
p2755
I1
sS'Pierre Garrigues'
p2756
I3
sS'Minje Jang'
p2757
I1
sS'Jian Ma'
p2758
I1
sS'Ben Poole'
p2759
I1
sS'Silvia Chiappa'
p2760
I2
sS'Yukun Zhu'
p2761
I2
sS'Srinjoy Mitra'
p2762
I1
sS'Mathew Monfort'
p2763
I1
sS'Aaron C. Courville'
p2764
I10
sS'Rishit Sheth'
p2765
I1
sS'Wray L. Buntine'
p2766
I2
sS'Soummya Kar'
p2767
I1
sS'Anurag Ajay'
p2768
I1
sS'Sebastian Nowozin'
p2769
I6
sS'Pascal Lamblin'
p2770
I1
sS'Pieter R. Roelfsema'
p2771
I1
sS'Matthew Hirn'
p2772
I1
sS'Djemel Ziou'
p2773
I1
sS'Qianli Liao'
p2774
I1
sS'Hiroshi Morioka'
p2775
I1
sS'Roel Dobbe'
p2776
I1
sS'James Newling'
p2777
I2
sS'Jieping Ye'
p2778
I20
sS'Pratibha Vellanki'
p2779
I1
sS'Mark Kozdoba'
p2780
I1
sS'Xiaolin Yang'
p2781
I1
sS'Aswin C. Sankaranarayanan'
p2782
I1
sS'Peter Carbonetto'
p2783
I2
sS'Sergey M. Plis'
p2784
I1
sS'Nicholas Watters'
p2785
I1
sS'Daniel Kuhn'
p2786
I2
sS'Jens Meiler'
p2787
I1
sS'Javier Pe\xc3\xb1a'
p2788
I1
sS'Andrew D. Zaharia'
p2789
I1
sS'Jonathan E. Taylor'
p2790
I3
sS'Roy Anati'
p2791
I1
sS'Mingrui Wu'
p2792
I1
sS'Ashish Sabharwal'
p2793
I5
sS'Geoffrey Irving'
p2794
I1
sS'Charles F. Cadieu'
p2795
I2
sS'Umut Simsekli'
p2796
I3
sS'Matthias Bethge'
p2797
I13
sS'Jin Hyung Lee'
p2798
I1
sS'David Ding'
p2799
I1
sS'Xingyuan Sun'
p2800
I1
sS'Justin Domke'
p2801
I6
sS'Scott E. Reed'
p2802
I4
sS'Adam D. Smith'
p2803
I2
sS'John Lawson'
p2804
I2
sS'Lucas Maystre'
p2805
I1
sS'Andrew Isaac Meso'
p2806
I1
sS'Austin J. Brockmeier'
p2807
I1
sS'Kishore Reddy Konda'
p2808
I1
sS'Avishek Saha'
p2809
I1
sS'Chicheng Zhang'
p2810
I5
sS'Devdatt P. Dubhashi'
p2811
I2
sS'Juhee Cho'
p2812
I1
sS'Hsiao-Yu Fish Tung'
p2813
I2
sS'Duncan A. J. Blythe'
p2814
I1
sS'Antoine Gautier'
p2815
I1
sS'Sanda M. Harabagiu'
p2816
I1
sS'Weisheng Dong'
p2817
I1
sS'Liam MacDermed'
p2818
I1
sS'David Uminsky'
p2819
I2
sS'Amar Shah'
p2820
I1
sS'Min Yang'
p2821
I1
sS'Lopamudra Mukherjee'
p2822
I1
sS'Liangliang Wang'
p2823
I1
sS'Felix Ming Fai Wong'
p2824
I1
sS'Dmitri Chklovskii'
p2825
I1
sS'Jean-Jacques E. Slotine'
p2826
I3
sS'Amaury Habrard'
p2827
I3
sS'Zhenming Liu'
p2828
I2
sS'Matthew Lawlor'
p2829
I2
sS'Stefanos Eleftheriadis'
p2830
I1
sS'Joan Fruitet'
p2831
I1
sS'Amir Dezfouli'
p2832
I1
sS'R. Devon Hjelm'
p2833
I1
sS'Alain Durmus'
p2834
I1
sS'Katherine L. Bouman'
p2835
I1
sS'Fei Tian'
p2836
I1
sS'Feynman T. Liang'
p2837
I1
sS'G\xc3\xbcnter Klambauer'
p2838
I1
sS'Dijun Luo'
p2839
I1
sS'Dane S. Corneil'
p2840
I1
sS'Casper Kaae S\xc3\xb8nderby'
p2841
I1
sS'Yang Ning'
p2842
I1
sS'Tatiana Tommasi'
p2843
I1
sS'Yoonho Boo'
p2844
I1
sS'Fahad Shahbaz Khan'
p2845
I1
sS'Hongzhou Lin'
p2846
I1
sS'Marta Salas'
p2847
I1
sS'Erik Talvitie'
p2848
I2
sS'Staal A. Vinterbo'
p2849
I1
sS'Tal Rosenwein'
p2850
I1
sS'Guillaume Hennequin'
p2851
I3
sS'Yunbo Wang'
p2852
I1
sS'Fatma Kilin\xc3\xa7-Karzan'
p2853
I1
sS'Volodymyr Kuleshov'
p2854
I2
sS'Ananda Theertha Suresh'
p2855
I5
sS'Leonidas J. Guibas'
p2856
I5
sS'Yagmur G\xc3\xbc\xc3\xa7l\xc3\xbct\xc3\xbcrk'
p2857
I1
sS'Shobha Venkataraman'
p2858
I1
sS'Zhentao Li'
p2859
I1
sS'Nidhi Hegde'
p2860
I1
sS'Meihong Wang'
p2861
I1
sS'Vaishnavh Nagarajan'
p2862
I1
sS'Chris Ding'
p2863
I1
sS'Matthias Zwicker'
p2864
I1
sS'Ulf Brefeld'
p2865
I1
sS'J\xc3\xbcrgen Schmidhuber'
p2866
I10
sS'Austin Talbot'
p2867
I1
sS'Takuro Fukunaga'
p2868
I1
sS'Christoph H. Lampert'
p2869
I4
sS'Arulkumar Subramaniam'
p2870
I1
sS'Fan Deng'
p2871
I1
sS'Haw-Shiuan Chang'
p2872
I1
sS'Xiang Bai'
p2873
I3
sS'Dileep George'
p2874
I1
sS'An\xc3\xadbal R. Figueiras-Vidal'
p2875
I1
sS'Abhiram Natarajan'
p2876
I1
sS'Dominik Rothenh\xc3\xa4usler'
p2877
I1
sS'Azin Ashkan'
p2878
I1
sS'Kyunghyun Cho'
p2879
I4
sS'Shravan M. Narayanamurthy'
p2880
I2
sS'Miao Xu'
p2881
I1
sS'Guenther Zeck'
p2882
I1
sS'Qian Wang'
p2883
I1
sS'Jakub Lacki'
p2884
I1
sS'Yinlam Chow'
p2885
I4
sS'Oliver Stegle'
p2886
I3
sS'Davis Foote'
p2887
I1
sS'Sander Dieleman'
p2888
I1
sS'Illia Polosukhin'
p2889
I1
sS'Zahi N. Karam'
p2890
I1
sS'Paul Valiant'
p2891
I1
sS'Kamiya Motwani'
p2892
I1
sS'Po-Hsuan Chen'
p2893
I1
sS'Minmin Chen'
p2894
I1
sS'Michael Br\xc3\xbcckner'
p2895
I2
sS'Ashok Cutkosky'
p2896
I2
sS'Alina Ene'
p2897
I1
sS'Moni Shahar'
p2898
I1
sS'Guobin Chen'
p2899
I1
sS'Vittorio Dante'
p2900
I1
sS'Sen Yang'
p2901
I1
sS'Zhenghao Chen'
p2902
I2
sS'Nilesh N. Dalvi'
p2903
I1
sS'Zhuoran Yang'
p2904
I3
sS'Kim-Han Thung'
p2905
I1
sS'Arun Rajkumar'
p2906
I2
sS'Lorenzo Torresani'
p2907
I3
sS'David Wilcox'
p2908
I1
sS'Brian L. Price'
p2909
I1
sS'Hiroshi Sawada'
p2910
I2
sS'Brent Edmunds'
p2911
I1
sS'Bo Dai'
p2912
I4
sS'Weixin Li'
p2913
I1
sS'Novi Quadrianto'
p2914
I7
sS'Jian Wu'
p2915
I2
sS'Yan Huang 0008'
p2916
I1
sS'Dmitry P. Vetrov'
p2917
I4
sS'Mike Schuster'
p2918
I1
sS'Vadim Lebedev'
p2919
I1
sS'Stefan M. Wild'
p2920
I1
sS'Qian Sun'
p2921
I1
sS'Adam Woznica'
p2922
I2
sS'Pushmeet Kohli'
p2923
I14
sS'Amin Sayedi'
p2924
I1
sS'Alexandre Bernardino'
p2925
I1
sS'Flavio Chierichetti'
p2926
I2
sS'Kewei Chen'
p2927
I2
sS'Indraneel Mukherjee'
p2928
I2
sS'Ping Li'
p2929
I1
sS'Christoph Kayser'
p2930
I1
sS'Jung-Woo Ha'
p2931
I1
sS'Pavel P. Kuksa'
p2932
I1
sS'William Fithian'
p2933
I1
sS'Ran He'
p2934
I1
sS'Yasin Abbasi'
p2935
I1
sS'Stephen M. Chu'
p2936
I1
sS'S\xc3\xa9bastien Lahaie'
p2937
I1
sS'Yuri Grinberg'
p2938
I2
sS'Michael Kapralov'
p2939
I2
sS'Nimar S. Arora'
p2940
I1
sS'Qichao Que'
p2941
I2
sS'Hsuan-Tien Lin'
p2942
I1
sS'Maurizio Filippone'
p2943
I1
sS'Alp Yurtsever'
p2944
I3
sS'N. Jeremy Hill'
p2945
I1
sS'Paul Tylkin'
p2946
I1
sS'Bill Freeman'
p2947
I9
sS'Vlad I. Morariu'
p2948
I1
sS'Junier B. Oliva'
p2949
I1
sS'Vikas K. Garg'
p2950
I3
sS'Alessandra Sutti'
p2951
I1
sS'Javad Azimi'
p2952
I2
sS'Xavier Bouthillier'
p2953
I1
sS'Zhifeng Gao'
p2954
I1
sS'Maya R. Gupta'
p2955
I7
sS'Sebastian Musslick'
p2956
I1
sS'Siddharth Batra'
p2957
I1
sS'Arthur Gretton'
p2958
I18
sS'Hod Lipson'
p2959
I1
sS'Kwang-Sung Jun'
p2960
I2
sS'Christopher Yau'
p2961
I2
sS'Ramgopal R. Mettu'
p2962
I1
sS'Adrien Todeschini'
p2963
I1
sS'Niranjan A. Subrahmanya'
p2964
I2
sS'Erika Lu'
p2965
I1
sS'Christopher Painter-Wakefield'
p2966
I1
sS'Jinbo Bi'
p2967
I2
sS'Javier Alonso-Mora'
p2968
I1
sS'Aaron W. Dennis'
p2969
I1
sS'Payman Yadollahpour'
p2970
I1
sS'Pierre-Antoine Absil'
p2971
I1
sS'Jonathan W. Pillow'
p2972
I23
sS'Ram\xc3\xb3n Huerta'
p2973
I1
sS'Florin Popescu'
p2974
I1
sS'Arnold W. M. Smeulders'
p2975
I3
sS'Chun-Nam Yu'
p2976
I1
sS'Pengyuan Wang'
p2977
I1
sS'Ashish Khetan'
p2978
I3
sS'Ekaterina Gladkikh'
p2979
I1
sS'Dario Amodei'
p2980
I1
sS'Yannis M. Assael'
p2981
I1
sS'Karlheinz Meier'
p2982
I1
sS'Ozan Sener'
p2983
I1
sS'Tony Jebara'
p2984
I10
sS'Mohammad J. Saberian'
p2985
I4
sS'Natasha Singh-Miller'
p2986
I1
sS'George Tucker'
p2987
I2
sS'Yijie Guo'
p2988
I1
sS'J\xc3\xb6rg Bornschein'
p2989
I4
sS'Elodie Vernet'
p2990
I1
sS'Aman Dhesi'
p2991
I1
sS'Ragesh Jaiswal'
p2992
I1
sS'Maithra Raghu'
p2993
I1
sS'Kai-Wei Chang'
p2994
I2
sS'U. N. Niranjan'
p2995
I1
sS'Bang C\xc3\xb4ng Vu'
p2996
I1
sS'Ila Fiete'
p2997
I1
sS'Adler J. Perotte'
p2998
I2
sS'Pietro Vertechi'
p2999
I1
sS'Bradly C. Stadie'
p3000
I1
sS'Krzysztof Marcin Choromanski'
p3001
I3
sS'Kenji Kawaguchi'
p3002
I2
sS'Yujia Li'
p3003
I3
sS'Ivan Herreros'
p3004
I1
sS'Leo Zhu'
p3005
I1
sS'Megasthenis Asteris'
p3006
I2
sS'Fu Li'
p3007
I1
sS'Jiangwei Pan'
p3008
I1
sS'Bruno A. Olshausen'
p3009
I4
sS'Franck Iutzeler'
p3010
I1
sS'David W. Tank'
p3011
I1
sS'Maren Mahsereci'
p3012
I1
sS'Afshin Rostamizadeh'
p3013
I6
sS'Cesc C. Park'
p3014
I1
sS'Joshua T. Vogelstein'
p3015
I4
sS'Jorge Mari\xc3\xb1o'
p3016
I1
sS'Christopher D. Manning'
p3017
I8
sS'Davide Anguita'
p3018
I1
sS'Stephen I. Ryu'
p3019
I2
sS'Pablo Sprechmann'
p3020
I3
sS'Konstantinos Bousmalis'
p3021
I1
sS'Ruth Heller'
p3022
I1
sS'Ronen Eldan'
p3023
I2
sS'Andr\xc3\xa9 Longtin'
p3024
I1
sS'Matthijs T. J. Spaan'
p3025
I1
sS'Daniel Durstewitz'
p3026
I1
sS'Demba E. Ba'
p3027
I1
sS'Zhanxing Zhu'
p3028
I2
sS'Dan Svenstrup'
p3029
I1
sS'Mark Rowland'
p3030
I2
sS'Yuanqing Lin'
p3031
I2
sS'Alexandre Drouin'
p3032
I1
sS'Zi Wang'
p3033
I1
sS'Peng Xu'
p3034
I2
sS'Vladimir Pavlovic'
p3035
I2
sS'Daniel Vainsencher'
p3036
I2
sS'Tun Lu'
p3037
I1
sS'Brent Coull'
p3038
I1
sS'Les E. Atlas'
p3039
I1
sS'Maximilian Alber'
p3040
I1
sS'Satyen Kale'
p3041
I9
sS'Predrag Radivojac'
p3042
I1
sS'Andrew E. Waters'
p3043
I1
sS'Christian Igel'
p3044
I1
sS'Jihun Ham'
p3045
I1
sS'Gal Chechik'
p3046
I2
sS'Vivek F. Farias'
p3047
I4
sS'S\xc3\xb6ren Sonnenburg'
p3048
I2
sS'Yanyao Shen'
p3049
I1
sS'Mauricio Araya-Polo'
p3050
I1
sS'Djork-Arn\xc3\xa9 Clevert'
p3051
I1
sS'Jack L. Gallant'
p3052
I1
sS'Alessandro Lazaric'
p3053
I12
sS'Youhan Fang'
p3054
I1
sS'Naoya Takeishi'
p3055
I1
sS'Jun Zhu'
p3056
I21
sS'Thibaut Lienart'
p3057
I1
sS'Sandeep R. Datta'
p3058
I1
sS'Jonathan Masci'
p3059
I3
sS'Christophe Sch\xc3\xbclke'
p3060
I1
sS'Fei Sha'
p3061
I10
sS'Huishuai Zhang'
p3062
I2
sS'Dawn Song'
p3063
I1
sS'Zheng Tian'
p3064
I1
sS'Nicolas Heess'
p3065
I13
sS'Sewoong Oh'
p3066
I16
sS'Qinyuan Sun'
p3067
I1
sS'Licheng Jiao'
p3068
I1
sS'Ahmed-Shehab Khan'
p3069
I1
sS'James V. Haxby'
p3070
I2
sS'Yangyu Tao'
p3071
I1
sS'Steven Ehrlich'
p3072
I1
sS'Grani Adiwena Hanasusanto'
p3073
I1
sS'Zoran Popovic'
p3074
I3
sS'Arkadi Nemirovski'
p3075
I2
sS'David P. Woodruff'
p3076
I9
sS'Carl Henrik Ek'
p3077
I1
sS'Samuel Rota Bul\xc3\xb2'
p3078
I2
sS'Willem Waegeman'
p3079
I2
sS'Johannes Friedrich'
p3080
I2
sS'Jonathan J. Tompson'
p3081
I1
sS'Zhengyuan Zhou'
p3082
I3
sS'Xiaozhi Chen'
p3083
I1
sS'Julien Audiffren'
p3084
I2
sS'Basir Shariat'
p3085
I1
sS'Janne H. Korhonen'
p3086
I1
sS'Yael Niv'
p3087
I2
sS'Shuicheng Yan'
p3088
I11
sS'Jens K. Mueller'
p3089
I1
sS'Leonid Sigal'
p3090
I6
sS'David C. Lyon'
p3091
I1
sS'James McInerney'
p3092
I2
sS'David Loker'
p3093
I1
sS'Amit Daniely'
p3094
I4
sS'Vianney Perchet'
p3095
I2
sS'Alan A. Stocker'
p3096
I6
sS'Gordon Sun'
p3097
I1
sS'Eakta Jain'
p3098
I1
sS'Xiaojin (Jerry) Zhu'
p3099
I2
sS'Vittorio Ferrari'
p3100
I4
sS'Vincent Q. Vu'
p3101
I2
sS'Ofer Dekel'
p3102
I6
sS'Jia-Bin Huang'
p3103
I2
sS'Pieter-Jan Kindermans'
p3104
I3
sS'Blake Shaw'
p3105
I1
sS'K. R. Ramakrishnan'
p3106
I2
sS'Aude Genevay'
p3107
I1
sS'Yisong Yue'
p3108
I3
sS'Elias B. Khalil'
p3109
I1
sS'Ashkan Panahi'
p3110
I1
sS'William W. Cohen'
p3111
I4
sS'M\xc3\xa1te Lengyel'
p3112
I1
sS'Matthew D. Hoffman'
p3113
I2
sS'Michael L. Wick'
p3114
I2
sS'Brett Vintch'
p3115
I1
sS'Benjamin Van Durme'
p3116
I1
sS'Kwabena A. Boahen'
p3117
I2
sS'Ransalu Senanayake'
p3118
I1
sS'Wenkai Xu'
p3119
I1
sS'Ali Taylan Cemgil'
p3120
I2
sS'Keenon Werling'
p3121
I1
sS'St\xc3\xa9phane Mallat'
p3122
I2
sS'Rishabh K. Iyer'
p3123
I6
sS'Alan Blair'
p3124
I1
sS'Jaehong Kim'
p3125
I1
sS'Murat Kocaoglu'
p3126
I3
sS'Timothy Hirzel'
p3127
I1
sS'Bob Mankoff'
p3128
I1
sS'Nika Haghtalab'
p3129
I4
sS'He Huang'
p3130
I2
sS'Kapil Thadani'
p3131
I1
sS'Maruan Al-Shedivat'
p3132
I1
sS'Risheng Liu'
p3133
I1
sS'Balaji Krishnapuram'
p3134
I2
sS'Deepak Venugopal'
p3135
I3
sS'Arnaud Doucet'
p3136
I6
sS'Upamanyu Madhow'
p3137
I1
sS'Dexter Kozen'
p3138
I1
sS'Julien P\xc3\xa9rolat'
p3139
I2
sS'Daniel S. Levine 0002'
p3140
I1
sS'Konrad Grzeska'
p3141
I1
sS'Michal Derezinski'
p3142
I2
sS'Ralf M. Haefner'
p3143
I2
sS'Anima Anandkumar'
p3144
I5
sS'Mark Rogers'
p3145
I1
sS'Yukiyasu Kamitani'
p3146
I1
sS'Arye Nehorai'
p3147
I1
sS'Bevan K. Jones'
p3148
I1
sS'Ales Leonardis'
p3149
I1
sS'Ya Xu'
p3150
I1
sS'Minh Hoai Nguyen'
p3151
I1
sS'Alexandre de Br\xc3\xa9bisson'
p3152
I1
sS'Eemil Lagerspetz'
p3153
I1
sS'Yunpeng Pan'
p3154
I2
sS'Crystal Maung'
p3155
I1
sS'Elena Grigorescu'
p3156
I1
sS'Andr\xc3\xa9 Kahles'
p3157
I1
sS'Radu Timofte'
p3158
I1
sS'Nolan Bard'
p3159
I1
sS'Prateep Bhattacharjee'
p3160
I1
sS'Michael M. Bronstein'
p3161
I2
sS'Niloy Ganguly'
p3162
I1
sS'Amir Sani'
p3163
I2
sS'Inmar E. Givoni'
p3164
I1
sS'Satinder Singh Baveja'
p3165
I1
sS'Jonathan Harel'
p3166
I1
sS'Victor Picheny'
p3167
I1
sS'Jalil Kazemitabar'
p3168
I1
sS'Hamid Javadi'
p3169
I1
sS'Shangyu Chen'
p3170
I1
sS'Min Xiao'
p3171
I1
sS'Dan Ventura'
p3172
I2
sS'Matthew B. Blaschko'
p3173
I6
sS'Tom Heskes'
p3174
I4
sS'Veronika Rockov\xc3\xa1'
p3175
I1
sS'Yuekai Sun'
p3176
I4
sS'Stefanie Jegelka'
p3177
I13
sS'Kaito Fujii'
p3178
I1
sS'Ali Shojaie'
p3179
I1
sS'Tom M. Mitchell'
p3180
I2
sS'Kaan \xc3\x96cal'
p3181
I1
sS'Han Zhao'
p3182
I2
sS'Mingsheng Long'
p3183
I3
sS'Andrew Cohen'
p3184
I1
sS'Yingbo Song'
p3185
I1
sS'Kyle Kastner'
p3186
I1
sS'Noga Alon'
p3187
I3
sS'Xinggang Wang'
p3188
I1
sS'Nihar Bhadresh Shah'
p3189
I1
sS'Hyeonwoo Noh'
p3190
I2
sS'Wouter Boomsma'
p3191
I1
sS'Anton Chechetka'
p3192
I2
sS'Min Li'
p3193
I1
sS'Judy Goldsmith'
p3194
I1
sS'Alexandre Passos'
p3195
I1
sS'Wei Chu'
p3196
I2
sS'Chongxuan LI'
p3197
I1
sS'Dacheng Tao'
p3198
I2
sS'Yuxi Li'
p3199
I1
sS'P. Jonathon Phillips'
p3200
I1
sS'Ankit B. Patel'
p3201
I1
sS'Chongxuan Li'
p3202
I2
sS'Roland Badeau'
p3203
I1
sS'Win-Bin Huang'
p3204
I1
sS'Navid Zolghadr'
p3205
I1
sS'Emile Richard'
p3206
I6
sS'Johannes Ball\xc3\xa9'
p3207
I1
sS'Nikos Paragios'
p3208
I2
sS'Shinji Ito'
p3209
I2
sS'Morteza Ibrahimi'
p3210
I2
sS'Jiecao Chen'
p3211
I1
sS'Ellen Vitercik'
p3212
I1
sS'Tyng-Luh Liu'
p3213
I1
sS'Evangelos A. Theodorou'
p3214
I1
sS'Giulia C. Fanti'
p3215
I1
sS'Yuichi Yoshida'
p3216
I4
sS'Maxim Rabinovich'
p3217
I2
sS'Stephen Keeley'
p3218
I1
sS'Ke Chen'
p3219
I1
sS'Stefan Wager'
p3220
I3
sS'Yali Wang'
p3221
I1
sS'Duy M. H. Nguyen'
p3222
I1
sS'Amir-massoud Farahmand'
p3223
I3
sS'Bo Jiang'
p3224
I1
sS'Angela Lee'
p3225
I1
sS'Kun He'
p3226
I1
sS'Baotian Hu'
p3227
I1
sS'Jong-Shi Pang'
p3228
I1
sS'David McAllester'
p3229
I1
sS'Deanna Needell'
p3230
I1
sS'Shivani Agarwal 0001'
p3231
I6
sS'Wenling Shang'
p3232
I2
sS'Pinhas Nisnevitch'
p3233
I1
sS'Philippe Rigollet'
p3234
I1
sS'Minjie Xu'
p3235
I2
sS'Anurag Mittal'
p3236
I1
sS'Vladlen Koltun'
p3237
I5
sS'David P. Wipf'
p3238
I9
sS'Thang D. Bui'
p3239
I3
sS'Woonhyun Nam'
p3240
I1
sS'Mauricio Araya-L\xc3\xb3pez'
p3241
I1
sS'Dennis L. Barbour'
p3242
I1
sS'Lukas Cavigelli'
p3243
I1
sS'Marco Cristani'
p3244
I1
sS'Yuqiu Qian'
p3245
I1
sS'Paul R. Schrater'
p3246
I3
sS'Andrew Gelfand'
p3247
I1
sS'Liqun Chen'
p3248
I3
sS'Sahar Akram'
p3249
I1
sS'Xiao-Bo Shen'
p3250
I1
sS'Sergey Karayev'
p3251
I2
sS'Feng Cao'
p3252
I1
sS'Huan Xu'
p3253
I16
sS'Arnak S. Dalalyan'
p3254
I2
sS'Yang Yuan'
p3255
I2
sS'Zhouchen Lin'
p3256
I5
sS'Vighnesh Birodkar'
p3257
I1
sS'Stefan Harmeling'
p3258
I1
sS'Liangliang Cao'
p3259
I1
sS'Pawan Kumar Mudigonda'
p3260
I3
sS'Jussi Rintanen'
p3261
I1
sS'Tao Wang'
p3262
I1
sS'Yoshua Bengio'
p3263
I29
sS'Kang-Jun Liu'
p3264
I1
sS'Nicolas Thome'
p3265
I1
sS'Vincent Dumoulin'
p3266
I1
sS'Charles Hatt'
p3267
I1
sS'Hung Q. Ngo 0001'
p3268
I1
sS'Biswadip Dey'
p3269
I1
sS'John J. Bruer'
p3270
I1
sS'Rama Chellappa'
p3271
I3
sS'Sebastian Scherer'
p3272
I1
sS'Chris Hinrichs'
p3273
I3
sS'Arsenii Ashukha'
p3274
I1
sS'Abhay Kumar Jha'
p3275
I1
sS'Peter V. Gehler'
p3276
I1
sS'Hossein Mobahi'
p3277
I1
sS'Shih-Fu Chang'
p3278
I3
sS'Hanie Sedghi'
p3279
I1
sS'Jo\xc3\xa3o D. Semedo'
p3280
I1
sS'Thomas Anthony'
p3281
I1
sS'Xintao Hu'
p3282
I1
sS'Eero P. Simoncelli'
p3283
I9
sS'Bruce G. Cumming'
p3284
I1
sS'Eirikur Agustsson'
p3285
I1
sS'Gregory Shakhnarovich'
p3286
I1
sS'Nikos Karampatziakis'
p3287
I1
sS'Jennifer Wortman Vaughan'
p3288
I1
sS'S. Muthukrishnan'
p3289
I1
sS'Iain Murray'
p3290
I8
sS'Gang Niu'
p3291
I5
sS'Paris Smaragdis'
p3292
I3
sS'Matthew J. Streeter'
p3293
I4
sS'Junming Yin'
p3294
I2
sS'Edo Liberty'
p3295
I1
sS'Yuanbin Wu'
p3296
I1
sS'Sheng Li 0001'
p3297
I1
sS'Sina Tootoonian'
p3298
I1
sS'Tao Qin'
p3299
I7
sS'Rajesh Ranganath'
p3300
I5
sS'Vicente Ordonez'
p3301
I1
sS'Karol Gregor'
p3302
I4
sS'Sven Peter'
p3303
I2
sS'Mark A. Hasegawa-Johnson'
p3304
I1
sS'Sinong Wang'
p3305
I1
sS'Marc Pollefeys'
p3306
I3
sS'Kiyoshi Asai'
p3307
I1
sS'Guillaume Desjardins'
p3308
I2
sS'Omar Besbes'
p3309
I1
sS'Hanzi Wang'
p3310
I1
sS'Lizhen Lin'
p3311
I1
sS'Christoph Dann'
p3312
I3
sS'Max Welling'
p3313
I13
sS'Patrick Jaillet'
p3314
I4
sS'Murugan Sankaradass'
p3315
I1
sS'Bahadir Ozdemir'
p3316
I1
sS'Okke Schrijvers'
p3317
I1
sS'Nikolaos Vasiloglou'
p3318
I1
sS'Chao Qu'
p3319
I1
sS'Quoc Phong Nguyen'
p3320
I1
sS'Trevor J. Hastie'
p3321
I1
sS'Stephen E. Fienberg'
p3322
I1
sS'J. Doug Tygar'
p3323
I2
sS'Sabyasachi Chatterjee'
p3324
I1
sS'Ken Kansky'
p3325
I1
sS'Johanne Cohen'
p3326
I1
sS'Huasen Wu'
p3327
I2
sS'Mijung Park'
p3328
I6
sS'Yu Xin'
p3329
I1
sS'Kishan Wimalawarne'
p3330
I1
sS'Michael Johanson'
p3331
I2
sS'Zheng Wen'
p3332
I4
sS'Alexandre Tkatchenko'
p3333
I2
sS'Sergio Rojas Galeano'
p3334
I1
sS'Fran\xc3\xa7ois Chollet'
p3335
I1
sS'Katrina Ligett'
p3336
I2
sS'Nadya T. Bliss'
p3337
I1
sS'Jisu Kim'
p3338
I1
sS'Wenruo Bai'
p3339
I1
sS'Xiang Li'
p3340
I1
sS'Tu Dinh Nguyen'
p3341
I1
sS'Xiaofan Lin'
p3342
I1
sS'Christine Fawcett'
p3343
I1
sS'Chris Russell'
p3344
I3
sS'Gustavo Carneiro'
p3345
I1
sS'Fl\xc3\xa1vio du Pin Calmon'
p3346
I1
sS'Jialin Mao'
p3347
I1
sS'Siwei Lyu'
p3348
I7
sS'Ouais Alsharif'
p3349
I1
sS'Jonathan Le Roux'
p3350
I2
sS'Manzil Zaheer'
p3351
I1
sS'Ali Jadbabaie'
p3352
I1
sS'Hee-Kap Ahn'
p3353
I1
sS'Robert C. Wilson'
p3354
I1
sS'Nathan F. Lepora'
p3355
I1
sS'Kian Hsiang Low'
p3356
I1
sS'Yingce Xia'
p3357
I3
sS'Viktoriia Sharmanska'
p3358
I2
sS'Damien Jose'
p3359
I1
sS'Paul St\xc3\xa4rke'
p3360
I1
sS'Bart Selman'
p3361
I5
sS'Dimitris Margaritis'
p3362
I1
sS'Lane McIntosh'
p3363
I1
sS'Parameswaran Raman'
p3364
I1
sS'Dan Klein'
p3365
I7
sS'Wei Sun'
p3366
I1
sS'Vibhav Gogate'
p3367
I9
sS'Geraldine Dawson'
p3368
I1
sS'Frank W. Ohl'
p3369
I1
sS'Kamiar Rahnama Rad'
p3370
I1
sS'Benjamin H. Brinkmann'
p3371
I1
sS'Romain Laroche'
p3372
I1
sS'Aditya Krishna Menon'
p3373
I3
sS'Olaf Sporns'
p3374
I1
sS'Nikos Komodakis'
p3375
I2
sS'Maryam Fazel'
p3376
I3
sS'Jean-Philippe Pellet'
p3377
I1
sS'Nathaniel D. Daw'
p3378
I2
sS'Abhishek Kar'
p3379
I1
sS'Joris Roels'
p3380
I1
sS'Chiyuan Zhang'
p3381
I3
sS'Hiroko Kobayashi'
p3382
I1
sS'Jakub Konecn\xc3\xbd'
p3383
I1
sS'Gaurav S. Sukhatme'
p3384
I1
sS'Dennis Wei'
p3385
I2
sS'Stefan J. Kiebel'
p3386
I1
sS'Nisheeth Srivastava'
p3387
I3
sS'Daniel M. Roy'
p3388
I6
sS'Ravishankar K. Iyer'
p3389
I1
sS'Jonathan Chang'
p3390
I2
sS'Nicholas Bambos'
p3391
I2
sS'Zelun Luo'
p3392
I1
sS'Toshiyuki Tanaka'
p3393
I1
sS'Jeremy B. Maitin-Shepard'
p3394
I1
sS'Marc Sobel'
p3395
I1
sS'John Langford'
p3396
I15
sS'Shashanka Ubaru'
p3397
I1
sS'Jing Lei'
p3398
I2
sS'Kacper Chwialkowski'
p3399
I2
sS'Hariharan Narayanan'
p3400
I2
sS'Joan Bruna'
p3401
I1
sS'Deepak Pathak'
p3402
I1
sS'Liming Wang'
p3403
I2
sS'Kiran Garimella'
p3404
I1
sS'Cristian R. Rojas'
p3405
I1
sS'Vicen\xc3\xa7 G\xc3\xb3mez'
p3406
I1
sS'Srikantan S. Nagarajan'
p3407
I3
sS'Jinjun Xiong'
p3408
I1
sS'Dmitri B. Chklovskii'
p3409
I6
sS'Shalabh Bhatnagar'
p3410
I4
sS'Quoc V. Le'
p3411
I10
sS'Zhe Lin'
p3412
I1
sS'Zhe Liu'
p3413
I1
sS'Lang Tong'
p3414
I1
sS'Marcus Hutter'
p3415
I2
sS'Anshumali Shrivastava'
p3416
I5
sS'Jue Wang'
p3417
I1
sS'David M. Rocke'
p3418
I1
sS'Filip Radenovic'
p3419
I1
sS'Menachem Fromer'
p3420
I1
sS'Mohammad Reza Loghmani'
p3421
I1
sS'Anteo Smerieri'
p3422
I1
sS'Mark W. Schmidt'
p3423
I4
sS'Pedro U. Lima'
p3424
I1
sS'Tanzeem Choudhury'
p3425
I1
sS'Feng Zhou'
p3426
I1
sS'Fabian L. Wauthier'
p3427
I3
sS'Dmitry Krotov'
p3428
I1
sS'Arthur Szlam'
p3429
I5
sS'Christopher Zach'
p3430
I1
sS'Shiqian Ma'
p3431
I3
sS'Laurent Jacques'
p3432
I1
sS'Lin Tian'
p3433
I1
sS'Pieter W. Adriaans'
p3434
I1
sS'Suresh K. Bhavnani'
p3435
I1
sS'Rowan McAllister'
p3436
I1
sS'Gunhee Kim'
p3437
I2
sS'Zhi Yang'
p3438
I3
sS'Guy Uziel'
p3439
I1
sS'Stefan Haufe'
p3440
I1
sS'James Ridgway'
p3441
I1
sS'Yash Deshpande'
p3442
I3
sS'Yi Zhen'
p3443
I1
sS'Hubert Ramsauer'
p3444
I1
sS'Georgios Arvanitidis'
p3445
I1
sS'Sunghyun Kim'
p3446
I1
sS'Kristen Grauman'
p3447
I10
sS'Edward Y. Chang'
p3448
I1
sS'Chris J. Oates'
p3449
I2
sS'Steven de Rooij'
p3450
I2
sS'Martin O. Larsson'
p3451
I1
sS'Simon Osindero'
p3452
I3
sS'Randall Davis'
p3453
I1
sS'Shiguang Shan'
p3454
I2
sS'Kirill Trapeznikov'
p3455
I1
sS'Scott Wisdom'
p3456
I1
sS'G\xc3\xa1bor Bart\xc3\xb3k'
p3457
I2
sS'Tatyana Sharpee'
p3458
I1
sS'Bin Zhao'
p3459
I1
sS'Yu Zhou'
p3460
I1
sS'Bo Zhang 0010'
p3461
I1
sS'Kohei Hayashi'
p3462
I6
sS'Alexandre Prouti\xc3\xa8re'
p3463
I6
sS'Jeff Pool'
p3464
I1
sS'John Walker Orr'
p3465
I1
sS'Francesco Tudisco'
p3466
I1
sS'Daan Wierstra'
p3467
I4
sS'Michael Eickenberg'
p3468
I2
sS'Marius Kloft'
p3469
I4
sS'Yicong Meng'
p3470
I1
sS'St\xc3\xa9phane Ga\xc3\xafffas'
p3471
I2
sS'Nils Napp'
p3472
I1
sS'Srivatsan Narayanan'
p3473
I1
sS'Peter Wonka'
p3474
I3
sS'Jon Krohn'
p3475
I1
sS'Adam Stooke'
p3476
I1
sS'Uwe Dick'
p3477
I1
sS'Arian Maleki'
p3478
I2
sS'Danial Lashkari'
p3479
I2
sS'Jonathan S. Yedidia'
p3480
I1
sS'Stefan Mathe'
p3481
I1
sS'Matthew King'
p3482
I1
sS'Houman Safaai'
p3483
I1
sS'Christopher G. Atkeson'
p3484
I1
sS'Juan Huo'
p3485
I2
sS'Charles Kervrann'
p3486
I1
sS'Sethu Vijayakumar'
p3487
I5
sS'Dominique C. Perrault-Joncas'
p3488
I1
sS'Alexander J. Smola'
p3489
I25
sS'Yun Fu 0001'
p3490
I1
sS'Yue M. Lu'
p3491
I1
sS'Sherjil Ozair'
p3492
I1
sS'Fr\xc3\xa9d\xc3\xa9ric Chazal'
p3493
I1
sS'Xiang Wu'
p3494
I1
sS'Istv\xc3\xa1n \xc3\x81kos M\xc3\xb3rocz'
p3495
I1
sS'Hong Ge'
p3496
I1
sS'Onno Zoeter'
p3497
I1
sS'Dzmitry Bahdanau'
p3498
I1
sS'Yunchen Pu'
p3499
I5
sS'Xueyuan Zhou'
p3500
I1
sS'Timothy A. Machado'
p3501
I1
sS'Charles L. Isbell'
p3502
I4
sS'Suzanna Martens'
p3503
I1
sS'Kris M. Kitani'
p3504
I1
sS'Hua Ouyang'
p3505
I1
sS'Joscha Schmiedt'
p3506
I1
sS'Pritish Mohapatra'
p3507
I1
sS'Steffen Bickel'
p3508
I1
sS'Giorgio Corani'
p3509
I2
sS'Junhong Lin'
p3510
I1
sS'Muhammad Yousefnezhad'
p3511
I1
sS'Hamed Masnadi-Shirazi'
p3512
I2
sS'Hendrik Blockeel'
p3513
I1
sS'Nir Ailon'
p3514
I3
sS'David Pfau'
p3515
I3
sS'Qi Zhao'
p3516
I2
sS'Harm de Vries'
p3517
I2
sS'Benjamin Sapp'
p3518
I1
sS'Aditya Bhaskara'
p3519
I2
sS'Francis R. Bach'
p3520
I34
sS'Cyril Goutte'
p3521
I1
sS'Wei-Lun Chao'
p3522
I1
sS'Tae-Hyun Oh'
p3523
I1
sS'Omer Levy'
p3524
I1
sS'Andrew B. Schwartz'
p3525
I1
sS'Soumik Sarkar'
p3526
I1
sS'Vincent Cohen-Addad'
p3527
I1
sS'Daniel R. Sheldon'
p3528
I3
sS'Denis Deratani Mau\xc3\xa1'
p3529
I2
sS'Yani Ioannou'
p3530
I1
sS'Wei Liu 0026'
p3531
I1
sS'Michael G. Rabbat'
p3532
I1
sS'Mikko Honkala'
p3533
I2
sS'John William Paisley'
p3534
I2
sS'Zhenxiao Liang'
p3535
I1
sS'Siamac Fazli'
p3536
I2
sS'Serge J. Belongie'
p3537
I3
sS'Nebojsa Jojic'
p3538
I6
sS'Christopher C. Johnson'
p3539
I1
sS'Alessandro Bergamo'
p3540
I2
sS'JooSeuk Kim'
p3541
I1
sS'Brenda Betancourt'
p3542
I1
sS'Joel Veness'
p3543
I5
sS'Hui Lin'
p3544
I1
sS'Daniel Hewlett'
p3545
I1
sS'Johannes Schemmel'
p3546
I1
sS'Ke Chen 0001'
p3547
I1
sS'Kevin Tian'
p3548
I1
sS'Ronald Parr'
p3549
I2
sS'Paul Vernaza'
p3550
I1
sS'Moo K. Chung'
p3551
I1
sS'Mingrui Liu'
p3552
I2
sS'William Austin Webb'
p3553
I1
sS'Naonori Ueda'
p3554
I4
sS'Surya Ganguli'
p3555
I9
sS'Weike Pan'
p3556
I1
sS'Nicholas Roy'
p3557
I2
sS'Seungil You'
p3558
I1
sS'David C. Lee'
p3559
I1
sS'Pavel Kolev'
p3560
I1
sS'Erich Kummerfeld'
p3561
I1
sS'Jun-Ming Xu'
p3562
I1
sS'Moontae Lee'
p3563
I2
sS'Bin Luo'
p3564
I1
sS'Eric Joel Horvitz'
p3565
I1
sS'Greg Stephens'
p3566
I1
sS'Jim Mutch'
p3567
I1
sS'Davide Boscaini'
p3568
I1
sS'Ya-Ping Hsieh'
p3569
I2
sS'Amy Greenwald'
p3570
I1
sS'Michael L. Kalish'
p3571
I1
sS'Paolo Viappiani'
p3572
I1
sS'Fernando De la Torre'
p3573
I3
sS'Xiaoou Tang'
p3574
I5
sS'Sixin Zhang'
p3575
I1
sS'Tengyu Ma'
p3576
I5
sS'Yuting Wei'
p3577
I1
sS'Ziyu Wang 0001'
p3578
I1
sS'Pablo Andr\xc3\xa9s Arbel\xc3\xa1ez'
p3579
I1
sS'Clayton Scott'
p3580
I3
sS'Jedediah M. Singer'
p3581
I1
sS'Marco Cuturi'
p3582
I5
sS'Michael R. Lyu'
p3583
I6
sS'Pedro J. Goncalves'
p3584
I1
sS'Jakob Verbeek'
p3585
I1
sS'Alex Ray'
p3586
I1
sS'Koosha Khalvati'
p3587
I2
sS'Edoardo M. Airoldi'
p3588
I4
sS'Edouard Grave'
p3589
I2
sS'Edwin Stoudenmire'
p3590
I1
sS'Kiarash Shaloudegi'
p3591
I1
sS'Sourangshu Bhattacharya'
p3592
I2
sS'John C. Platt'
p3593
I2
sS'Frank D. Wood'
p3594
I7
sS'Steven Z. Wu'
p3595
I2
sS'Michael Tschannen'
p3596
I2
sS'Shuhang Gu'
p3597
I1
sS'Hongjing Lu'
p3598
I5
sS'Siu-on Chan'
p3599
I1
sS'Andrei B. Ungureanu'
p3600
I1
sS'Ruby J. Pai'
p3601
I1
sS'Cary Dehing-Oberije'
p3602
I1
sS'Gauri Jagatap'
p3603
I1
sS'James Lu'
p3604
I1
sS'Christopher J. Hillar'
p3605
I1
sS'Alain Rakotomamonjy'
p3606
I3
sS'Jordy Thielen'
p3607
I1
sS'Justin Eldridge'
p3608
I1
sS'Wei Xu'
p3609
I2
sS'Byron M. Yu'
p3610
I7
sS'Bo Chen'
p3611
I3
sS'Dale Schuurmans'
p3612
I17
sS'Devansh Arpit'
p3613
I1
sS'Ulrik R. Beierholm'
p3614
I1
sS'Alessandro Sordoni'
p3615
I1
sS'Daniel McNamee'
p3616
I1
sS'Varun Jog'
p3617
I1
sS'Cheng Ju'
p3618
I1
sS'Christopher Lo'
p3619
I1
sS'Gregory Wayne'
p3620
I3
sS'Santiago Fern\xc3\xa1ndez'
p3621
I1
sS'Jiacui Li'
p3622
I1
sS'Olivier Delalleau'
p3623
I1
sS'Kevin Lin'
p3624
I2
sS'Amin Zandvakili'
p3625
I1
sS'Weihao Gao'
p3626
I3
sS'Ricardo Henao'
p3627
I11
sS'Jingjing Zheng'
p3628
I1
sS'Lin Du'
p3629
I1
sS'Elad Mezuman'
p3630
I1
sS'Ahmad Qamar'
p3631
I1
sS'James Martens'
p3632
I1
sS'Faustino J. Gomez'
p3633
I3
sS'Charles Lefurgy'
p3634
I1
sS'Jo-Anne Ting'
p3635
I1
sS'Rafael Bombarell'
p3636
I1
sS'Cristina Savin'
p3637
I5
sS'Yurong Chen'
p3638
I1
sS'Zane T. Smith'
p3639
I1
sS'Jean B. Lasserre'
p3640
I1
sS'Liam Solus'
p3641
I1
sS'Tom Dupr\xc3\xa9 la Tour'
p3642
I1
sS'Robert Gens'
p3643
I2
sS'Alexander Kirillov'
p3644
I2
sS'Tony R. Martinez'
p3645
I1
sS'Ryan D. Turner'
p3646
I2
sS'Junichiro Yoshimoto'
p3647
I1
sS'Kai Yu 0001'
p3648
I7
sS'Shankar R. Rao'
p3649
I1
sS'Ankit Garg'
p3650
I1
sS'Vaibhav Srivastava'
p3651
I1
sS'Mauricio A. \xc3\x81lvarez'
p3652
I3
sS'Jes Frellsen'
p3653
I1
sS'Hao Xu'
p3654
I1
sS'Teppo Mikael Niinim\xc3\xa4ki'
p3655
I1
sS'Georgios Theocharous'
p3656
I1
sS'Olivier Pietquin'
p3657
I4
sS'Mingyi Hong'
p3658
I3
sS'Slav Petrov'
p3659
I3
sS'Stuart Dreyfus'
p3660
I1
sS'Stephan Zheng'
p3661
I1
sS'Pierre Dupont'
p3662
I1
sS'Valentin Dallmeier'
p3663
I1
sS'Martial Hebert'
p3664
I5
sS'Saleema Amershi'
p3665
I1
sS'Pascal Germain'
p3666
I2
sS'Patrik O. Hoyer'
p3667
I1
sS'Andreas Schulze-Bonhage'
p3668
I1
sS'Vincent Roulet'
p3669
I2
sS'Tao Wu'
p3670
I1
sS'Felipe Gerhard'
p3671
I1
sS'Rishi Gupta'
p3672
I1
sS'Sung Ju Hwang'
p3673
I3
sS'Ashesh Jain'
p3674
I1
sS'Martin J. Zhang'
p3675
I1
sS'Jing Xiang'
p3676
I1
sS'Masakazu Ishihata'
p3677
I1
sS'Pierre Vandergheynst'
p3678
I1
sS'Ye Yuan'
p3679
I1
sS'Anthony D. Joseph'
p3680
I1
sS'Adarsh Kowdle'
p3681
I1
sS'Mehran Sahami'
p3682
I1
sS'Farzaneh Mirzazadeh'
p3683
I1
sS'Muhammad J. Amjad'
p3684
I1
sS'Shibin Parameswaran'
p3685
I1
sS'Michael J. Witbrock'
p3686
I1
sS'James R. Wright'
p3687
I1
sS'Ronald Ortner'
p3688
I3
sS'Jun Han'
p3689
I1
sS'Bernhard Nessler'
p3690
I4
sS'Kenneth W. Latimer'
p3691
I2
sS'Nils M. Kriege'
p3692
I1
sS"Marc'Aurelio Ranzato"
p3693
I8
sS'Ke Yang'
p3694
I1
sS'Sang-Yun Oh'
p3695
I1
sS'Phil Blunsom'
p3696
I3
sS'Koji Eguchi'
p3697
I1
sS'Sharan Vaswani'
p3698
I1
sS'Kevin L. Briggman'
p3699
I2
sS'Deva Ramanan'
p3700
I6
sS'P. Read Montague'
p3701
I1
sS'Yizhou Sun'
p3702
I1
sS'Qi Wei'
p3703
I1
sS'Soumyabrata Pal'
p3704
I1
sS'Chang Xu'
p3705
I1
sS'Koray Kavukcuoglu'
p3706
I12
sS'Nick Chater'
p3707
I1
sS'Alex Wong'
p3708
I1
sS'Parameswaran Kamalaruban'
p3709
I1
sS'Venkatesh Saligrama'
p3710
I8
sS'Carla P. Gomes'
p3711
I4
sS'Shlomo Zilberstein'
p3712
I4
sS'Moein Falahatgar'
p3713
I3
sS'Jinwei Gu'
p3714
I1
sS'Ryan M. Rogers'
p3715
I3
sS'Boyue Li'
p3716
I1
sS'Xin Wang'
p3717
I2
sS'Biljana Petreska'
p3718
I2
sS'Filip De Turck'
p3719
I2
sS'Chong Wang'
p3720
I8
sS'Ali Rahimi'
p3721
I4
sS'Satinder P. Singh'
p3722
I6
sS'Xavier Muller'
p3723
I1
sS'Joon Hee Han'
p3724
I1
sS'Joris M. Mooij'
p3725
I7
sS'Zhen Liu'
p3726
I1
sS'Toshiyuki Ishii'
p3727
I1
sS'Art B. Owen'
p3728
I1
sS'Michael G. Madden'
p3729
I1
sS'Elad Gilboa'
p3730
I1
sS'David P. Reichert'
p3731
I3
sS'Guang Wei Yu'
p3732
I1
sS'Siddharth Narayanaswamy'
p3733
I1
sS'Piotr Doll\xc3\xa1r'
p3734
I2
sS'Thomas Furmston'
p3735
I1
sS'Jascha Sohl-Dickstein'
p3736
I5
sS'Matthieu Guillaumin'
p3737
I1
sS'Andrea Giovannucci'
p3738
I1
sS'Lee H. Dicker'
p3739
I2
sS'Niladri S. Chatterji'
p3740
I1
sS'Tsuyoshi Id\xc3\xa9'
p3741
I1
sS'Kazuya Ishibashi'
p3742
I1
sS'Ke Tang'
p3743
I2
sS'Theodoros Tsiligkaridis'
p3744
I1
sS'Wei Han'
p3745
I1
sS'Ronny Luss'
p3746
I2
sS'Patrick Putzky'
p3747
I1
sS'David G. Andersen'
p3748
I1
sS'Esther Salazar'
p3749
I1
sS'Manuel Gomez-Rodriguez'
p3750
I5
sS'Tyler B. Johnson'
p3751
I1
sS'Ulugbek Kamilov'
p3752
I1
sS'Rasmus Kyng'
p3753
I1
sS'Allison Chang'
p3754
I1
sS'Julian John McAuley'
p3755
I2
sS'Yen-Chi Chen'
p3756
I2
sS'Moritz Grosse-Wentrup'
p3757
I1
sS'Cheston Tan'
p3758
I1
sS'Yi Gu'
p3759
I1
sS'Wei Liu 0005'
p3760
I1
sS'Robert J. Peters'
p3761
I1
sS'Jing Xu'
p3762
I1
sS'Anh Nguyen'
p3763
I1
sS'Gleb Gusev'
p3764
I2
sS'Rajesh P. N. Rao'
p3765
I3
sS'Anuj Srivastava'
p3766
I1
sS'David Grangier'
p3767
I3
sS'Kritika Muralidharan'
p3768
I1
sS'Ke Hou'
p3769
I1
sS'Sergey Feldman'
p3770
I1
sS'Jorge Batista'
p3771
I1
sS'Dan C. Ciresan'
p3772
I1
sS'John J. Hopfield'
p3773
I1
sS'Dinh Q. Phung'
p3774
I3
sS'Morteza Alamgir'
p3775
I2
sS'Ishaan Gulrajani'
p3776
I1
sS'Matthieu Kowalski'
p3777
I1
sS'Guoqiang Yu'
p3778
I1
sS'Olga Klopp'
p3779
I1
sS'Jeremiah Liu'
p3780
I1
sS'Honglak Lee'
p3781
I14
sS'Robert Bamler'
p3782
I1
sS'Marek Petrik'
p3783
I4
sS'Shay Moran'
p3784
I2
sS'Yi Hao'
p3785
I1
sS'S\xc3\xb8ren Dahlgaard'
p3786
I1
sS'Chao Qian'
p3787
I2
sS'Kevin D. Tang'
p3788
I1
sS'Ryan Williamson'
p3789
I1
sS'Tim Genewein'
p3790
I1
sS'Ashwin Vishwanathan'
p3791
I1
sS'Zhi-Li Zhang'
p3792
I1
sS'Daniel Lowd'
p3793
I1
sS'Alexander G. Gray'
p3794
I8
sS'Cengiz Pehlevan'
p3795
I1
sS'Jin-Hwa Kim'
p3796
I2
sS'Luc Van Gool'
p3797
I2
sS'Andrew Y. Ng'
p3798
I18
sS'Yudong Chen'
p3799
I3
sS'Jean-Yves Audibert'
p3800
I2
sS'Ethan X. Fang'
p3801
I1
sS'Kuan Liu'
p3802
I1
sS'Yanbo Fan'
p3803
I1
sS'Abhimanyu Das'
p3804
I1
sS'Gang Wang 0014'
p3805
I1
sS'Guangzhi Cao'
p3806
I1
sS'Cesar F. Caiafa'
p3807
I2
sS'Aditi Raghunathan'
p3808
I1
sS'Michael A. Osborne'
p3809
I4
sS'R\xc3\xb3bert Busa-Fekete'
p3810
I2
sS'S\xc3\xb6ren Pirk'
p3811
I1
sS'Kun Zhang'
p3812
I1
sS'Jan Homann'
p3813
I1
sS'Ashia C. Wilson'
p3814
I2
sS'S\xc3\xb8ren Hauberg'
p3815
I2
sS'Ashwin A. Kannan'
p3816
I1
sS'Feras Saad'
p3817
I1
sS'Lu Ren'
p3818
I3
sS'Yuan Yao'
p3819
I1
sS'Yang Yu 0001'
p3820
I2
sS'Heishiro Kanagawa'
p3821
I1
sS'Konrad P. K\xc3\xb6rding'
p3822
I4
sS'Teodor Mihai Moldovan'
p3823
I1
sS'Philip N. Sabes'
p3824
I1
sS'Nicholas J. Glattard'
p3825
I1
sS'Sirish K. Nandyala'
p3826
I1
sS'Yousef Saad'
p3827
I2
sS'Catalin Ionescu'
p3828
I1
sS'Victor Bapst'
p3829
I1
sS'Tianxi Li'
p3830
I1
sS'Yang Wang'
p3831
I1
sS'Jeremy Reynolds'
p3832
I1
sS'Assane Gueye'
p3833
I1
sS'Daniel E. Acu\xc3\xb1a'
p3834
I1
sS'Mathieu Blondel'
p3835
I3
sS'Aris Anagnostopoulos'
p3836
I1
sS'Yasuhiro Tsubo'
p3837
I1
sS'Jens Kober'
p3838
I2
sS'Andrew B. Goldberg'
p3839
I1
sS'Vicky Froyen'
p3840
I1
sS'Miles Lopes'
p3841
I2
sS'Chuan-Sheng Foo'
p3842
I1
sS'Alexander Vergara'
p3843
I1
sS'Yiming Wang'
p3844
I1
sS'Siavash Arjomand Bigdeli'
p3845
I1
sS'Sercan \xc3\x96mer Arik'
p3846
I1
sS'Jianan Li'
p3847
I1
sS'Rama Natarajan'
p3848
I1
sS'Jiaming Xu'
p3849
I2
sS'Thomas Naselaris'
p3850
I1
sS'Victor S. Lempitsky'
p3851
I4
sS'Shaona Ghosh'
p3852
I1
sS'Somdeb Sarkhel'
p3853
I2
sS'David S. Choi'
p3854
I1
sS'Junhua Mao'
p3855
I3
sS'Miles Osborne'
p3856
I1
sS'Zhe Gan'
p3857
I7
sS'Martin Mundhenk'
p3858
I1
sS'Thanh T. Ngo'
p3859
I1
sS'Vin\xc3\xadcius Flores Zambaldi'
p3860
I2
sS'Akash Srivastava'
p3861
I1
sS'Eric Horvitz'
p3862
I2
sS'Meisam Razaviyayn'
p3863
I3
sS'Yongzhen Huang'
p3864
I1
sS'Dimitris N. Metaxas'
p3865
I1
sS'Yen-Yu Lin'
p3866
I1
sS'Benjamin Blankertz'
p3867
I3
sS'M. Sevi Baltaoglu'
p3868
I1
sS'Yue Gu'
p3869
I1
sS'Amos J. Storkey'
p3870
I8
sS'Andrew G. Barto'
p3871
I4
sS'Yan Yan'
p3872
I1
sS'Diana Cai'
p3873
I1
sS'Shaobo Cui'
p3874
I1
sS'Hamed Pirsiavash'
p3875
I3
sS'Jonathon Shlens'
p3876
I1
sS'Huaxin Xiao'
p3877
I2
sS'Juvaria Tariq'
p3878
I1
sS'Yurii Nesterov'
p3879
I1
sS'Ramesh Johari'
p3880
I2
sS'Kobbi Nissim'
p3881
I1
sS'Aviv Tamar'
p3882
I5
sS'Qiang Liu'
p3883
I2
sS'Asa Ben-Hur'
p3884
I1
sS'Ningyi Xu'
p3885
I1
sS'Xiaodong Cui'
p3886
I1
sS'Kuzman Ganchev'
p3887
I2
sS'Eli Gutin'
p3888
I1
sS'Lars M. Mescheder'
p3889
I1
sS'Matthew A. Kayala'
p3890
I1
sS'Garth A. Gibson'
p3891
I2
sS'Krishnakumar Balasubramanian'
p3892
I1
sS'Yu Liu'
p3893
I2
sS'Maxim Raginsky'
p3894
I4
sS'Lorenzo Rosasco'
p3895
I14
sS'Jimei Yang'
p3896
I4
sS'Matthew A. Smith'
p3897
I2
sS'Ali Mousavi'
p3898
I1
sS'Rolf Pohmann'
p3899
I1
sS'George A. Alvarez'
p3900
I1
sS'Ankani Chattoraj'
p3901
I1
sS'Nan Jiang'
p3902
I1
sS'Xiang Yan'
p3903
I1
sS'M\xc3\xa1rton Dan\xc3\xb3czy'
p3904
I1
sS'Arkadev Chattopadhyay'
p3905
I1
sS'Deep Ganguli'
p3906
I1
sS'Lam Si Tung Ho'
p3907
I1
sS'Quoc Tran-Dinh'
p3908
I3
sS'Jianmin Li'
p3909
I1
sS'Pietro Berkes'
p3910
I4
sS'Seyoung Kim'
p3911
I3
sS'Mahdi Milani Fard'
p3912
I5
sS'Gertjan J. Burghouts'
p3913
I1
sS'Brian Caffo'
p3914
I1
sS'Gabriele Beate Schweikert'
p3915
I1
sS'Tomer Koren'
p3916
I9
sS'Alon Zweig'
p3917
I1
sS'Patrick Gallinari'
p3918
I2
sS'Michael Hauser'
p3919
I1
sS'Maneesh Bhand'
p3920
I1
sS'Per B. Sederberg'
p3921
I1
sS'Marc Lelarge'
p3922
I3
sS'Jennifer Hobbs'
p3923
I1
sS'Roy Frostig'
p3924
I2
sS'Qiang Li'
p3925
I1
sS'Yan Yang'
p3926
I1
sS'Zoubin Ghahramani'
p3927
I23
sS'Kenneth Ward Church'
p3928
I1
sS'Yan Wang'
p3929
I1
sS'JungWoo Ha'
p3930
I1
sS'Aditya Ramesh'
p3931
I1
sS'Tian Xia'
p3932
I1
sS'Maxime Sangnier'
p3933
I1
sS'Georges Goetz'
p3934
I1
sS'Christopher H. Stock'
p3935
I1
sS'Jianfei Chen 0001'
p3936
I1
sS'Evgeniya Ustinova'
p3937
I1
sS'Ji He'
p3938
I2
sS'Pratik Jawanpuria'
p3939
I1
sS'Kinjal Basu'
p3940
I1
sS'Mert Pilanci'
p3941
I1
sS'Karen A. Glocer'
p3942
I1
sS'Denny Zhou'
p3943
I1
sS'Angela J. Yu'
p3944
I6
sS'Feicheng Wang'
p3945
I1
sS'Arash Vahdat'
p3946
I3
sS'Jinzhuo Wang'
p3947
I1
sS'Gilbert Leung'
p3948
I1
sS'Alfred O. Hero III'
p3949
I4
sS'Kaiming He'
p3950
I2
sS'Aleksandrs Slivkins'
p3951
I2
sS'Andreas C. Damianou'
p3952
I1
sS'Hanqing Lu'
p3953
I1
sS'Stefan Mihalas'
p3954
I1
sS'Mark D. Humphries'
p3955
I1
sS'Christian H\xc3\xa4ne'
p3956
I1
sS'Stefano Leonardi'
p3957
I1
sS'Liam Paninski'
p3958
I14
sS'Kshitij Khare'
p3959
I1
sS'Sungeun Kim'
p3960
I1
sS'Elad Hazan'
p3961
I18
sS'Michael Bryant 0002'
p3962
I1
sS'Hyokun Yun'
p3963
I1
sS'Antoine Bordes'
p3964
I3
sS'Jose M. Alvarez'
p3965
I2
sS'Dan Suciu'
p3966
I1
sS'Harsh H. Pareek'
p3967
I1
sS'Frederic Besse'
p3968
I1
sS'Robert A. Legenstein'
p3969
I4
sS'Tri Dao'
p3970
I1
sS'William T. B. Uther'
p3971
I1
sS'Scott W. Linderman'
p3972
I3
sS'Hongseok Namkoong'
p3973
I2
sS'Ramesh Hariharan'
p3974
I1
sS'Patrick O. Perry'
p3975
I1
sS'Don Towsley'
p3976
I1
sS'Kaizhu Huang'
p3977
I1
sS'Qian Yu'
p3978
I1
sS'Shengbo Guo'
p3979
I2
sS'Michael L. Littman'
p3980
I3
sS'Bing Bai'
p3981
I2
sS'Xuming He'
p3982
I2
sS'Alexander Vezhnevets'
p3983
I1
sS'Yang You'
p3984
I1
sS'Galen Andrew'
p3985
I1
sS'Jimmy S. J. Ren'
p3986
I2
sS'Lihong Li 0001'
p3987
I6
sS'Matteo Pirotta'
p3988
I4
sS'Jongmin Kim'
p3989
I1
sS'Junichiro Hirayama'
p3990
I1
sS'Boris S. Gutkin'
p3991
I2
sS'Joseph J. Lim'
p3992
I3
sS'Dawen Cai'
p3993
I1
sS'Bryan C. Russell'
p3994
I3
sS'Charles Blundell'
p3995
I6
sS'Alex Fout'
p3996
I1
sS'Ardavan Saeedi'
p3997
I2
sS'Odelia Schwartz'
p3998
I1
sS'Brendan van Rooyen'
p3999
I1
sS'Mainak Jas'
p4000
I1
sS'Leonardo Jost'
p4001
I1
sS'Vojtech Kovar\xc3\xadk'
p4002
I1
sS'Edward Chang'
p4003
I1
sS'Kwabena Boahen'
p4004
I2
sS'William Hoiles'
p4005
I1
sS'Albert Xin Jiang'
p4006
I2
sS'Xiao Chu'
p4007
I1
sS'Alexander Berardino'
p4008
I1
sS'Vamsi K. Ithapu'
p4009
I2
sS'Jakob N. Foerster'
p4010
I1
sS'Jeffrey A. Kaye'
p4011
I1
sS'Pedro F. Felzenszwalb'
p4012
I2
sS'Roderich Gross'
p4013
I1
sS'Amr Ahmed'
p4014
I1
sS'Mehdi Sajjadi'
p4015
I1
sS'Eric Wang'
p4016
I1
sS'Jonathan Zung'
p4017
I1
sS'Ryosuke Matsushita'
p4018
I1
sS'Mikhail Belkin'
p4019
I10
sS'Giovanni Cavallanti'
p4020
I1
sS'Andrew Smith'
p4021
I1
sS'Peter Gr\xc3\xbcnwald'
p4022
I2
sS'Lars Kai Hansen'
p4023
I3
sS'Gopal Santhanam'
p4024
I2
sS'Ryan Kiros'
p4025
I4
sS'Mark K. Ho'
p4026
I1
sS'D\xc3\xa1vid P\xc3\xa1l'
p4027
I4
sS'C\xc3\xa9line L\xc3\xa9vy-Leduc'
p4028
I1
sS'Imdadullah Khan'
p4029
I1
sS'Subhaneil Lahiri'
p4030
I2
sS'Xiaojin Zhu 0001'
p4031
I9
sS'Jian Peng'
p4032
I1
sS'Jean-Baptiste Poline'
p4033
I2
sS'Daniel Khashabi'
p4034
I1
sS'Paul F. Christiano'
p4035
I1
sS'Emmanuel J. Cand\xc3\xa8s'
p4036
I2
sS'Thomas Unterthiner'
p4037
I3
sS'Z. Irene Ying'
p4038
I1
sS'Junhyuk Oh'
p4039
I2
sS'Richard P. Wildes'
p4040
I1
sS'James Glass'
p4041
I1
sS'Peter Kontschieder'
p4042
I1
sS'Farhad Kamangar'
p4043
I1
sS'Kustaa Kangas'
p4044
I1
sS'\xc3\x96zlem Aslan'
p4045
I3
sS'Kareem Amin'
p4046
I4
sS'Gerald Tesauro'
p4047
I1
sS'Jens Lagergren'
p4048
I1
sS'Martin Zinkevich'
p4049
I6
sS'Lyle J. Palmer'
p4050
I1
sS'Si Si'
p4051
I2
sS'Giulia DeSalvo'
p4052
I1
sS'Ian D. Reid 0001'
p4053
I3
sS'Farshad Lahouti'
p4054
I1
sS'Paul Sajda'
p4055
I1
sS'Qiuhua Liu'
p4056
I1
sS'Zhen-Zhong Lan'
p4057
I1
sS'Stephen J. Roberts'
p4058
I2
sS'James Schummers'
p4059
I1
sS'Sanjiban Choudhury'
p4060
I1
sS'Jude W. Shavlik'
p4061
I1
sS'Dashan Gao'
p4062
I1
sS'Michel Gendreau'
p4063
I1
sS'Sophie L\xc3\xa8bre'
p4064
I1
sS'Nitish Srivastava'
p4065
I3
sS'Zahra Zamani'
p4066
I1
sS'Tobias Scheffer'
p4067
I6
sS'Arturo Deza'
p4068
I1
sS'Pramod Kaushik Mudrakarta'
p4069
I1
sS'Gregory Valiant'
p4070
I5
sS'Jacob Feldman'
p4071
I1
sS'Seung-Taek Park'
p4072
I1
sS'Jie Shen'
p4073
I2
sS'Lu\xc3\xads Paulo Reis'
p4074
I1
sS'Shane Griffith'
p4075
I1
sS'Elaine A. Corbett'
p4076
I1
sS'Jennifer Iglesias'
p4077
I1
sS'Kevin Waugh'
p4078
I2
sS'Liang Lin'
p4079
I2
sS'Zeshan Hussain'
p4080
I1
sS'Matan Gavish'
p4081
I1
sS'Kai Zhong'
p4082
I5
sS'Antonio Criminisi'
p4083
I3
sS'Mohamed-Jalal Fadili'
p4084
I1
sS'Mingjun Zhong'
p4085
I2
sS'Joni Pajarinen'
p4086
I1
sS'Ted Sandler'
p4087
I1
sS'Junyoung Chung'
p4088
I2
sS'Nagarajan Natarajan'
p4089
I5
sS'Lijie Fan'
p4090
I1
sS'Ana Maria Tom\xc3\xa9'
p4091
I1
sS'Am\xc3\xa9lie H\xc3\xa9liou'
p4092
I1
sS'Kevin Robert Canini'
p4093
I3
sS'Sabri Boutemedjet'
p4094
I1
sS'Yuting Liu'
p4095
I1
sS'Yuliang Zou'
p4096
I1
sS'Girish Chowdhary'
p4097
I1
sS'Dehong Liu'
p4098
I1
sS'S. V. N. Vishwanathan'
p4099
I8
sS'Gonzalo Carvajal'
p4100
I1
sS'Cassio Polpo de Campos'
p4101
I5
sS'Andreas Kaltenbrunner'
p4102
I1
sS'Kristian Kersting'
p4103
I2
sS'Kun Gai'
p4104
I1
sS'Pascal Frossard'
p4105
I1
sS'Uri Stemmer'
p4106
I1
sS'Jason Pacheco'
p4107
I1
sS'Ijaz Akhter'
p4108
I1
sS'Edouard Klein'
p4109
I1
sS'Ruitong Huang'
p4110
I1
sS'Nilesh Tripuraneni'
p4111
I1
sS'Aravindan Vijayaraghavan'
p4112
I2
sS'Mingbo Cai'
p4113
I1
sS'Jianfeng Gao'
p4114
I1
sS'Yang Song'
p4115
I2
sS'Mert G\xc3\xbcrb\xc3\xbczbalaban'
p4116
I1
sS'Joseph L. Austerweil'
p4117
I6
sS'Luke Hornof'
p4118
I1
sS'Li Deng'
p4119
I4
sS'Andrew Stevens'
p4120
I1
sS'Jessica Taylor'
p4121
I1
sS'Aude Oliva'
p4122
I4
sS'Abram L. Friesen'
p4123
I2
sS'Lin Xiong'
p4124
I1
sS'Kaushik Mitra'
p4125
I1
sS'Xun Zheng'
p4126
I2
sS'Daniel Jin hao Chia'
p4127
I1
sS'R\xc3\xa9mi Flamary'
p4128
I3
sS'Florian Meier'
p4129
I1
sS'Brooks Paige'
p4130
I3
sS'Ivan Petej'
p4131
I1
sS'Gonzalo Mart\xc3\xadnez-Mu\xc3\xb1oz'
p4132
I1
sS'Christos Boutsidis'
p4133
I4
sS'Guang Dai'
p4134
I1
sS'Eui Chul Richard Shin'
p4135
I1
sS'Chang Liu'
p4136
I2
sS'Hoifung Poon'
p4137
I1
sS'Andrea Lecchini-Visintini'
p4138
I1
sS'Stefan Magureanu'
p4139
I1
sS'Zhifeng Chen'
p4140
I1
sS'Pablo Mus\xc3\xa9'
p4141
I2
sS'Joseph Schlecht'
p4142
I1
sS'Kevin Swersky'
p4143
I4
sS'Ben Raichel'
p4144
I1
sS'Alexander Shishkin'
p4145
I1
sS'Y. Cem S\xc3\xbcbakan'
p4146
I1
sS'Soumya Ghosh'
p4147
I2
sS'Gabriel Peyr\xc3\xa9'
p4148
I5
sS'Christina E. Lee'
p4149
I3
sS'Love Cederstroem'
p4150
I1
sS'Thomas B\xc3\xbchler'
p4151
I1
sS'Daniel A. Braun'
p4152
I1
sS'Michael Jae-Yoon Chung'
p4153
I1
sS'Karan Singh'
p4154
I1
sS'Arif Zaman'
p4155
I1
sS'Shameem Puthiya Parambath'
p4156
I1
sS'Bibaswan K. Chatterjee'
p4157
I1
sS'Stefano Ermon'
p4158
I10
sS'Himabindu Lakkaraju'
p4159
I1
sS'Dan F. M. Goodman'
p4160
I1
sS'Shoou-I Yu'
p4161
I1
sS'Greg Van Buskirk'
p4162
I1
sS'Shihab A. Shamma'
p4163
I1
sS'Zhiao Huang'
p4164
I1
sS'Marcel Nassar'
p4165
I1
sS'Olgica Milenkovic'
p4166
I1
sS'Jean-Fran\xc3\xa7ois Crespo'
p4167
I1
sS'Justin Romberg'
p4168
I1
sS'Hado P. van Hasselt'
p4169
I3
sS'Ara Vartanian'
p4170
I1
sS'Joost van de Weijer'
p4171
I1
sS'Misha Ahrens'
p4172
I1
sS'Karl Rohe'
p4173
I2
sS'Viet-An Nguyen'
p4174
I2
sS'Walid Krichene'
p4175
I4
sS'Aapo Hyv\xc3\xa4rinen'
p4176
I2
sS'Anna Koop'
p4177
I1
sS'Fredrik D. Johansson'
p4178
I1
sS'Yasuo Kuniyoshi'
p4179
I1
sS'Xiaoqin Zhang'
p4180
I1
sS'Amir Hesam Salavati'
p4181
I1
sS'Sriram Vishwanath'
p4182
I1
sS'Karol Hausman'
p4183
I1
sS'Juho Rousu'
p4184
I1
sS'Jana Schaich Borg'
p4185
I2
sS'Karl Tuyls'
p4186
I2
sS'Peilin Zhao'
p4187
I1
sS'Pierre-Yves Oudeyer'
p4188
I1
sS'Wentai Liu'
p4189
I2
sS'Andrzej Cichocki'
p4190
I2
sS'Jonathan Raiman'
p4191
I1
sS'Bertram E. Shi'
p4192
I2
sS'Gautam Sargur'
p4193
I1
sS'Andrew J. Saykin'
p4194
I2
sS'Sterling C. Johnson'
p4195
I4
sS'Saurabh Paul'
p4196
I1
sS'Lei Guo 0002'
p4197
I1
sS'John F. Canny'
p4198
I1
sS'Benjamin Yackley'
p4199
I1
sS'Rajat Sen'
p4200
I2
sS'Jingyu Shao'
p4201
I1
sS'Lu\xc3\xads Seabra Lopes'
p4202
I1
sS'Xiaoming Huo'
p4203
I1
sS'Xu Jia'
p4204
I2
sS'Akinori Fujino'
p4205
I1
sS'Yonina C. Eldar'
p4206
I1
sS'Mehul Parsana'
p4207
I1
sS'Vu Nguyen'
p4208
I1
sS'Sivan Sabato'
p4209
I6
sS'Se-Young Yun'
p4210
I3
sS'Sebastian Riedel 0001'
p4211
I2
sS'Jianying Hu'
p4212
I1
sS'Chenlei Leng'
p4213
I5
sS'Alberto Bietti'
p4214
I2
sS'Xiongtao Chen'
p4215
I1
sS'Gemma Roig'
p4216
I2
sS'Konstantinos I. Tsianos'
p4217
I1
sS'Christian Walder'
p4218
I2
sS'Munther A. Dahleh'
p4219
I1
sS'Agnieszka Grabska-Barwinska'
p4220
I2
sS'Vibhor Rastogi'
p4221
I1
sS'Yvan Paquot'
p4222
I1
sS'Arindam Banerjee'
p4223
I13
sS'Smitha Milli'
p4224
I1
sS'Daxue Liu'
p4225
I1
sS'Jason Yosinski'
p4226
I3
sS'Nicolas Chapados'
p4227
I1
sS'Stuart J. Russell'
p4228
I7
sS'Angela Yao'
p4229
I1
sS'Nicholas J. Foti'
p4230
I2
sS'Robert E. Tillman'
p4231
I2
sS'Mitchell Stern'
p4232
I2
sS'Thomas Breuel'
p4233
I1
sS'Stefan Lee'
p4234
I1
sS'Christopher A. Metzler'
p4235
I1
sS'Qing Sun'
p4236
I1
sS'Cosma Rohilla Shalizi'
p4237
I1
sS'Wei Wang 0028'
p4238
I1
sS'Yusuke Fujiwara'
p4239
I1
sS'Wei Wang 0025'
p4240
I1
sS'Li Shen 0001'
p4241
I1
sS'Iain Melvin'
p4242
I1
sS'Andr\xc3\xa1s Gy\xc3\xb6rgy'
p4243
I5
sS'Joshua R. Loftus'
p4244
I2
sS'Jeffrey Pennington'
p4245
I4
sS'Kannan Ramchandran'
p4246
I2
sS'Ashkan Jafarpour'
p4247
I1
sS'Mohammad Mahdian'
p4248
I1
sS'\xc3\x96zg\xc3\xbcr S\xc3\xbcmer'
p4249
I1
sS'Jaehyun Jun'
p4250
I1
sS'Fabian Triefenbach'
p4251
I1
sS'Hanna M. Wallach'
p4252
I4
sS'Cheng Li'
p4253
I1
sS'Yuanyuan Mi'
p4254
I2
sS'Michael J. Paul'
p4255
I1
sS'Andreas Krause 0001'
p4256
I25
sS'Ashish Vaswani'
p4257
I1
sS'Thomas S. Huang'
p4258
I3
sS'Jan Gasthaus'
p4259
I2
sS'Shinsuke Koyama'
p4260
I1
sS'James Saunderson'
p4261
I1
sS'Jingwen Yan'
p4262
I1
sS'Guangming Shi'
p4263
I1
sS'Sen Wu 0002'
p4264
I1
sS'Kun Yang'
p4265
I1
sS'James A. Arnemann'
p4266
I1
sS'Rodolphe Jenatton'
p4267
I3
sS'Yaniv Tenzer'
p4268
I1
sS'Dan Xu'
p4269
I1
sS'Philip S. Thomas'
p4270
I5
sS'Max Jaderberg'
p4271
I3
sS'Bryan Russell'
p4272
I1
sS'Bhaskara Marthi'
p4273
I1
sS'Tianming Liu'
p4274
I1
sS'Martin Allen'
p4275
I1
sS'Bo Xin'
p4276
I2
sS'Aur\xc3\xa9lien Bellet'
p4277
I3
sS'Yanjun Qi'
p4278
I3
sS'Vincent Michalski'
p4279
I1
sS'Marcello Restelli'
p4280
I6
sS'Jonathan Huang'
p4281
I4
sS'Ricardo Silva'
p4282
I6
sS'Denis Nekipelov'
p4283
I1
sS'Yuri Boykov'
p4284
I1
sS'Zhaohui Zheng'
p4285
I1
sS'He Wang 0004'
p4286
I2
sS'Jake V. Bouvrie'
p4287
I2
sS'Susan A. Murphy'
p4288
I1
sS'Bohyung Han'
p4289
I4
sS'Grzegorz Swirszcz'
p4290
I2
sS'Jeff M. Phillips'
p4291
I1
sS'Blake Mason'
p4292
I1
sS'Hsiao-Yu Tung'
p4293
I1
sS'Hang Li'
p4294
I5
sS'Tobias Lang 0001'
p4295
I1
sS'Jamie Hayes'
p4296
I1
sS'Hedvig Kjellstr\xc3\xb6m'
p4297
I1
sS'Adam Santoro'
p4298
I1
sS'Oliver Spatscheck'
p4299
I1
sS'Shuo-Yen Robert Li'
p4300
I1
sS'David Kempe 0001'
p4301
I2
sS'Eric Reiman'
p4302
I2
sS'Arjun Jain'
p4303
I1
sS'Vladislav Voroninski'
p4304
I1
sS'Fangjian Guo'
p4305
I1
sS'George Michailidis'
p4306
I1
sS'Trung Thanh Nguyen 0005'
p4307
I1
sS'Qi Meng'
p4308
I2
sS'Ekaterina Tikhoncheva'
p4309
I1
sS'Qilong Gu'
p4310
I1
sS'Babak Shakibi'
p4311
I1
sS'Francesco Caltagirone'
p4312
I1
sS'Quaid Morris'
p4313
I1
sS'Claire Vernade'
p4314
I1
sS'Sriraam Natarajan'
p4315
I1
sS'Charles Ruizhongtai Qi'
p4316
I2
sS'Sara Sabour'
p4317
I1
sS'Claire Monteleoni'
p4318
I3
sS'Anup Rao'
p4319
I1
sS'Fernando P\xc3\xa9rez-Cruz'
p4320
I4
sS'Robert A. Vandermeulen'
p4321
I1
sS'Jimin Song'
p4322
I1
sS'Travis Monk'
p4323
I1
sS'Dengyong Zhou'
p4324
I2
sS'Nicol\xc3\xa1s Della Penna'
p4325
I1
sS'Hyun Soo Park'
p4326
I1
sS'Athena Akrami'
p4327
I1
sS'Kenji Doya'
p4328
I1
sS'Daniel R. Cavagnaro'
p4329
I1
sS'Wojciech M. Czarnecki'
p4330
I2
sS'Xiao Fu 0001'
p4331
I1
sS'Ran Gilad-Bachrach'
p4332
I1
sS'Chao-Bing Song'
p4333
I1
sS'Jean-Baptiste Tristan'
p4334
I1
sS'Tim Roughgarden'
p4335
I3
sS'Greg Horwitz'
p4336
I1
sS'Robert Wilson'
p4337
I1
sS'Graham Neubig'
p4338
I2
sS'Allen Y. Yang'
p4339
I1
sS'Amirhossein Taghvaei'
p4340
I1
sS'Wenyuan Dai'
p4341
I1
sS'Huy L. Nguyen'
p4342
I3
sS'Shashank Singh 0005'
p4343
I3
sS'Emery N. Brown'
p4344
I1
sS'Peter J. Bickel'
p4345
I1
sS'Jiri Hron'
p4346
I1
sS'Tom Erez'
p4347
I2
sS'Sebastian Bitzer'
p4348
I1
sS'Roi Livni'
p4349
I4
sS'Xiaoping Chen'
p4350
I1
sS'Andrew An Bian'
p4351
I1
sS'Po-Ling Loh'
p4352
I5
sS'Hilbert J. Kappen'
p4353
I3
sS'Gr\xc3\xa9goire Montavon'
p4354
I3
sS'Yaroslav Ganin'
p4355
I1
sS'Benjamin Thyreau'
p4356
I1
sS'Alessandro Verri'
p4357
I1
sS'Alexandre Lacasse'
p4358
I1
sS'Kevin P. Murphy'
p4359
I4
sS'E. J. Chichilnisky'
p4360
I4
sS'Shengjie Wang'
p4361
I1
sS'Luca Ambrogioni'
p4362
I1
sS'Devarajan Sridharan'
p4363
I2
sS'Koby Crammer'
p4364
I10
sS'Philipp Berens'
p4365
I3
sS'Sean R. Meyn'
p4366
I1
sS'Walter Dempsey'
p4367
I1
sS'Yonatan Geifman'
p4368
I1
sS'Xi Jiang'
p4369
I1
sS'Dillon Laird'
p4370
I1
sS'Brendan J. Frey'
p4371
I7
sS'Matthias Hein'
p4372
I1
sS'Lasse Espeholt'
p4373
I2
sS'L. F. Abbott'
p4374
I1
sS'Paul A. Tucker'
p4375
I1
sS'Bradley C. Love'
p4376
I1
sS'Keith W. Forsythe'
p4377
I1
sS'Adam R. Kosiorek'
p4378
I1
sS'Kira Poskanzer'
p4379
I1
sS'Nitesh Shroff'
p4380
I1
sS'Jianbo Shi'
p4381
I2
sS'Anand D. Sarwate'
p4382
I2
sS'Jianfei Chen'
p4383
I1
sS'Kwang In Kim'
p4384
I1
sS'Junyuan Xie'
p4385
I1
sS'Matthew Coudron'
p4386
I1
sS'Alex Flint'
p4387
I1
sS'Celestine D\xc3\xbcnner'
p4388
I1
sS'Ko-Jen Hsiao'
p4389
I1
sS'Guangyu Zhong'
p4390
I1
sS'Ke Sun 0001'
p4391
I1
sS'Masayuki Karasuyama'
p4392
I3
sS'Stefan Chmiela'
p4393
I1
sS'Pavel Serdyukov'
p4394
I1
sS'Divyanshu Vats'
p4395
I1
sS'Juho Lee'
p4396
I2
sS'Dilip Krishnan'
p4397
I3
sS'Petros Drineas'
p4398
I5
sS'Hartmut Neven'
p4399
I1
sS'Ben H. Williams'
p4400
I1
sS'Sergio Gomez Colmenarejo'
p4401
I1
sS'Benjamin D. Singer'
p4402
I1
sS'Mo Yu'
p4403
I2
sS'Hao Cheng'
p4404
I1
sS'Roman Garnett'
p4405
I5
sS'Mayank Kabra'
p4406
I1
sS'Jonathan Ho'
p4407
I2
sS'Ritambhara Singh'
p4408
I1
sS'Tomaso A. Poggio'
p4409
I9
sS'Kevin Winner'
p4410
I1
sS'Raif M. Rustamov'
p4411
I1
sS'Trapit Bansal'
p4412
I1
sS'Jaldert O. Rombouts'
p4413
I2
sS'Eric K. Garcia'
p4414
I1
sS'Ziming Zhang'
p4415
I2
sS'David A. Forsyth'
p4416
I3
sS'Ian J. Goodfellow'
p4417
I5
sS'Fran\xc3\xa7ois-Xavier Briol'
p4418
I2
sS'Sham M. Kakade'
p4419
I13
sS'Richard G. Baraniuk'
p4420
I6
sS'Yunlong He'
p4421
I1
sS'Gautam Kunapuli'
p4422
I1
sS'Christopher Srinivasa'
p4423
I1
sS'Gautam Arakalgud'
p4424
I1
sS'Sourish Chaudhuri'
p4425
I1
sS'Cong Han Lim'
p4426
I2
sS'Fran\xc3\xa7ois B. Vialatte'
p4427
I1
sS'Nicholas Boyd'
p4428
I1
sS'Brian Kulis'
p4429
I6
sS'Craig Boutilier'
p4430
I1
sS'Tuo Zhang'
p4431
I1
sS'Jonghwan Mun'
p4432
I1
sS'Siqi Sun'
p4433
I1
sS'Liwei Wang 0001'
p4434
I5
sS'Jir\xc3\xad Simsa'
p4435
I1
sS'Liwei Wang 0009'
p4436
I1
sS'Fang Zhao 0006'
p4437
I1
sS'Gregory Frederick Diamos'
p4438
I1
sS'Jeff Clune'
p4439
I2
sS'David Szepesvari'
p4440
I1
sS'Samantha Major'
p4441
I1
sS'Patrick L. Purdon'
p4442
I1
sS'Hongyuan Zha'
p4443
I10
sS'Sirui Yao'
p4444
I1
sS'Ian R. Fasel'
p4445
I1
sS'Jan Vondrak'
p4446
I1
sS'Ga\xc3\xabl Varoquaux'
p4447
I6
sS'Marie Chupin'
p4448
I1
sS'Allen I. Selverston'
p4449
I1
sS'Cun-Hui Zhang'
p4450
I4
sS'Richard Maclin'
p4451
I1
sS'Marie Chavent'
p4452
I1
sS'Abbas Edalat'
p4453
I1
sS'Leonid Boytsov'
p4454
I1
sS'Jean Pouget-Abadie'
p4455
I1
sS'Xianjie Chen'
p4456
I1
sS'Andrew Forney'
p4457
I1
sS'Ralf Herbrich'
p4458
I1
sS'Adam M. Packer'
p4459
I3
sS'R\xc3\xa9mi Lemonnier'
p4460
I2
sS'Felix X. Yu'
p4461
I3
sS'Lloyd T. Elliott'
p4462
I2
sS'Xin Yuan'
p4463
I2
sS'Duy Nguyen-Tuong'
p4464
I1
sS'Srikrishna Sridhar'
p4465
I1
sS'Rudolf Lioutikov'
p4466
I1
sS'Olivier Colliot'
p4467
I2
sS'Leonard Lausen'
p4468
I1
sS'Anthony M. Leonardo'
p4469
I1
sS'Anna Choromanska'
p4470
I3
sS'Tom Zahavy'
p4471
I1
sS'Tinne Tuytelaars'
p4472
I2
sS'Jeffrey O. Kephart'
p4473
I1
sS'Hannes Verschore'
p4474
I1
sS'Anshul Kundaje'
p4475
I1
sS'Bruno Conejo'
p4476
I1
sS'Martin J. Wainwright'
p4477
I25
sS'Daniel Stefankovic'
p4478
I1
sS'Ronald E. Parr'
p4479
I1
sS'Guoyin Wang'
p4480
I1
sS'Kyle Cranmer'
p4481
I1
sS'Philippe Lambin'
p4482
I1
sS'Michael J. Neely'
p4483
I1
sS'Makoto Otsuka'
p4484
I1
sS'Tom Y. Ouyang'
p4485
I1
sS'Si Wu'
p4486
I7
sS'Shandian Zhe'
p4487
I1
sS'Jacob Whitehill'
p4488
I1
sS'Chaitanya Ekanadham'
p4489
I3
sS'St\xc3\xa9phane Ross'
p4490
I3
sS'Matteo Ruffini'
p4491
I1
sS'Lev Faivishevsky'
p4492
I1
sS'Bj\xc3\xb6rn Ommer'
p4493
I2
sS'Eugenio Piasini'
p4494
I1
sS'Max Lin'
p4495
I1
sS'Tom\xc3\xa1s Kocisk\xc3\xbd'
p4496
I1
sS'Carl-Johann Simon-Gabriel'
p4497
I2
sS'Malik Magdon-Ismail'
p4498
I6
sS'Pan Zhang'
p4499
I1
sS'Aijun Bai'
p4500
I1
sS'Barnab\xc3\xa1s P\xc3\xb3czos'
p4501
I15
sS'Rahul Sukthankar'
p4502
I2
sS'Matthew D. Zeiler'
p4503
I1
sS'Bipin Suresh'
p4504
I1
sS'Utkarsh Porwal'
p4505
I1
sS'Zhen Cui'
p4506
I1
sS'Michael Kagan'
p4507
I1
sS'Sanjeev Arora'
p4508
I1
sS'Angelika Steger'
p4509
I1
sS'Yihua Li'
p4510
I1
sS'Prasoon Goyal'
p4511
I1
sS'Ming-Yu Liu 0001'
p4512
I2
sS'Jared Dunnmon'
p4513
I1
sS'Marcus Buckmann'
p4514
I1
sS'Nataliya Shapovalova'
p4515
I1
sS'Bo Xie 0002'
p4516
I3
sS'Wei Tan'
p4517
I1
sS'Marta Soare'
p4518
I1
sS'Pedro Martins 0004'
p4519
I1
sS'Florian T. Pokorny'
p4520
I1
sS'Mingxuan Sun'
p4521
I1
sS'Andrew Feng'
p4522
I1
sS'Yaara Yeshurun'
p4523
I1
sS'Bin Yu 0001'
p4524
I5
sS'Mohsen Bayati'
p4525
I3
sS'Nobuyuki Morioka'
p4526
I1
sS'Yi Zhou'
p4527
I1
sS'Changho Suh'
p4528
I1
sS'Vitaly Feldman'
p4529
I4
sS'Dilan G\xc3\xb6r\xc3\xbcr'
p4530
I3
sS'Mingda Qiao'
p4531
I1
sS'Sean F. Lawlor'
p4532
I1
sS'Vivek Rathod'
p4533
I1
sS'Dylan Hadfield-Menell'
p4534
I2
sS'Maryam Mahdaviani'
p4535
I1
sS'Greg Corrado'
p4536
I1
sS'Miroslav Dud\xc3\xadk'
p4537
I4
sS'St\xc3\xa9phane Marchand-Maillet'
p4538
I1
sS'Aran Nayebi'
p4539
I1
sS'Xiaojing Ye'
p4540
I3
sS'Charless C. Fowlkes'
p4541
I2
sS'Jie Zhou 0001'
p4542
I1
sS'Jason Xu'
p4543
I2
sS"Shin'ichi Satoh"
p4544
I1
sS'Daniel M. Steinberg'
p4545
I1
sS'J\xc3\xb3zsef Fiser'
p4546
I1
sS'Hiroki Arimura'
p4547
I1
sS'Payal Bajaj'
p4548
I1
sS'Yao Li'
p4549
I1
sS'Anselm Rothe'
p4550
I1
sS'Marine Depecker'
p4551
I1
sS'Longin Jan Latecki'
p4552
I5
sS'De-Chuan Zhan'
p4553
I1
sS'Hachem Kadri'
p4554
I2
sS'Zhijie Deng'
p4555
I1
sS'Iku Ohama'
p4556
I1
sS'Valentina Fedorova'
p4557
I1
sS'Li Yao'
p4558
I2
sS'Sean Welleck'
p4559
I1
sS'Pierre-Antoine Manzagol'
p4560
I1
sS'Isabeau Pr\xc3\xa9mont-Schwarz'
p4561
I1
sS'Enhong Chen'
p4562
I1
sS'Vladimir Vapnik'
p4563
I1
sS'Huan Li'
p4564
I1
sS'Diane Morabito'
p4565
I1
sS'Paul Lagr\xc3\xa9e'
p4566
I1
sS'Konstantin Makarychev'
p4567
I1
sS'Wojciech Kotlowski'
p4568
I2
sS'Thomas Euler'
p4569
I1
sS'Ilya P. Razenshteyn'
p4570
I2
sS'Jos\xc3\xa9 L. Torrecilla'
p4571
I1
sS'Lev Bogolubsky'
p4572
I1
sS'Michael Hirsch'
p4573
I1
sS'Chi Wang 0001'
p4574
I1
sS'Binh T. Nguyen'
p4575
I1
sS'Marco San-Biagio'
p4576
I1
sS'Yossiri Adulyasak'
p4577
I1
sS'Brian Percival'
p4578
I1
sS'Erkki Oja'
p4579
I2
sS'Song Han'
p4580
I1
sS'Kainan Peng'
p4581
I1
sS'Justin K. Romberg'
p4582
I1
sS'Paul G. Sanders'
p4583
I1
sS'Hairong Liu'
p4584
I1
sS'Sinead Williamson'
p4585
I2
sS'Zheng Zhao'
p4586
I1
sS'Debajyoti Ray'
p4587
I2
sS'Yan Largman'
p4588
I1
sS'Sandro Ridella'
p4589
I1
sS'Claudia Clopath'
p4590
I1
sS'Zhen Xu'
p4591
I1
sS'Matthias Kaschube'
p4592
I1
sS'Joseph K. Bradley'
p4593
I3
sS'Mohit Rajpal'
p4594
I1
sS'Jian Wang'
p4595
I1
sS'Ricardo Silveira Cabral'
p4596
I1
sS'Jonas Meinertz Hansen'
p4597
I1
sS'Nicholas Frosst'
p4598
I1
sS'Mali Sundaresan'
p4599
I1
sS'Yukihiro Tagami'
p4600
I1
sS'Ramesh Sridharan'
p4601
I1
sS'Afonso S. Bandeira'
p4602
I1
sS'Fei Chen'
p4603
I1
sS'John D. Simeral'
p4604
I1
sS'Falk Lieder'
p4605
I2
sS'Nan Rong'
p4606
I1
sS'Honglei Zhuang'
p4607
I1
sS'R\xc3\xa9mi Cuingnet'
p4608
I1
sS'Yarin Gal'
p4609
I5
sS'Ilya Sutskever'
p4610
I12
sS'Michael J. Wilber'
p4611
I1
sS'Victoria Manfredi'
p4612
I1
sS'Erik G. Learned-Miller'
p4613
I2
sS'Mingcheng Chen'
p4614
I1
sS'Oleg Grinchuk'
p4615
I1
sS'Marc Henniges'
p4616
I1
sS'Teresa Wu'
p4617
I2
sS'Anh Tuan Nguyen'
p4618
I1
sS'Zhiheng Huang'
p4619
I1
sS'Dillon Plunkett'
p4620
I1
sS'Matt Kaufman'
p4621
I1
sS'Takashi Takenouchi'
p4622
I1
sS'Rajkumar Vasudeva Raju'
p4623
I1
sS'Baback Moghaddam'
p4624
I1
sS'Gang Wang'
p4625
I1
sS'Chuanxin Minos Niu'
p4626
I1
sS'Benjamin J. Stephens'
p4627
I1
sS'Dogyoon Song'
p4628
I1
sS'Joshua B. Tenenbaum'
p4629
I15
sS'Manmohan Krishna Chandraker'
p4630
I1
sS'Weili Lin'
p4631
I1
sS'Yunwen Lei'
p4632
I1
sS'Dmitry Podoprikhin'
p4633
I1
sS'Michael A. Saunders'
p4634
I2
sS'Michael Shindler'
p4635
I1
sS'Jakob Uszkoreit'
p4636
I1
sS'Fereshteh Sadeghi'
p4637
I1
sS'Timothy Kopp'
p4638
I1
sS'Tamara L. Berg'
p4639
I1
sS'Alhussein Fawzi'
p4640
I1
sS'Robert Hannah'
p4641
I1
sS'Andrew W. Fitzgibbon'
p4642
I1
sS'Benjamin T. Rolfs'
p4643
I1
sS'Deepak Agarwal'
p4644
I2
sS'Matthew Joseph'
p4645
I1
sS'Moitreya Chatterjee'
p4646
I1
sS'Zhen He'
p4647
I1
sS'Chris H. Q. Ding'
p4648
I5
sS'Maarten de Rijke'
p4649
I1
sS'Alexandra Carpentier'
p4650
I6
sS'Daphna Weinshall'
p4651
I2
sS'Christopher R. Dance'
p4652
I1
sS'Daniel L. Yamins'
p4653
I1
sS'A. P. Sarath Chandar'
p4654
I1
sS'Justin Fu'
p4655
I1
sS'Huan Gui'
p4656
I1
sS'John Wilmes'
p4657
I1
sS'Espen Hagen'
p4658
I1
sS'Dhruv Batra'
p4659
I6
sS'Junfeng Wen'
p4660
I1
sS'Nicolas W. Schuck'
p4661
I1
sS'Albert Wu'
p4662
I1
sS'Tomer Ullman'
p4663
I1
sS'Subhabrata Sen'
p4664
I1
sS'Michael Brudno'
p4665
I1
sS'Junsong Yuan'
p4666
I1
sS'Minh Binh Do'
p4667
I1
sS'Ben White'
p4668
I1
sS'Yiwen Guo'
p4669
I1
sS'Yong Yu'
p4670
I1
sS'Shiliang Sun'
p4671
I1
sS'Wittawat Jitkrittum'
p4672
I3
sS'Huining Hu'
p4673
I1
sS'John W. Fisher III'
p4674
I7
sS'Adam Trischler'
p4675
I1
sS'Tomi Silander'
p4676
I2
sS'Clayton T. Morrison'
p4677
I1
sS'Anirban Dasgupta 0001'
p4678
I1
sS'Samuel S. Schoenholz'
p4679
I2
sS'Adrian Haith'
p4680
I1
sS'Niklas E\xc3\xa9n'
p4681
I1
sS'Richard S. Zemel'
p4682
I18
sS'Huan Ling'
p4683
I1
sS'Qiang Wu 0003'
p4684
I1
sS'He He 0001'
p4685
I3
sS'Nicolas Boumal'
p4686
I2
sS'Zhaonan sun'
p4687
I1
sS'Jonathan Taylor'
p4688
I1
sS'Jingwei Liang'
p4689
I2
sS'Emanuele Rodol\xc3\xa0'
p4690
I1
sS'Brandon Harvey'
p4691
I1
sS'Nikolay Savinov'
p4692
I1
sS'Omer Ben-Porat'
p4693
I1
sS'David Balduzzi'
p4694
I3
sS'Jing Rong'
p4695
I1
sS'David Lopez-Paz'
p4696
I1
sS'Tingting Zhao'
p4697
I1
sS'Viresh Ranjan'
p4698
I1
sS'Bei Chen'
p4699
I1
sS'Mohammad Javad Hosseini'
p4700
I1
sS'Jonathan Eskreis-Winkler'
p4701
I1
sS'Manmohan Chandraker'
p4702
I1
sS'Fuchun Sun'
p4703
I1
sS'Tim van Erven'
p4704
I6
sS'Beat Pfister'
p4705
I1
sS'Jun Nishikawa'
p4706
I1
sS'Jonathan P. How'
p4707
I4
sS'Tianyang Li'
p4708
I1
sS'Pietro Di Lena'
p4709
I1
sS'Scott Sanner'
p4710
I3
sS'Mohammad Haris Baig'
p4711
I1
sS'Venkata Jakkula'
p4712
I1
sS'Stephen Ragain'
p4713
I1
sS'Jason Farquhar'
p4714
I1
sS'Liu Yang'
p4715
I3
sS'Daniel Reichman 0001'
p4716
I2
sS'Vaishakh Ravindrakumar'
p4717
I1
sS'Dan Dennison'
p4718
I1
sS'Khaled S. Refaat'
p4719
I2
sS'Pranjal Awasthi'
p4720
I3
sS'Yunus Saatci'
p4721
I1
sS'Marco F. Duarte'
p4722
I1
sS'Juan Jos\xc3\xa9 Murillo-Fuentes'
p4723
I1
sS'Matei Zaharia'
p4724
I1
sS'Dustin Lang'
p4725
I1
sS'Alper Ayvaci'
p4726
I1
sS'Seongmin A. Park'
p4727
I1
sS'Weizhu Chen'
p4728
I1
sS'Daniel Cremers'
p4729
I1
sS'Mu Li'
p4730
I1
sS'Hao Zhang'
p4731
I1
sS'Eric Sodomka'
p4732
I1
sS'Michael J. Black'
p4733
I5
sS'Jonathan Peck'
p4734
I1
sS'Jean-Fran\xc3\xa7ois Giovannelli'
p4735
I1
sS'Ioannis Gkioulekas'
p4736
I1
sS'Omar El Housni'
p4737
I1
sS'Ryan T. McDonald'
p4738
I1
sS'Daniel Tarlow'
p4739
I5
sS'Laura Rigolo'
p4740
I1
sS'Conghui Tan'
p4741
I1
sS'Guillaume Obozinski'
p4742
I5
sS'Wei Shen'
p4743
I1
sS'Samir Chowdhury'
p4744
I1
sS'David Kappel'
p4745
I1
sS'Maksym Andriushchenko'
p4746
I1
sS'Sandrine Anthoine'
p4747
I1
sS'Murray Height'
p4748
I1
sS'Johan Ugander'
p4749
I2
sS'Rupesh Kumar Srivastava'
p4750
I2
sS'Jan-Willem van de Meent'
p4751
I2
sS'Robert D. Nowak'
p4752
I11
sS'Yifan Wu'
p4753
I1
sS'Laurent U. Perrinet'
p4754
I1
sS'Wei Bi'
p4755
I1
sS'Jan Peters 0001'
p4756
I10
sS'Matthew Lai'
p4757
I1
sS'Konrad Rawlik'
p4758
I1
sS'Yucen Luo'
p4759
I1
sS'Gowtham Bellala'
p4760
I1
sS'Iksoo Choi'
p4761
I1
sS'Henry Dalgleish'
p4762
I2
sS'Umut A. Acar'
p4763
I1
sS'Alfredo A. Kalaitzis'
p4764
I1
sS'Urs K\xc3\xb6ster'
p4765
I2
sS'Dor Kedem'
p4766
I1
sS'Drew Bagnell'
p4767
I1
sS'Reza Bosagh Zadeh'
p4768
I1
sS'Fen Xia'
p4769
I1
sS'Yongming Rao'
p4770
I1
sS'Peter D. Hoff'
p4771
I1
sS'Siddhartha Banerjee'
p4772
I1
sS'Andrew Gordon Wilson'
p4773
I5
sS'Maja R. Rudolph'
p4774
I2
sS'Shiau Hong Lim'
p4775
I2
sS'Kenneth A. Norman'
p4776
I1
sS'Ervin Tanczos'
p4777
I1
sS'Dean A. Bodenham'
p4778
I1
sS'David Fridovich-Keil'
p4779
I1
sS'Christopher Lynn'
p4780
I1
sS'Abbas Kazerouni'
p4781
I1
sS'Xue-Min Si'
p4782
I1
sS'Robin J. Evans'
p4783
I1
sS'Bryan McCann'
p4784
I1
sS'Peter J. Ramadge'
p4785
I5
sS'Florencia Reali'
p4786
I1
sS'Dumitru Erhan'
p4787
I2
sS'Noah A. Smith'
p4788
I3
sS'Qucheng Gong'
p4789
I1
sS'Fabio Augusto Cappabianco'
p4790
I1
sS'Wangmeng Zuo'
p4791
I2
sS'Yasuhiro Fujiwara'
p4792
I1
sS'Jung Choi'
p4793
I1
sS'Nikos Parotsidis'
p4794
I1
sS'Roy Fox'
p4795
I1
sS'Lizhen Qu'
p4796
I1
sS'Zolt\xc3\xa1n Szab\xc3\xb3 0001'
p4797
I5
sS'Ryan J. Tibshirani'
p4798
I5
sS'Miguel Figueroa'
p4799
I1
sS'Chenxi Lin'
p4800
I2
sS'Ting Guo'
p4801
I1
sS'Yuval Harel'
p4802
I1
sS'Mathias B\xc3\xa6k Tejs Knudsen'
p4803
I1
sS'Diederik P. Kingma'
p4804
I4
sS'Romain Paulus'
p4805
I1
sS'Robert Nishihara'
p4806
I1
sS'Alexandre Bouchard-C\xc3\xb4t\xc3\xa9'
p4807
I7
sS'Fei-Fei Li'
p4808
I9
sS'Lucas Theis'
p4809
I2
sS'Rohit Vaish'
p4810
I1
sS'Yihong Gong'
p4811
I6
sS'Kfir Yehuda Levy'
p4812
I1
sS'Tatiana Shpakova'
p4813
I1
sS'Daphne Koller'
p4814
I7
sS'Luona Yang'
p4815
I1
sS'Madhu Advani'
p4816
I1
sS'Paroma Varma'
p4817
I1
sS'Alexey Drutsa'
p4818
I1
sS'Forest Agostinelli'
p4819
I1
sS'Yaniv Plan'
p4820
I1
sS'Randy Jia'
p4821
I1
sS'Hiromi Arai'
p4822
I1
sS'Niki Kilbertus'
p4823
I1
sS'Sanjay Shakkottai'
p4824
I2
sS'Ping Li 0001'
p4825
I18
sS'Che-Yu Liu'
p4826
I1
sS'Alessandro Sperduti'
p4827
I1
sS'Alexander Huk'
p4828
I1
sS'Wei Xing'
p4829
I1
sS'Jiangwen Sun'
p4830
I2
sS'Xiaofei He'
p4831
I2
sS'Eunice Yuh-Jie Chen'
p4832
I1
sS'Friedrich T. Sommer'
p4833
I1
sS'Nikhil Bhat'
p4834
I1
sS'David Adametz'
p4835
I2
sS'Liqing Zhang'
p4836
I2
sS'Keith Bush'
p4837
I1
sS'Alexander G. de G. Matthews'
p4838
I1
sS'Wenhao Gui'
p4839
I1
sS'Deyu Meng'
p4840
I1
sS'Jarno Vanhatalo'
p4841
I1
sS'Shuyang Gao'
p4842
I1
sS'Alexandre Gramfort'
p4843
I4
sS'Daniel Hern\xc3\xa1ndez-Lobato'
p4844
I4
sS'Johannes Bill'
p4845
I1
sS'Fang Zhao'
p4846
I1
sS'Bharath K. Sriperumbudur'
p4847
I10
sS'Cristina Videira Lopes'
p4848
I1
sS'Jianshu Chen'
p4849
I3
sS'Benjamin Link'
p4850
I1
sS'Hyun Oh Song'
p4851
I2
sS'Krzysztof Dembczynski'
p4852
I2
sS'Clayton D. Scott'
p4853
I2
sS'Shi-Jie Lin'
p4854
I1
sS'Jin Tian'
p4855
I1
sS'Zhen James Xiang'
p4856
I2
sS'C. C. Alan Fung'
p4857
I4
sS'Cordelia Schmid'
p4858
I2
sS'Jeffrey Mark Siskind'
p4859
I1
sS'Donglai Xu'
p4860
I1
sS'Will Y. Zou'
p4861
I1
sS'Arya Mazumdar'
p4862
I4
sS'Matthias Grossglauser'
p4863
I1
sS'Dahua Lin'
p4864
I4
sS'Zijun Wei'
p4865
I1
sS'Rafal Mantiuk'
p4866
I1
sS'Ryan Prescott Adams'
p4867
I7
sS'Horst Bischof'
p4868
I1
sS'Mart\xc3\xadn Arjovsky'
p4869
I1
sS'Lu Jiang 0004'
p4870
I1
sS'David Belanger'
p4871
I1
sS'John MacCormick'
p4872
I1
sS'Katsuhiko Ishiguro'
p4873
I1
sS'Ni Lao'
p4874
I1
sS'Roger P. Levy'
p4875
I1
sS'Vincent Lepetit'
p4876
I1
sS'Hong Chang'
p4877
I1
sS'Mark J. Schnitzer'
p4878
I1
sS'Thomas Rutten'
p4879
I1
sS'Jian Zhao'
p4880
I1
sS'Daniela Rus'
p4881
I2
sS'Yaoqing Yang'
p4882
I1
sS'Nicholas Bartlett'
p4883
I2
sS'Jianxiong Xiao'
p4884
I3
sS'Abner Guzm\xc3\xa1n-Rivera'
p4885
I1
sS'Dipan K. Pal'
p4886
I1
sS'Andreas Ruttor'
p4887
I4
sS'Paramveer S. Dhillon'
p4888
I3
sS'Andrew M. Dai'
p4889
I1
sS'Christof Seiler'
p4890
I1
sS'Andrey Y. Lokhov'
p4891
I2
sS'Aleksandar Zlateski'
p4892
I1
sS'Timothy R. Hughes'
p4893
I1
sS'Jost Tobias Springenberg'
p4894
I4
sS'Daniel L. Rubin'
p4895
I1
sS'Y-Lan Boureau'
p4896
I2
sS'George H. Chen'
p4897
I2
sS'Nicolas Rivera'
p4898
I1
sS'Michael C. Hughes'
p4899
I3
sS'Nenghai Yu'
p4900
I3
sS'Philip H. S. Torr'
p4901
I7
sS'Alessandro Rinaldo'
p4902
I4
sS'Felipe W. Trevizan'
p4903
I1
sS'Lubor Ladicky'
p4904
I2
sS'Nati Linial'
p4905
I1
sS'Martin B. Stemmler'
p4906
I1
sS'Alexandros Georgogiannis'
p4907
I1
sS'Dmytro Mishkin'
p4908
I1
sS'Christian Widmer'
p4909
I2
sS'Yi Ma'
p4910
I3
sS'Peter Grunwald'
p4911
I2
sS'Eric Shea-Brown'
p4912
I1
sS'Adam Ponzi'
p4913
I1
sS'John V. Guttag'
p4914
I3
sS'Balaji Lakshminarayanan'
p4915
I3
sS'Shaili Jain'
p4916
I1
sS'Tomoya Sakai'
p4917
I1
sS'Bal\xc3\xa1zs K\xc3\xa9gl'
p4918
I2
sS'Marcus A. Brubaker'
p4919
I1
sS'Claus Neubauer'
p4920
I1
sS'Dejan Pecevski'
p4921
I1
sS'Behtash Babadi'
p4922
I2
sS'Yuan (Alan) Qi'
p4923
I3
sS'Quanquan Gu'
p4924
I6
sS'David Salinas'
p4925
I1
sS'David D. Cox'
p4926
I1
sS'Ashwini Shukla'
p4927
I1
sS'Yoram Singer'
p4928
I3
sS'Tom Rainforth'
p4929
I1
sS'Reza Babanezhad'
p4930
I1
sS'Tib\xc3\xa9rio S. Caetano'
p4931
I9
sS'Ilja Kuzborskij'
p4932
I1
sS'Yunpeng Chen'
p4933
I2
sS'Marko Boben'
p4934
I1
sS'John D. Co-Reyes'
p4935
I1
sS'Sean Hyde'
p4936
I1
sS'Chuan Guo'
p4937
I1
sS'Harold Pashler'
p4938
I4
sS'Cynthia Freeman'
p4939
I1
sS'Leo K\xc3\xa4rkk\xc3\xa4inen'
p4940
I1
sS'Hung Vu'
p4941
I1
sS'Anatoli Iouditski'
p4942
I1
sS'Inderjit S. Dhillon'
p4943
I32
sS'Fabian H. Sinz'
p4944
I4
sS'Rebecca Roelofs'
p4945
I1
sS'Gennady Samorodnitsky'
p4946
I1
sS'Jim Kurose'
p4947
I1
sS'Dong-Hyun Kwak'
p4948
I1
sS'David B. Smith 0002'
p4949
I1
sS'David E. Carlson'
p4950
I11
sS'Jiyan Yang'
p4951
I2
sS'Myunghwan Kim 0002'
p4952
I1
sS'Luis Salamanca'
p4953
I1
sS'Jinfeng Yi'
p4954
I4
sS'Tong Zhang'
p4955
I3
sS'Alekh Agarwal'
p4956
I14
sS'Mriganka Sur'
p4957
I1
sS'Seth A. Myers'
p4958
I1
sS'Ankur Moitra'
p4959
I2
sS'Jukka Corander'
p4960
I1
sS'Lei Li'
p4961
I1
sS'Andreas Lehrmann'
p4962
I2
sS'Bernd Porr'
p4963
I1
sS'Regina Barzilay'
p4964
I2
sS'Jeshua Bratman'
p4965
I1
sS'Xiaohai Sun'
p4966
I1
sS'Ga\xc3\xabl Richard'
p4967
I1
sS'Peter F\xc3\xb6ldi\xc3\xa1k'
p4968
I2
sS'Eric Schulz'
p4969
I1
sS'Bo Thiesson'
p4970
I1
sS'Thiago B. Costa'
p4971
I1
sS'Daichi Mochihashi'
p4972
I1
sS'Qinqing Zheng'
p4973
I2
sS'William T. Stephenson'
p4974
I1
sS'Lior Wolf'
p4975
I1
sS'Valentin Flunkert'
p4976
I1
sS'Yannic Kilcher'
p4977
I1
sS'Matthew Faulkner'
p4978
I1
sS'Gwenn Englebienne'
p4979
I1
sS'Tasuku Soma'
p4980
I1
sS'Xiao-Tong Yuan'
p4981
I2
sS'Mulugeta Semework'
p4982
I1
sS'David A. Knowles'
p4983
I3
sS'Nati Srebro'
p4984
I17
sS'Yasin Abbasi-Yadkori'
p4985
I4
sS'Rebecca Willett'
p4986
I4
sS'Mathieu Salzmann'
p4987
I5
sS'Haim Schweitzer'
p4988
I1
sS'Mathias Berglund'
p4989
I3
sS'Jasper De Bock'
p4990
I1
sS'Youssef Mroueh'
p4991
I3
sS'Vincent Y. F. Tan'
p4992
I1
sS'Aaron Roth'
p4993
I5
sS'Hua Wang'
p4994
I2
sS'Dean Pomerleau'
p4995
I1
sS'Hai Leong Chieu'
p4996
I3
sS'Brian Fischer'
p4997
I1
sS'Marc Niethammer'
p4998
I2
sS'Han Zhu'
p4999
I1
sS'Martin Mevissen'
p5000
I1
sS'Shauki A. Elasaad'
p5001
I1
sS'Aravind Rajeswaran'
p5002
I1
sS'Yoav Freund'
p5003
I5
sS'Simon Rubinstein-Salzedo'
p5004
I1
sS'Percy Liang'
p5005
I11
sS'Pratik Worah'
p5006
I1
sS'Lei Wang 0001'
p5007
I3
sS'Vinay Jethava'
p5008
I1
sS'Sinead A. Williamson'
p5009
I2
sS'Bernardino Romera-Paredes'
p5010
I1
sS'Jim C. Huang'
p5011
I2
sS'Tianfan Xue'
p5012
I3
sS'Avi Wigderson'
p5013
I1
sS'Phillip B. Gibbons'
p5014
I1
sS'Forrest W. Crawford'
p5015
I1
sS'Xiang Zhang'
p5016
I1
sS'Ludovic Denoyer'
p5017
I1
sS'Youssef Marzouk'
p5018
I1
sS'Ashutosh Nayyar'
p5019
I1
sS'Boris Belousov'
p5020
I1
sS'Bhiksha Raj'
p5021
I4
sS'Kafui Dzirasa'
p5022
I5
sS'Max Sagebaum'
p5023
I1
sS'Peter Sollich'
p5024
I3
sS'Kristoffer Hougaard Madsen'
p5025
I1
sS'Chien-Ju Ho'
p5026
I1
sS'Qing Qu'
p5027
I2
sS'Thomas Vanck'
p5028
I1
sS'Jinzhu Jia'
p5029
I1
sS'Simon M. J. Lyons'
p5030
I1
sS'Florent Krzakala'
p5031
I5
sS'Wei Pan'
p5032
I1
sS'Kai-min Chang'
p5033
I1
sS'Nicu Sebe'
p5034
I1
sS'Alessandro Giusti'
p5035
I1
sS'Marcel van Gerven'
p5036
I3
sS'Xiaohui Shen'
p5037
I2
sS'Eugene Davydov'
p5038
I1
sS'Bo Tang'
p5039
I1
sS'Michael Mozer'
p5040
I5
sS'Sudheendra Vijayanarasimhan'
p5041
I2
sS'Zhouhan Lin'
p5042
I1
sS'Boris T. Polyak'
p5043
I1
sS'Junae Kim'
p5044
I1
sS'Rahul G. Krishnan'
p5045
I1
sS'Dit-Yan Yeung'
p5046
I10
sS'Matthew J. Johnson 0002'
p5047
I3
sS'William M. Wells III'
p5048
I1
sS'Brian W. Dolhansky'
p5049
I1
sS'Xiang Yu'
p5050
I1
sS'Andrew Guillory'
p5051
I2
sS'Lin Yang'
p5052
I2
sS'Ian H. Stevenson'
p5053
I2
sS'Serafim Batzoglou'
p5054
I1
sS'Zheng Qu'
p5055
I1
sS'Diao Dongcui'
p5056
I1
sS'Tim Rockt\xc3\xa4schel'
p5057
I1
sS'Mateusz Malinowski'
p5058
I2
sS'Evan Archer'
p5059
I4
sS'Carl Doersch'
p5060
I1
sS'Tianyi Zhou'
p5061
I1
sS'Djordje Miladinovic'
p5062
I1
sS'Nathaniel Korda'
p5063
I1
sS'Mitchell J. Cohen'
p5064
I1
sS'Hagai Attias'
p5065
I1
sS'Moran Cerf'
p5066
I1
sS'David A. Moore'
p5067
I1
sS'Simon Kamronn'
p5068
I1
sS'Robert Fergus'
p5069
I2
sS'Niklas Wahlstr\xc3\xb6m'
p5070
I1
sS'Cuong V. Nguyen'
p5071
I1
sS'Jesse Davis'
p5072
I2
sS'Erik B. Sudderth'
p5073
I16
sS'Lucas C. Parra'
p5074
I2
sS'Eric Moulines'
p5075
I6
sS'Mohamed Osama Ahmed'
p5076
I1
sS'Venkatadheeraj Pichapati'
p5077
I2
sS'Jiafeng Guo'
p5078
I1
sS'Pan Li'
p5079
I1
sS'Beata Jarosiewicz'
p5080
I1
sS'Nikhil Rao'
p5081
I3
sS'Jeremy E. Niven'
p5082
I1
sS'Moshe Tennenholtz'
p5083
I1
sS'Volker Roth 0001'
p5084
I3
sS'George Trigeorgis'
p5085
I1
sS'Chuang Wang'
p5086
I1
sS'Qiang Liu 0001'
p5087
I8
sS'Jacob Steinhardt'
p5088
I4
sS'William Constable'
p5089
I1
sS'Jason L. Pacheco'
p5090
I1
sS'Ryan C. Kelly'
p5091
I1
sS'S\xc3\xa9bastien Le Digabel'
p5092
I1
sS'Chunxiao Zhou'
p5093
I2
sS'Nagesh Adluru'
p5094
I1
sS'Adam N. Mamelak'
p5095
I1
sS'Kevin Gimpel'
p5096
I2
sS'James R. Glass'
p5097
I2
sS'Giambattista Parascandolo'
p5098
I1
sS'Huseyin Denli'
p5099
I1
sS'Abhinav Gupta'
p5100
I3
sS'Sergey Yekhanin'
p5101
I2
sS'Haojun Chen'
p5102
I1
sS'Michael T. Todd'
p5103
I1
sS'Mark S. Alber'
p5104
I1
sS'Srimat T. Chakradhar'
p5105
I1
sS'Kosuke Fukumasu'
p5106
I1
sS'Diego Klabjan'
p5107
I1
sS'Varun Sharma'
p5108
I1
sS'Luminita A. Vese'
p5109
I1
sS'Lin Xiao'
p5110
I4
sS'Zhen Li'
p5111
I1
sS'Rina Foygel'
p5112
I5
sS'Klaus Wimmer'
p5113
I1
sS'Jaan Altosaar'
p5114
I1
sS'Yihe Tang'
p5115
I1
sS'Zirui Zhou'
p5116
I1
sS'Antonio Torralba 0001'
p5117
I17
sS'Liqian Ma'
p5118
I1
sS'Stefan Klampfl'
p5119
I1
sS'Edward Vul'
p5120
I1
sS'Shouyuan Chen'
p5121
I2
sS'Jing Li'
p5122
I2
sS'Matthew W. Hoffman'
p5123
I2
sS'Juston Moore'
p5124
I1
sS'Pierre Baldi'
p5125
I5
sS'Mehdi Fatemi'
p5126
I1
sS'Mukul Gagrani'
p5127
I1
sS'Luo Si'
p5128
I1
sS'David Suter'
p5129
I2
sS'Fran\xc3\xa7ois Fleuret'
p5130
I6
sS'Yi-Hao Kao'
p5131
I1
sS'Lei Yuan'
p5132
I1
sS'Steve Branson'
p5133
I1
sS'Sara Magliacane'
p5134
I1
sS'Matthias Z\xc3\xb6hrer'
p5135
I1
sS'S\xc3\xa9bastien Gerchinovitz'
p5136
I1
sS'Sida I. Wang'
p5137
I4
sS'Vinay Chaudhary'
p5138
I1
sS'Omar Zia Khan'
p5139
I1
sS'Marina Riabiz'
p5140
I1
sS'Yevgeniy B. Slutskiy'
p5141
I2
sS'Han Guo'
p5142
I1
sS'Dwight Crow'
p5143
I1
sS'Mesrob I. Ohannessian'
p5144
I2
sS'Lawrence Carin'
p5145
I39
sS'Eric K. C. Tsang'
p5146
I1
sS'Alexandre M. Bayen'
p5147
I3
sS'Lyle H. Ungar'
p5148
I4
sS'Rui M. Castro'
p5149
I1
sS'Erfan Yazdandoost Hamedani'
p5150
I1
sS'Robert S. Chen'
p5151
I1
sS'Omer Reingold'
p5152
I1
sS'Bo-Jian Hou'
p5153
I1
sS'Philippe Castonguay'
p5154
I1
sS'Kendall Lowrey'
p5155
I2
sS'Shahed Sorower'
p5156
I1
sS'Masafumi Oizumi'
p5157
I1
sS'Tomi Poutanen'
p5158
I1
sS'Marion Plaze'
p5159
I1
sS'\xc3\x89ric Gaussier'
p5160
I1
sS'Fred A. Hamprecht'
p5161
I5
sS'Muhammad Bilal Zafar'
p5162
I1
sS'Pernille Hemmer'
p5163
I1
sS'Zhitang Chen'
p5164
I1
sS'Doug Downey'
p5165
I1
sS'Yasuyuki Matsushita'
p5166
I1
sS'Weiyao Wang'
p5167
I2
sS'Matthieu Geist'
p5168
I4
sS'Fajwel Fogel'
p5169
I2
sS'Samet Oymak'
p5170
I2
sS'Jason Weston'
p5171
I5
sS'Haesun Park'
p5172
I1
sS'Lixin Fan'
p5173
I1
sS'Igor Colin'
p5174
I1
sS'Wen-bing Huang'
p5175
I1
sS'Ilker Yildirim'
p5176
I2
sS'Maneesh Sahani'
p5177
I14
sS'Nanyang Ye'
p5178
I1
sS'Ashish Kapoor'
p5179
I3
sS'Stefan Klanke'
p5180
I1
sS'Bangpeng Yao'
p5181
I1
sS'Matthias Krauledat'
p5182
I1
sS'Hiroshi Nakagawa'
p5183
I3
sS'Peter Li'
p5184
I1
sS'Anastasios Kyrillidis'
p5185
I1
sS'Hyunwoo J. Kim'
p5186
I1
sS'Mohit Sharma'
p5187
I1
sS'Luca Oneto'
p5188
I1
sS'Madhusudana V. S. Shashanka'
p5189
I2
sS'Yacine Jernite'
p5190
I1
sS'Jason Chang'
p5191
I2
sS'Huibin Li'
p5192
I1
sS'Yin Cheng Ng'
p5193
I1
sS'Kamalika Chaudhuri'
p5194
I15
sS'Barbara Caputo'
p5195
I1
sS'Peter Krafft'
p5196
I1
sS'Reshad Hosseini'
p5197
I2
sS'Motoaki Kawanabe'
p5198
I4
sS'H. Sebastian Seung'
p5199
I6
sS'Xiaoshi Wang'
p5200
I1
sS'Subhashini Krishnasamy'
p5201
I1
sS'Hamid Reza Maei'
p5202
I2
sS'James Atwood'
p5203
I1
sS'Charles Lee Isbell Jr.'
p5204
I2
sS'Aharon Ben-Tal'
p5205
I2
sS'Elman Mansimov'
p5206
I1
sS'Marc Lanctot'
p5207
I6
sS'Oren Anava'
p5208
I3
sS'Xuezhi Wang'
p5209
I1
sS'Victor A. F. Lamme'
p5210
I1
sS'Srikanth Jagabathula'
p5211
I4
sS'George Williams'
p5212
I1
sS'Lei Zhang'
p5213
I1
sS'Luca Bertinetto'
p5214
I1
sS'Simo S\xc3\xa4rkk\xc3\xa4'
p5215
I1
sS'Dylan A. Simon'
p5216
I1
sS'Akshat Kumar'
p5217
I2
sS'Haim Sompolinsky'
p5218
I3
sS'Jonas Kubilius'
p5219
I1
sS'David Saxton'
p5220
I1
sS'Jinyao Yan'
p5221
I2
sS'Camille Coti'
p5222
I1
sS'Wolf Vanpaemel'
p5223
I1
sS'Kanaka Rajan'
p5224
I1
sS'Jo\xc3\xa3o Gra\xc3\xa7a'
p5225
I2
sS'Neville Mehta'
p5226
I1
sS'James Thewlis'
p5227
I1
sS'Alexander J. Riordan'
p5228
I1
sS'Christoforos Christoforou'
p5229
I1
sS'Huan Zhang'
p5230
I3
sS'Fernando Pereira'
p5231
I3
sS'Ashwin Lall'
p5232
I1
sS'Cem Tekin'
p5233
I1
sS'Emily L. Denton'
p5234
I3
sS'Kai Chen 0010'
p5235
I2
sS'Ifeoma Nwogu'
p5236
I1
sS'Peter W. Battaglia'
p5237
I1
sS'Anastasios Zouzias'
p5238
I1
sS'Shigeru Shinomoto'
p5239
I1
sS'Mi-Yen Yeh'
p5240
I1
sS'Roland S. Johansson'
p5241
I1
sS'Juha Karhunen'
p5242
I1
sS'Antonio Sutera'
p5243
I1
sS'Yongmei Michelle Wang'
p5244
I1
sS'Eric Price'
p5245
I2
sS'Christopher De Sa'
p5246
I5
sS'Frank Dondelinger'
p5247
I1
sS'Franziska Biegler'
p5248
I1
sS'Fred Rieke'
p5249
I1
sS'Daniel Selsam'
p5250
I1
sS'Nuno Lau'
p5251
I1
sS'Owain Evans'
p5252
I1
sS'Sam T. Roweis'
p5253
I1
sS'Jaya Kawale'
p5254
I1
sS'Ravi Kumar 0001'
p5255
I4
sS'Ed Vul'
p5256
I4
sS'Jacob Bien'
p5257
I1
sS'Shan You'
p5258
I1
sS'James Andrew Bagnell'
p5259
I1
sS'Hooshmand Shokri Razaghi'
p5260
I1
sS'Marylou Gabri\xc3\xa9'
p5261
I1
sS'Xavier Carreras'
p5262
I1
sS'Rohit Babbar'
p5263
I1
sS'Yonatan Halpern'
p5264
I1
sS'Han-Shen Huang'
p5265
I1
sS'Kumar Avinava Dubey'
p5266
I2
sS'Sanghamitra Dutta'
p5267
I1
sS'Raja Hafiz Affandi'
p5268
I1
sS'Vincent Delaitre'
p5269
I1
sS'Farbod Roosta-Khorasani'
p5270
I2
sS'Manqi Zhao'
p5271
I1
sS'Eleanor Batty'
p5272
I2
sS'Aviv Zohar'
p5273
I1
sS'Margareta Ackerman'
p5274
I3
sS'Jue Wang 0004'
p5275
I1
sS'John Miller'
p5276
I1
sS'Caroline Runyan'
p5277
I1
sS'John R. Hershey'
p5278
I1
sS'Mohammad Tanvir Irfan'
p5279
I1
sS'David Verstraeten'
p5280
I1
sS'Conor Heins'
p5281
I1
sS'Saber Salehkaleybar'
p5282
I1
sS'Marc-Olivier Schwartz'
p5283
I1
sS'Xueyan Jiang'
p5284
I1
sS'Zhiming Ma'
p5285
I4
sS'Martin Slawski'
p5286
I6
sS'Alan L. Yuille'
p5287
I13
sS'Vishal Verma'
p5288
I1
sS'Abhijeet Ghosh'
p5289
I1
sS'Maayan Harel'
p5290
I1
sS'Xin Dong'
p5291
I1
sS'James R. Voss'
p5292
I2
sS'Yuan Lin'
p5293
I1
sS'Alexander G. Hauptmann'
p5294
I1
sS'Renaud Jolivet'
p5295
I1
sS'Haixuan Yang'
p5296
I1
sS'Richard D. Lawrence'
p5297
I1
sS'Jan Drugowitsch'
p5298
I1
sS'Kameron D. Harris'
p5299
I1
sS'Andrej Karpathy'
p5300
I2
sS'Bert C. Huang'
p5301
I1
sS'Edo Collins'
p5302
I1
sS'Zeynep Akata'
p5303
I1
sS'Joseph Tassarotti'
p5304
I1
sS'Brandon Amos'
p5305
I1
sS'Sylvain Gelly'
p5306
I1
sS'James Kirkpatrick'
p5307
I2
sS'Eric C. Chi'
p5308
I1
sS'Adith Swaminathan'
p5309
I2
sS'Chen Fang'
p5310
I1
sS'Naveen Rao'
p5311
I1
sS'Jianshu Li'
p5312
I1
sS'Wang-chun Woo'
p5313
I2
sS'Jin Yu'
p5314
I1
sS'Azadeh Khaleghi'
p5315
I1
sS'Andrew E. Gelfand'
p5316
I1
sS'Alexander Irpan'
p5317
I1
sS'Pang Wei Koh'
p5318
I3
sS'Ge Yang'
p5319
I1
sS'C\xc3\xa9dric F\xc3\xa9votte'
p5320
I3
sS'Abhishek Anand'
p5321
I1
sS'Arild N\xc3\xb8kland'
p5322
I1
sS'Ming Yuan'
p5323
I2
sS'Grace Wahba'
p5324
I2
sS'Maarten Speekenbrink'
p5325
I1
sS'Jean Morales'
p5326
I1
sS'Marcin J. Skwark'
p5327
I1
sS'Marco Pavone'
p5328
I1
sS'Praveen Srinivasan'
p5329
I1
sS'Jin Tang'
p5330
I1
sS'Alessandro Chiuso'
p5331
I2
sS'Alessandro Ghio'
p5332
I1
sS'Su-In Lee'
p5333
I3
sS'Rui F. Caseiro'
p5334
I1
sS'Eric Maris'
p5335
I1
sS'Peter T. Pham'
p5336
I1
sS'S\xc3\xb8ren Kaae S\xc3\xb8nderby'
p5337
I2
sS'Jens Petersen'
p5338
I1
sS'Vicki Cheung'
p5339
I1
sS'Carlos J. Becker'
p5340
I1
sS'Peter Jones'
p5341
I1
sS'Ayan Chakrabarti'
p5342
I3
sS'Andrea Vedaldi'
p5343
I8
sS'Zac Cranko'
p5344
I1
sS'Julian J. McAuley'
p5345
I1
sS'Vinod Nair'
p5346
I2
sS'Lionel Ott'
p5347
I2
sS'Uri Maoz'
p5348
I1
sS'Yair Wiener'
p5349
I2
sS'Mario Marchand'
p5350
I2
sS'Yujia Shen'
p5351
I3
sS'Christian Borgs'
p5352
I2
sS'Panayotis Mertikopoulos'
p5353
I3
sS'Gregory J. Zelinsky'
p5354
I2
sS'Christopher R. Genovese'
p5355
I1
sS'Shengxuan Ye'
p5356
I1
sS'Tarun Kathuria'
p5357
I1
sS'Jie Luo'
p5358
I3
sS'Sebastian U. Stich'
p5359
I1
sS'Tomasz Trzcinski'
p5360
I1
sS'America Chambers'
p5361
I1
sS'Manik Varma'
p5362
I2
sS'Dongqu Chen'
p5363
I1
sS'K\xc3\xa9vin Degraux'
p5364
I1
sS'Luis von Ahn'
p5365
I1
sS'Matthew Weiden'
p5366
I1
sS'Nicolas Vayatis'
p5367
I8
sS'Bo Wahlberg'
p5368
I1
sS'Dimitrios Vytiniotis'
p5369
I1
sS'Giacomo Bassetto'
p5370
I2
sS'Laurence Aitchison'
p5371
I2
sS'Nikos Vlassis'
p5372
I1
sS'Xinghao Pan'
p5373
I3
sS'Thijs Laarhoven'
p5374
I1
sS'Zhaobin Kuang'
p5375
I1
sS'Frank C. Park'
p5376
I1
sS'Eleni Triantafillou'
p5377
I1
sS'Josh S. Merel'
p5378
I2
sS'Katya Scheinberg'
p5379
I1
sS'Frank Hutter'
p5380
I2
sS'Hong Chen'
p5381
I3
sS'Beka Steorts'
p5382
I1
sS'Philip Bachman'
p5383
I3
sS'Alan Malek'
p5384
I3
sS'Raman Arora'
p5385
I5
sS'Andreas Stuhlm\xc3\xbcller'
p5386
I2
sS'Akihiro Yabe'
p5387
I1
sS'Adam Sanborn'
p5388
I2
sS'Kai-Yang Chiang'
p5389
I1
sS'John Wright'
p5390
I5
sS'Yury Maximov'
p5391
I1
sS'Thomas G\xc3\xa4rtner'
p5392
I3
sS'Xin Wang 0023'
p5393
I1
sS'K. Y. Michael Wong'
p5394
I5
sS'Rajat Monga'
p5395
I1
sS'Andrea Montanari'
p5396
I13
sS'Micha\xc3\xabl Mathieu'
p5397
I3
sS'Onkar Dalal'
p5398
I1
sS'Eneldo Loza Menc\xc3\xada'
p5399
I1
sS'Xiaoqian Wang'
p5400
I3
sS'Tjeerd Dijkstra'
p5401
I1
sS'Aristidis Likas'
p5402
I1
sS'Jay I. Myung'
p5403
I1
sS'Bhavya Kailkhura'
p5404
I1
sS'Oriol Vinyals'
p5405
I11
sS'Lav R. Varshney'
p5406
I3
sS'Shakir Mohamed'
p5407
I7
sS'Michael Carl Tschantz'
p5408
I1
sS'Saurabh Verma'
p5409
I1
sS'Steven Bottone'
p5410
I2
sS'Jianbo Yang'
p5411
I1
sS'Tat-Jun Chin'
p5412
I2
sS'Ju Sun'
p5413
I1
sS'Jian Sun 0001'
p5414
I3
sS'Viveck R. Cadambe'
p5415
I1
sS'Shizhong Han'
p5416
I1
sS'Jennifer T. Chayes'
p5417
I2
sS'Anton van den Hengel'
p5418
I3
sS'Andrew L. Alexander'
p5419
I1
sS'Xin Li'
p5420
I1
sS'Yann LeCun'
p5421
I10
sS'Nicholas Rhinehart'
p5422
I1
sS'Armen E. Allahverdyan'
p5423
I1
sS'Xin Lu'
p5424
I1
sS'Sohrob Kazerounian'
p5425
I1
sS'Mahito Sugiyama'
p5426
I2
sS'Manuel Lopes'
p5427
I1
sS'Yuichi Nagata'
p5428
I1
sS'Wei Hu'
p5429
I2
sS'Will Dabney'
p5430
I1
sS'Dylan Festa'
p5431
I1
sS'Bing Xu'
p5432
I1
sS'Asela Gunawardana'
p5433
I1
sS'R\xc3\xa9mi Leblond'
p5434
I1
sS'Shigenobu Kobayashi'
p5435
I1
sS'Matthew Davidow'
p5436
I1
sS'Burr Settles'
p5437
I1
sS'Ahmet Alacaoglu'
p5438
I1
sS'Umberto Castellani'
p5439
I1
sS'Laurent Jacob'
p5440
I2
sS'William R. Vega-Brown'
p5441
I1
sS'Calvin McCarter'
p5442
I1
sS'Shaoqing Ren'
p5443
I1
sS'Alan F. Murray'
p5444
I1
sS'Christopher Musco'
p5445
I2
sS'Mark D. Reid'
p5446
I5
sS'Wen Sun'
p5447
I1
sS'Jitendra Malik'
p5448
I2
sS'James Davidson'
p5449
I1
sS'M\xc3\xa1t\xc3\xa9 Lengyel'
p5450
I8
sS'Mikhail Volkov'
p5451
I2
sS'Andreas Christmann'
p5452
I4
sS'Gianluigi Pillonetto'
p5453
I1
sS'Adil Paul'
p5454
I1
sS'Kenji Fukumizu'
p5455
I14
sS'Arvind Ganesh'
p5456
I1
sS'Sanjiv Kumar'
p5457
I7
sS'Diane M. Beck'
p5458
I2
sS'Anders Martinsson'
p5459
I1
sS'Min Xu'
p5460
I2
sS'Shrinu Kushagra'
p5461
I1
sS'Jean-Pierre David'
p5462
I1
sS'Ming Liang'
p5463
I1
sS'Timothy D. Hanks'
p5464
I1
sS'Louis Wehenkel'
p5465
I1
sS'Souhaib Ben Taieb'
p5466
I1
sS'Kaushik Subramanian'
p5467
I1
sS'Tingfan Wu'
p5468
I1
sS'Gustavo Malkomes'
p5469
I3
sS'Charles A. Bouman'
p5470
I1
sS'Ruben Coen Cagli'
p5471
I1
sS'Marwa El Halabi'
p5472
I1
sS'Samira Ebrahimi Kahou'
p5473
I1
sS'Ankan Saha'
p5474
I2
sS'Vitaly Kuznetsov'
p5475
I4
sS'Krishna V. Shenoy'
p5476
I6
sS'Susan Holmes'
p5477
I1
sS'Noemie Elhadad'
p5478
I1
sS'Qinliang Su'
p5479
I1
sS'Rob van Lier'
p5480
I1
sS'Chiang-shan R. Li'
p5481
I1
sS'Cl\xc3\xa9ment Calauz\xc3\xa8nes'
p5482
I1
sS'Jayaraman J. Thiagarajan'
p5483
I1
sS'Susan Athey'
p5484
I2
sS'Fang Han'
p5485
I5
sS'Guillaume Papa'
p5486
I2
sS'Caiming Xiong'
p5487
I1
sS'Junjie Zhu'
p5488
I1
sS'Ioannis Panageas'
p5489
I1
sS'Ruslan Salakhutdinov'
p5490
I33
sS'Yossi Arjevani'
p5491
I3
sS'Thierry Bertin-Mahieux'
p5492
I1
sS'Raimondas Kiveris'
p5493
I1
sS'Chao Xu 0006'
p5494
I1
sS'Evan W. Archer'
p5495
I3
sS'Ilia Shishkov'
p5496
I1
sS'Alexandros Paraschos'
p5497
I1
sS'Xiubo Geng'
p5498
I1
sS'Tomas Mikolov'
p5499
I3
sS'Qianru Sun'
p5500
I1
sS'Brian Eriksson'
p5501
I1
sS'Ziteng Wang'
p5502
I2
sS'Carl Jidling'
p5503
I1
sS'Cristian Grozea'
p5504
I1
sS'Yuhuai Wu'
p5505
I5
sS'Mark A. Pitt'
p5506
I1
sS'Andrew Gelman'
p5507
I1
sS'Michael Zibulevsky'
p5508
I1
sS'William Brendel'
p5509
I1
sS'Jordan L. Boyd-Graber'
p5510
I5
sS'Hamed Valizadegan'
p5511
I1
sS'Sebastian Kurtek'
p5512
I1
sS'Jonathan H. Huggins'
p5513
I2
sS'Yuheng Chen'
p5514
I1
sS'Necdet Serhat Aybat'
p5515
I1
sS'Clark Glymour'
p5516
I1
sS'Laiwan Chan'
p5517
I1
sS'Volker Tresp'
p5518
I1
sS'Daniel Neil'
p5519
I1
sS'Markus Maier'
p5520
I1
sS'Michael Zhu'
p5521
I1
sS'Jiaxing Zhang'
p5522
I1
sS'David Poole 0001'
p5523
I1
sS'Zhaoran Wang'
p5524
I12
sS'Dae Il Kim'
p5525
I2
sS'Shan-Wei Lin'
p5526
I1
sS'Steven J. Phillips'
p5527
I1
sS'Benjamin A. Miller'
p5528
I1
sS'Sinno Jialin Pan'
p5529
I1
sS'Kush Bhatia'
p5530
I3
sS'Mario Pannunzi'
p5531
I1
sS'Hankz Hankui Zhuo'
p5532
I1
sS'Ingmar Posner'
p5533
I1
sS'Micha\xc3\xabl Defferrard'
p5534
I1
sS'Shubhendu Trivedi'
p5535
I1
sS'Antonij Golkov'
p5536
I1
sS'Ioannis Alexandros M. Assael'
p5537
I1
sS'Sander Bosch'
p5538
I1
sS'Eric Cosatto'
p5539
I1
sS'Mark van der Wilk'
p5540
I3
sS'Colin Sandon'
p5541
I2
sS'John S. Choi'
p5542
I1
sS'Jean-Philippe Vert'
p5543
I4
sS'Omer Weissbrod'
p5544
I1
sS'Imon Banerjee'
p5545
I1
sS'Takehisa Yairi'
p5546
I1
sS'D. Scott Phoenix'
p5547
I1
sS'Yingxiang Yang'
p5548
I1
sS'Josh Tobin'
p5549
I1
sS'Tolga Tasdizen'
p5550
I1
sS'Robert West 0001'
p5551
I1
sS'James McQueen'
p5552
I2
sS'Michalis Raptis'
p5553
I2
sS'Xavier Alameda-Pineda'
p5554
I1
sS'Pablo M. Olmos'
p5555
I1
sS'Federico Monti'
p5556
I1
sS'Soong Moon Kang'
p5557
I1
sS'Andrew W. Senior'
p5558
I2
sS'Amin Shokrollahi'
p5559
I1
sS'M. A. Saleh Elmohamed'
p5560
I1
sS'Peter Lofgren'
p5561
I1
sS'Wei Liu'
p5562
I2
sS'Yutian Chen'
p5563
I2
sS'Joel Z. Leibo'
p5564
I4
sS'Shannon L. Risacher'
p5565
I1
sS'Ruth Urner'
p5566
I2
sS'James M. Robins'
p5567
I1
sS'William F. Whitney'
p5568
I1
sS'Aolin Xu'
p5569
I1
sS'Wei Cao'
p5570
I1
sS'Vidhya Navalpakkam'
p5571
I1
sS'Joseph Suarez'
p5572
I1
sS'YiGang Peng'
p5573
I1
sS'Yandan Wang'
p5574
I2
sS'Ruofei Zhang'
p5575
I1
sS'Abhishek Kumar 0001'
p5576
I3
sS'Steven J. Rennie'
p5577
I1
sS'Bethany Lusch'
p5578
I1
sS'Amnon Shashua'
p5579
I2
sS'Fan Yang'
p5580
I4
sS'Tele Hao'
p5581
I2
sS'M\xc3\xa9lanie Rey'
p5582
I1
sS'Oren Rippel'
p5583
I1
sS'Hiroshi Mamitsuka'
p5584
I1
sS'Melvin Gauci'
p5585
I1
sS'Mikaela Keller'
p5586
I1
sS'Jeffrey Tsang'
p5587
I1
sS'Oren Somekh'
p5588
I1
sS'George Mohler'
p5589
I1
sS'Shaodan Zhai'
p5590
I1
sS'Jacob Devlin'
p5591
I1
sS'Rub\xc3\xa9n Moreno-Bote'
p5592
I1
sS'Marie-Laure Paill\xc3\xa8re-Martinot'
p5593
I1
sS'Sushil Krishna Bajracharya'
p5594
I1
sS'Christopher R\xc3\xa9'
p5595
I13
sS'Valentina Zantedeschi'
p5596
I1
sS'Long Nguyen'
p5597
I1
sS'Phillip Isola'
p5598
I1
sS'Warren B. Powell'
p5599
I1
sS'Katherine Demuth'
p5600
I1
sS'Mikkel N. Schmidt'
p5601
I2
sS'Zohar S. Karnin'
p5602
I3
sS'Yogatheesan Varatharajah'
p5603
I1
sS'Henggang Cui'
p5604
I1
sS'Sinisa Todorovic'
p5605
I2
sS'Garrett Andersen'
p5606
I1
sS'Abbas Zaidi'
p5607
I1
sS'Rita Z. Goldstein'
p5608
I1
sS'Samory Kpotufe'
p5609
I6
sS'Guannan Liang'
p5610
I1
sS'Sylvian R. Ray'
p5611
I1
sS'Guy Rosman'
p5612
I1
sS'Shengmei Shen'
p5613
I1
sS'Kurt T. Miller'
p5614
I1
sS'Andrea Lockerd Thomaz'
p5615
I1
sS'Weiwei Cheng'
p5616
I2
sS'Seungyeop Han'
p5617
I1
sS'Jean Honorio'
p5618
I2
sS'Moran Feldman'
p5619
I1
sS'Adi Shraibman'
p5620
I1
sS'Nikos D. Sidiropoulos'
p5621
I1
sS'Roee Litman'
p5622
I1
sS'Shane T. Jensen'
p5623
I1
sS'Stella X. Yu'
p5624
I1
sS'Pradeep Ravikumar'
p5625
I37
sS'Song Chun Zhu'
p5626
I2
sS'Farideh Fazayeli'
p5627
I1
sS'Ognjen Arandjelovic'
p5628
I1
sS'Negar Kiyavash'
p5629
I2
sS'Paul von B\xc3\xbcnau'
p5630
I1
sS'Chang Su'
p5631
I1
sS'Joshua Wang'
p5632
I1
sS'Jacob D. Abernethy'
p5633
I9
sS'Changyou Chen'
p5634
I6
sS'Andreas Argyriou'
p5635
I2
sS'Vahid Tarokh'
p5636
I1
sS'Ramani Duraiswami'
p5637
I1
sS'Matthias Bauer'
p5638
I1
sS'Alec Radford'
p5639
I1
sS'Shun Liao'
p5640
I1
sS'Daniel Zoran'
p5641
I6
sS'Hirotaka Hachiya'
p5642
I2
sS'Dinesh Jayaraman'
p5643
I1
sS'Tiberio Caetano'
p5644
I1
sS'Marc Toussaint'
p5645
I3
sS'Sven Eberhardt'
p5646
I1
sS'Shafin Rahman'
p5647
I1
sS'Subhransu Maji'
p5648
I2
sS'Qingcai Chen'
p5649
I1
sS'Peter Welinder'
p5650
I3
sS'Yang Liu'
p5651
I1
sS'Ye Wang'
p5652
I1
sS'David J. Fleet'
p5653
I3
sS'Lee Yang'
p5654
I1
sS'Wei-Ning Hsu'
p5655
I1
sS'Adam M. White'
p5656
I1
sS'Marco Fraccaro'
p5657
I2
sS'Peter Orbanz'
p5658
I2
sS'Jiseong Park'
p5659
I1
sS'Santosh Vempala'
p5660
I2
sS'Nicolas Baskiotis'
p5661
I1
sS'Greg Shakhnarovich'
p5662
I2
sS'Tim P. Vogels'
p5663
I1
sS'Sennay Ghebreab'
p5664
I2
sS'Rafal J\xc3\xb3zefowicz'
p5665
I1
sS'Nathaniel J. Smith'
p5666
I1
sS'Graham W. Taylor'
p5667
I3
sS'Madeleine Udell'
p5668
I2
sS'Bo Wang'
p5669
I1
sS'Charles M. Gaona'
p5670
I1
sS'Aron Yu'
p5671
I1
sS'C. Lawrence Zitnick'
p5672
I2
sS'Laurent El Ghaoui'
p5673
I4
sS'Tom Claassen'
p5674
I2
sS'Fabio Cecchi'
p5675
I1
sS'Xiaoming Yuan'
p5676
I1
sS'Naonori Kakimura'
p5677
I1
sS'Tong Zhang 0001'
p5678
I21
sS'Heidemarie Schmidt'
p5679
I1
sS'Junbo Jake Zhao'
p5680
I2
sS'Stephen P. Boyd'
p5681
I3
sS'Bertram Emil Shi'
p5682
I1
sS'Ji Xu'
p5683
I1
sS'Kunle Olukotun'
p5684
I2
sS'Minh Do'
p5685
I1
sS'Antoni B. Chan'
p5686
I2
sS'Chao-Kai Chiang'
p5687
I1
sS'Anuj Mahajan'
p5688
I1
sS'Dan Rosenbaum'
p5689
I2
sS'Karin C. Knudson'
p5690
I2
sS'Alexander Braunstein'
p5691
I1
sS'Steffen Gr\xc3\xbcnew\xc3\xa4lder'
p5692
I2
sS'Kathryn Roeder'
p5693
I2
sS'Chang Dong Yoo'
p5694
I1
sS'Yuncheng Li'
p5695
I1
sS'Ravishankar Krishnaswamy'
p5696
I1
sS'Massih-Reza Amini'
p5697
I4
sS'Pierre Gaillard'
p5698
I1
sS'Guido Nolte'
p5699
I1
sS'Lars Schwabe'
p5700
I1
sS'Toniann Pitassi'
p5701
I2
sS'Saharon Rosset'
p5702
I1
sS'Daniel Whiteson'
p5703
I1
sS'Svetha Venkatesh'
p5704
I2
sS'Bozidar Radunovic'
p5705
I1
sS'Tuo Zhao'
p5706
I9
sS'Shunan Zhang'
p5707
I1
sS'Mark Lee'
p5708
I1
sS'Christopher R. Cox'
p5709
I1
sS'Shy Shoham'
p5710
I1
sS'Bikash Joshi'
p5711
I1
sS'Elad Richardson'
p5712
I1
sS'Will Kay'
p5713
I1
sS'Edward Choi'
p5714
I1
sS'Mohak Shah'
p5715
I1
sS'Hai Li'
p5716
I1
sS'Liang Xiao'
p5717
I1
sS'Tivadar Papai'
p5718
I1
sS'Qingqing Huang'
p5719
I1
sS'Nando de Freitas'
p5720
I9
sS'Doina Precup'
p5721
I11
sS'Todd K. Leen'
p5722
I1
sS'Ness B. Shroff'
p5723
I1
sS'Sanghyuk Park'
p5724
I1
sS'Loc Bui'
p5725
I1
sS'Shaul Markovitch'
p5726
I4
sS'Akshay Krishnamurthy'
p5727
I8
sS'Kenneth Lange'
p5728
I1
sS'Priya L. Donti'
p5729
I1
sS'Nicolas Courty'
p5730
I3
sS'Soumith Chintala'
p5731
I1
sS'Robert C. Williamson'
p5732
I5
sS'Jeffrey Regier'
p5733
I2
sS'Yariv Dror Mizrahi'
p5734
I1
sS'C. Mario Christoudias'
p5735
I2
sS'Junzhou Huang'
p5736
I2
sS'Girish Kulkarni'
p5737
I1
sS'Patrice Bertail'
p5738
I1
sS'Sen Song'
p5739
I1
sS'Pierre Alquier'
p5740
I1
sS'Jiashi Feng'
p5741
I8
sS'Lirong Xia'
p5742
I3
sS'Daniel Huang'
p5743
I1
sS'Anne Churchland'
p5744
I1
sS'Felix Bie\xc3\x9fmann'
p5745
I1
sS'Arunava Banerjee'
p5746
I1
sS'Fang Chen'
p5747
I1
sS'Sainbayar Sukhbaatar'
p5748
I2
sS'Ydo Wexler'
p5749
I1
sS'Axel Pinz'
p5750
I1
sS'Yi Xu'
p5751
I3
sS'Christoph Bregler'
p5752
I2
sS'Lei Shi'
p5753
I3
sS'Franz J. Kir\xc3\xa1ly'
p5754
I1
sS'Paul Rivera'
p5755
I1
sS'Stephen H. Bach'
p5756
I2
sS'Rachid Guerraoui'
p5757
I2
sS'Alex Kulesza'
p5758
I6
sS'Georgios Piliouras'
p5759
I1
sS'Feng Yan 0003'
p5760
I2
sS'Marc Tommasi'
p5761
I1
sS'Sebastian Claici'
p5762
I1
sS'Krishnan Kumar'
p5763
I1
sS'Hao Wang 0014'
p5764
I4
sS'Emanuel Todorov'
p5765
I4
sS'Pan Ji'
p5766
I1
sS'Anastasia Pentina'
p5767
I2
sS'Adam Meyerson'
p5768
I1
sS'Diane Bouchacourt'
p5769
I1
sS'Eiichiro Sumita'
p5770
I1
sS'Wei Chen'
p5771
I10
sS'Miaomiao Zhang'
p5772
I1
sS'Won Joon Sohn'
p5773
I1
sS'Richard E. Turner'
p5774
I11
sS'David M. Bradley'
p5775
I1
sS'Matt J. Kusner'
p5776
I4
sS'Michael Hanke'
p5777
I1
sS'Anthony Man-Cho So'
p5778
I3
sS'Todd M. Gureckis'
p5779
I1
sS'Changwei Hu'
p5780
I1
sS'Sylvain Chevallier'
p5781
I1
sS'Chao Chen'
p5782
I2
sS'Alex Beatson'
p5783
I1
sS'Mehmet K. Muezzinoglu'
p5784
I1
sS'Pannagadatta K. Shivaswamy'
p5785
I2
sS'Xinhua Zhang'
p5786
I12
sS'Piotr Dabkowski'
p5787
I1
sS'Moritz Hardt'
p5788
I6
sS'Wei Ping'
p5789
I3
sS'Richard Zhang'
p5790
I1
sS'Yishay Mansour'
p5791
I7
sS'Scott M. Lundberg'
p5792
I1
sS'Ankur P. Parikh'
p5793
I1
sS'Alex Graves'
p5794
I8
sS'Patrick Rebeschini'
p5795
I1
sS'Vince D. Calhoun'
p5796
I2
sS'Yves Grandvalet'
p5797
I3
sS'Boris Ginsburg'
p5798
I1
sS'Danny Segev'
p5799
I1
sS'Tofigh Naghibi Mohamadpoor'
p5800
I1
sS'Tatsuya Hongo'
p5801
I1
sS'Serhii Havrylov'
p5802
I1
sS'Amadou Ba'
p5803
I1
sS'Hermann Ney'
p5804
I1
sS'George Konidaris'
p5805
I6
sS'Marius Pachitariu'
p5806
I4
sS'Haifeng Xia'
p5807
I1
sS'Janardhan Kulkarni'
p5808
I1
sS'Tavian Barnes'
p5809
I1
sS'Peter D. Gr\xc3\xbcnwald'
p5810
I1
sS'Anant Raj'
p5811
I2
sS'Volodymyr Mnih'
p5812
I5
sS'Robert Oostenveld'
p5813
I1
sS'Osbert Bastani'
p5814
I1
sS'Vidyashankar Sivakumar'
p5815
I2
sS'Minhua Chen'
p5816
I1
sS'Roderic A. Grupen'
p5817
I1
sS'Akshay Balsubramani'
p5818
I3
sS'Shumeet Baluja'
p5819
I1
sS'Anitha Kannan'
p5820
I1
sS'Bharath Putta Bath'
p5821
I1
sS'Paul Ruvolo'
p5822
I3
sS'Daniel Milstein'
p5823
I1
sS'Levi Boyles'
p5824
I2
sS'Fran\xc3\xa7ois Laviolette'
p5825
I4
sS'Chris L. Baker'
p5826
I1
sS'Mithun Chakraborty'
p5827
I1
sS'Tatsunori B. Hashimoto'
p5828
I2
sS'Sridhar Mahadevan'
p5829
I3
sS'Hao Wu'
p5830
I1
sS'Harm van Seijen'
p5831
I1
sS'Miao Liu'
p5832
I1
sS'Jeremy C. Weiss'
p5833
I1
sS'Hyunsin Park'
p5834
I1
sS'Pascal Fua'
p5835
I4
sS'Siddharth Gopal'
p5836
I1
sS'Edouard Pauwels'
p5837
I1
sS'Bee-Chung Chen'
p5838
I1
sS'Lars Maal\xc3\xb8e'
p5839
I1
sS'Alexandros Karatzoglou'
p5840
I1
sS'Michael C. Frank'
p5841
I4
sS'Simon S. Du'
p5842
I4
sS'Yingyu Liang'
p5843
I6
sS'Kratarth Goel'
p5844
I1
sS'Paul Nuyujukian'
p5845
I1
sS'Richard Naud'
p5846
I1
sS'Tal Wagner'
p5847
I3
sS'Aditya Balu'
p5848
I1
sS'Chandra Shekhar Dhir'
p5849
I1
sS'Yiming Yang'
p5850
I3
sS'Zhihan Gao'
p5851
I1
sS'David Sheinberg'
p5852
I1
sS'Gary B. Huang'
p5853
I1
sS'Niels Landwehr'
p5854
I2
sS'Renaud Keriven'
p5855
I1
sS'Carey Kloss'
p5856
I1
sS'Dmitry Ostrovsky'
p5857
I1
sS'Soravit Changpinyo'
p5858
I1
sS'Alejandro Ribeiro'
p5859
I3
sS'Ulrich Paquet'
p5860
I3
sS'Nico G\xc3\xb6rnitz'
p5861
I1
sS'Jean-Luc Martinot'
p5862
I1
sS'Guangcan Liu'
p5863
I3
sS'Boqing Gong'
p5864
I3
sS'Michael R. Anderson'
p5865
I1
sS'Christopher K. I. Williams'
p5866
I3
sS'Francois Caron'
p5867
I4
sS'Genevera I. Allen'
p5868
I3
sS'Steven M. Chase'
p5869
I1
sS'David Raposo'
p5870
I1
sS'Milind Tambe'
p5871
I1
sS'Heiko Strathmann'
p5872
I2
sS'Jo\xc3\xa3o F. Henriques'
p5873
I2
sS'Tamir Hazan'
p5874
I7
sS'Rachel Fong'
p5875
I1
sS'Andrew Naish-Guzman'
p5876
I2
sS'Ralph Bourdoukan'
p5877
I2
sS'Jian Yang'
p5878
I1
sS'Joshua Romoff'
p5879
I1
sS'Hiroki Terashima'
p5880
I1
sS'Alexandros G. Dimakis'
p5881
I9
sS'Santosh Mohan'
p5882
I1
sS'Qiong Yan'
p5883
I1
sS'Bruno Weber'
p5884
I1
sS'Alessandro Rudi'
p5885
I6
sS'Alex Kendall'
p5886
I2
sS'J\xc3\xb6rg L\xc3\xbccke'
p5887
I7
sS'Samuel Gershman'
p5888
I4
sS'Christos Louizos'
p5889
I2
sS'Lei Jimmy Ba'
p5890
I1
sS'Qirong Ho'
p5891
I5
sS'G\xc3\xa1bor Lugosi'
p5892
I2
sS'Matteo Hessel'
p5893
I1
sS'Kristin Branson'
p5894
I1
sS'Mastane Achab'
p5895
I1
sS'Thomas L. Griffiths'
p5896
I18
sS'Guido F. Mont\xc3\xbafar'
p5897
I1
sS'Xerxes D. Arsiwalla'
p5898
I1
sS'Konstantinos Zygalakis'
p5899
I1
sS'Zeyuan Allen Zhu'
p5900
I3
sS'Gary R. Bradski'
p5901
I1
sS'Trung Pham'
p5902
I1
sS'James Demmel'
p5903
I1
sS"Luke O'Connor"
p5904
I1
sS'Emmanouil Antonios Platanios'
p5905
I1
sS'Wei Li'
p5906
I1
sS'Nikolai F. Rulkov'
p5907
I1
sS'Antonino Freno'
p5908
I1
sS'Alexandre Lacoste'
p5909
I1
sS'Nathan Silberman'
p5910
I2
sS'Bolin Ding'
p5911
I1
sS'Kiran Koshy Thekumparampil'
p5912
I1
sS'Moustapha Ciss\xc3\xa9'
p5913
I3
sS'Valentin Emiya'
p5914
I1
sS'Ciamac C. Moallemi'
p5915
I1
sS'Robert J. Butera'
p5916
I1
sS'Guillermo Sapiro'
p5917
I7
sS'Jianxin Lin'
p5918
I1
sS'Bruce A. Desmarais'
p5919
I1
sS'Borja Balle'
p5920
I3
sS'Xiaodong He'
p5921
I2
sS'Jianbo Chen'
p5922
I2
sS'Syama Sundar Rangapuram'
p5923
I2
sS'Steven W. Zucker'
p5924
I2
sS'Eran Treister'
p5925
I1
sS'Mikhail I. Rabinovich'
p5926
I1
sS'David Danks'
p5927
I3
sS'Jose Costa Pereira'
p5928
I2
sS'Philip M. Long'
p5929
I5
sS'Maksim Lapin'
p5930
I2
sS'Masrour Zoghi'
p5931
I1
sS'Shane Legg'
p5932
I2
sS'Mohammad Gheshlaghi Azar'
p5933
I2
sS'Marc Peter Deisenroth'
p5934
I3
sS'Christof Koch'
p5935
I2
sS'Jason Altschuler'
p5936
I1
sS'Haoran Tang'
p5937
I1
sS'Martin Azizyan'
p5938
I1
sS'Eric J. Perreault'
p5939
I1
sS'Alejandro F. Bujan'
p5940
I1
sS'John Schulman'
p5941
I4
sS'V\xc3\xadctor Soto'
p5942
I1
sS'Benjamin R. Cowley'
p5943
I1
sS'Jason Pazis'
p5944
I1
sS'Larry S. Davis'
p5945
I3
sS'Nishant A. Mehta'
p5946
I2
sS'Yair Heller'
p5947
I1
sS'Tim Salimans'
p5948
I3
sS'Jessica A. Grahn'
p5949
I1
sS'Sivaraman Balakrishnan'
p5950
I6
sS'Jonathan Weed'
p5951
I1
sS'Vinayak Rao'
p5952
I6
sS'Costas J. Spanos'
p5953
I1
sS'Anil K. Jain 0001'
p5954
I2
sS'Yang Zhou'
p5955
I1
sS'Alexander M. Bronstein'
p5956
I1
sS'Qing Tao'
p5957
I1
sS'Ameet Talwalkar'
p5958
I2
sS'Vladimir Golkov'
p5959
I1
sS'Jonathan Scarlett'
p5960
I2
sS'Yvan Saeys'
p5961
I1
sS'Xavier Boix'
p5962
I1
sS'Ofir David'
p5963
I1
sS'Simon Setzer'
p5964
I2
sS'Yulun Du'
p5965
I1
sS'Danny Bickson'
p5966
I1
sS'Matthias S. Keil'
p5967
I1
sS'Scott Sallinen'
p5968
I1
sS'Dominik Janzing'
p5969
I5
sS'Laetitia Papaxanthos'
p5970
I1
sS'Bipin Rajendran'
p5971
I1
sS'Ruiqi Guo'
p5972
I1
sS'Alberto Maria Metelli'
p5973
I1
sS'Dmitry Molchanov'
p5974
I1
sS'Tohid Ardeshiri'
p5975
I1
sS'Roland Memisevic'
p5976
I3
sS'Min-Oh Heo'
p5977
I1
sS'Yizao Wang'
p5978
I1
sS'Mikhail Yurochkin'
p5979
I3
sS'Afshin Abdi'
p5980
I1
sS'Eli Shechtman'
p5981
I1
sS'Chen-Yu Wei'
p5982
I2
sS'Igor Durdanovic'
p5983
I1
sS'Jiasen Lu'
p5984
I2
sS'James Petterson'
p5985
I7
sS'Philip Resnik'
p5986
I2
sS'Miguel \xc3\x81ngel Bautista'
p5987
I1
sS'Yijun Li'
p5988
I1
sS'William L. Hamilton'
p5989
I1
sS'Michael Isard'
p5990
I1
sS'Pavan K. Turaga'
p5991
I1
sS'Aizhan Ibraimova'
p5992
I1
sS'Alexei A. Efros'
p5993
I4
sS'Matthias Rupp'
p5994
I1
sS'Reihaneh Rabbany'
p5995
I1
sS'Sungsoo Ahn'
p5996
I3
sS'Yuyu Zhang'
p5997
I1
sS'Anne S. Hsu'
p5998
I1
sS'Xinan Wang'
p5999
I1
sS'Quinn Jones'
p6000
I1
sS'Michal Januszewski'
p6001
I1
sS'Matus J. Telgarsky'
p6002
I2
sS'Linus Hamilton'
p6003
I1
sS'Carlton Downey'
p6004
I2
sS'Mark Z. Mao'
p6005
I1
sS'Junpei Komiyama'
p6006
I2
sS'Jaime G. Carbonell'
p6007
I5
sS'Luis Rademacher'
p6008
I2
sS'Cynthia Dwork'
p6009
I1
sS'Paul Hongsuck Seo'
p6010
I1
sS'Bert Huang'
p6011
I1
sS'Pravesh Kothari'
p6012
I1
sS'Dong Dai'
p6013
I1
sS'Kelvin Xu'
p6014
I1
sS'Shu-Tao Xia'
p6015
I1
sS'Raajay Viswanathan'
p6016
I1
sS'Ben Blum'
p6017
I1
sS'Ari Pakman'
p6018
I2
sS'Boris Lesner'
p6019
I1
sS'Mojtaba Sahraee-Ardakan'
p6020
I1
sS'Jorge Aguilera-Iparraguirre'
p6021
I1
sS'Amin Karbasi'
p6022
I8
sS'Eun Jee Lee'
p6023
I1
sS'Mikkel Thorup'
p6024
I1
sS'Xu Sun'
p6025
I1
sS'Yao-Nan Chen'
p6026
I1
sS'Ritvik Mudur'
p6027
I1
sS'Adrian Ion'
p6028
I1
sS'Noah J. Apthorpe'
p6029
I1
sS'Felipe Tobar'
p6030
I1
sS'Sahar Harati'
p6031
I1
sS'Jason S. Hartford'
p6032
I1
sS'Arvind Agarwal'
p6033
I1
sS'Ariel Kleiner'
p6034
I1
sS'Samuel Kaski'
p6035
I2
sS'Lee-Ad Gottlieb'
p6036
I1
sS'Jaouad Mourtada'
p6037
I1
sS'Guy Isley'
p6038
I1
sS'Dan Feldman'
p6039
I3
sS'Chunhua Shen'
p6040
I5
sS'John G. Oberlin'
p6041
I1
sS'Daniel Tranchina'
p6042
I1
sS'Alexander Lorbert'
p6043
I1
sS'David M. Mimno'
p6044
I4
sS'Yu-Chuan Su'
p6045
I1
sS'Martin Kiefel'
p6046
I1
sS'Will Perkins'
p6047
I1
sS'Daniel C. Alexander'
p6048
I1
sS'Nicholas G. Roy'
p6049
I1
sS'Trevor Darrell'
p6050
I14
sS'Virginia Smith'
p6051
I2
sS'Matthias Broecheler'
p6052
I2
sS'Marc-Alexandre C\xc3\xb4t\xc3\xa9'
p6053
I1
sS'Srinadh Bhojanapalli'
p6054
I4
sS'Mohammad Amin Sadeghi'
p6055
I1
sS'Stefan Riezler'
p6056
I1
sS'Chang D. Yoo'
p6057
I1
sS'Simon Lacoste-Julien'
p6058
I9
sS'Tara N. Sainath'
p6059
I1
sS'Faruk Ahmed'
p6060
I1
sS'Kai Zhao'
p6061
I1
sS'L. Stephen Miller'
p6062
I1
sS'Siqi Nie'
p6063
I1
sS'Youwei Zhang'
p6064
I1
sS'Nate Derbinsky'
p6065
I1
sS'Leonidas Lefakis'
p6066
I2
sS'Robert J. Vanderbei'
p6067
I1
sS'David Baldwin'
p6068
I1
sS'Jack Goetz'
p6069
I1
sS'Michael Unser'
p6070
I1
sS'Viliam Lis\xc3\xbd'
p6071
I1
sS'Siddharth Garg'
p6072
I1
sS'Philipp Hennig'
p6073
I6
sS'Michael Mitzenmacher'
p6074
I1
sS'Timothy Harley'
p6075
I1
sS'Jan Grewe'
p6076
I1
sS'Jeff Calder'
p6077
I1
sS'Shaojun Wang'
p6078
I2
sS'Devi Parikh'
p6079
I3
sS'Maximilian Nickel'
p6080
I2
sS'Ji Hyun Bak'
p6081
I1
sS'Brent M. Berry'
p6082
I1
sS'Michael Horrell'
p6083
I1
sS'Sophie Den\xc3\xa8ve'
p6084
I4
sS'Christopher Meek'
p6085
I5
sS'Brian Wojcik'
p6086
I1
sS'Mahdi Karami'
p6087
I1
sS'Dino Sejdinovic'
p6088
I6
sS'Karthikeyan Natesan Ramamurthy'
p6089
I1
sS'Konstantina Palla'
p6090
I1
sS'Angela P. Schoellig'
p6091
I1
sS'Ioakeim Perros'
p6092
I1
sS'Nikhil S. Rao'
p6093
I2
sS'Qihang Lin'
p6094
I5
sS'Santu Rana'
p6095
I1
sS'Carl Vondrick'
p6096
I5
sS'Liang Zhang'
p6097
I1
sS'Kamil Wnuk'
p6098
I1
sS'Michael P. Friedlander'
p6099
I1
sS'Richard Combes'
p6100
I3
sS'David Sontag'
p6101
I7
sS'David J. C. MacKay'
p6102
I1
sS'Sylvestre-Alvise Rebuffi'
p6103
I1
sS'Yevgeniy Vorobeychik'
p6104
I2
sS'Assaf J. Zeevi'
p6105
I1
sS'Jeffrey Johns'
p6106
I1
sS'Pierre Baqu\xc3\xa9'
p6107
I1
sS'Shuai Huang'
p6108
I2
sS'Jun Wang 0017'
p6109
I3
sS'Hugh Salimbeni'
p6110
I1
sS'Robert Mattila'
p6111
I1
sS'Oliver Kroemer'
p6112
I2
sS'Xiaodan Liang'
p6113
I2
sS'Giorgio Patrini'
p6114
I1
sS'S. Hamed Hassani'
p6115
I3
sS'William J. Dally'
p6116
I1
sS'Giacomo Indiveri'
p6117
I3
sS'Baharan Mirzasoleiman'
p6118
I3
sS'Arun Venkatraman'
p6119
I1
sS'Andrey Bernstein'
p6120
I1
sS'Alexandre Maurer'
p6121
I1
sS'St\xc3\xa9phanie Allassonni\xc3\xa8re'
p6122
I2
sS'Jianmin Wang 0001'
p6123
I1
sS'Raghunandan H. Keshavan'
p6124
I1
sS'Laurent Itti'
p6125
I2
sS'Zhi Wei'
p6126
I1
sS'Shiva Prasad Kasiviswanathan'
p6127
I1
sS'Dietmar Ebner'
p6128
I1
sS'Russell A. Poldrack'
p6129
I2
sS'Hau Chan'
p6130
I1
sS'Mathias Niepert'
p6131
I2
sS'Ruihao Zhu'
p6132
I1
sS'Srinivasan Parthasarathy 0001'
p6133
I1
sS'Micha\xc3\xabl Perrot'
p6134
I2
sS'Ying Yang'
p6135
I1
sS'Lennart Svensson'
p6136
I1
sS'Ke Xu'
p6137
I1
sS'Hanna Sumita'
p6138
I1
sS'Kaiser Asif'
p6139
I2
sS'Dmytro Shlezinger'
p6140
I1
sS'Jimmy Ba'
p6141
I4
sS'David R. Hunter'
p6142
I1
sS'Thomas Serre'
p6143
I2
sS'Joseph Jay Williams'
p6144
I1
sS'Haizi Yu'
p6145
I1
sS'Patrick Lucey'
p6146
I1
sS'Ce Zhang'
p6147
I5
sS'Michael Habeck'
p6148
I1
sS'Ian Spiro'
p6149
I1
sS'Gilles Blanchard'
p6150
I3
sS'Lingqiao Liu'
p6151
I1
sS'Chen Change Loy'
p6152
I1
sS'Yingbin Liang'
p6153
I2
sS'Alexander Toshev'
p6154
I1
sS'Steven L. Small'
p6155
I1
sS'Choon Hui Teo'
p6156
I3
sS'Hugo Larochelle'
p6157
I7
sS'Pulkit Tandon'
p6158
I1
sS'Adithya M. Devraj'
p6159
I1
sS'Jie Tang'
p6160
I1
sS'Srinivas C. Turaga'
p6161
I6
sS'Alaa Saade'
p6162
I2
sS'David Schlegel'
p6163
I1
sS'Weilong Yang'
p6164
I2
sS'Yu-Xiang Wang'
p6165
I4
sS'Yunhe Wang'
p6166
I1
sS'John V. Arthur'
p6167
I2
sS'Chao Ruan'
p6168
I1
sS'Nikos K. Logothetis'
p6169
I1
sS'Linsey Xiaolin Pang'
p6170
I1
sS'Joschka Boedecker'
p6171
I1
sS'Vicente L\xc3\xb3pez 0002'
p6172
I1
sS'Danny Barash'
p6173
I1
sS'Henry D. I. Abarbanel'
p6174
I1
sS'Li Yi'
p6175
I1
sS'James Bradbury'
p6176
I1
sS'Pavel Laskov'
p6177
I1
sS'Bill Triggs'
p6178
I1
sS'Tianxiao Shen'
p6179
I1
sS'Tianyu Gu'
p6180
I1
sS'Johannes Rauh'
p6181
I1
sS'Alessandro Farinelli'
p6182
I1
sS'S\xc3\xa9bastien Andler'
p6183
I1
sS'George E. Dahl'
p6184
I1
sS'Zhi-Quan Luo'
p6185
I3
sS'Marc Joliveau'
p6186
I1
sS'Gideon Mann'
p6187
I1
sS'Emanuele Coviello'
p6188
I1
sS'Eric H. Huang'
p6189
I1
sS'Anirudh Goyal'
p6190
I3
sS'Michael C. Mozer'
p6191
I4
sS'Yevgeny Seldin'
p6192
I3
sS'Lauren Hannah'
p6193
I1
sS'Ronan Collobert'
p6194
I2
sS'Anupam Gupta'
p6195
I1
sS'Joshua W. Robinson'
p6196
I1
sS'Changshui Zhang'
p6197
I2
sS'Nicolas Chopin'
p6198
I1
sS'Niru Maheswaranathan'
p6199
I1
sS'Johanni Brea'
p6200
I1
sS'Daniil Ryabko'
p6201
I5
sS'Harri Valpola'
p6202
I4
sS'Georg Langs'
p6203
I1
sS'Yaron Singer'
p6204
I7
sS'James Robert Lloyd'
p6205
I3
sS'Tackgeun You'
p6206
I1
sS'Yi Mao'
p6207
I2
sS'Karl Moritz Hermann'
p6208
I2
sS'Tian Lin'
p6209
I2
sS'Xinyang Gong'
p6210
I1
sS'Rina Dechter'
p6211
I1
sS'Hongyi Zhang'
p6212
I1
sS'Yann N. Dauphin'
p6213
I1
sS'Andreas Ziehe'
p6214
I2
sS'Antti Tarvainen'
p6215
I1
sS'Wenmin Wang'
p6216
I1
sS'Shay B. Cohen'
p6217
I3
sS'Naftali Tishby'
p6218
I3
sS'Ambuj Tewari'
p6219
I20
sS'Andr\xc3\xa9 Barreto'
p6220
I2
sS'Claire Cardie'
p6221
I1
sS'Janardhan Rao Doppa'
p6222
I1
sS'Bilal Piot'
p6223
I3
sS'Tianbao Yang'
p6224
I12
sS'Bartek Rajwa'
p6225
I2
sS'Tieniu Tan'
p6226
I2
sS'michael Murias'
p6227
I1
sS'Behnam Neyshabur'
p6228
I6
sS'Rom Herskovitz'
p6229
I1
sS'Kenneth D. Harris'
p6230
I1
sS'Bilge Mutlu'
p6231
I1
sS'Alexander C. Berg'
p6232
I1
sS'Xiaojie Jin'
p6233
I3
sS'Eunho Yang'
p6234
I7
sS'Adarsh Prasad'
p6235
I3
sS'Andrew Gibiansky'
p6236
I1
sS'Tomoharu Iwata'
p6237
I5
sS'Alex Bewley'
p6238
I1
sS'Hong Wang'
p6239
I1
sS'Mustafa Suleyman'
p6240
I2
sS'Kunihiko Sadamasa'
p6241
I1
sS'Noah Pettit'
p6242
I2
sS'Philip Bradley'
p6243
I1
sS'Shuang Liu'
p6244
I1
sS'Cobi Cario'
p6245
I1
sS'Toshihiko Hosoya'
p6246
I1
sS'Alexander Ilin'
p6247
I2
sS'Alessandro Toigo'
p6248
I1
sS'Peter L. Bartlett'
p6249
I14
sS'Long Tran-Thanh'
p6250
I1
sS'Wojciech Samek'
p6251
I1
sS'Raymond Yeh'
p6252
I1
sS'Maren Westkott'
p6253
I1
sS'Mengye Ren'
p6254
I2
sS'Sunil Kumar Gupta 0001'
p6255
I1
sS'Yura N. Perov'
p6256
I1
sS'Felix Wu'
p6257
I1
sS'Young Hun Jung'
p6258
I1
sS'Qiang Ji'
p6259
I4
sS'Jianwei Yang'
p6260
I2
sS'Katja Seeliger'
p6261
I1
sS'Uri Shalit'
p6262
I3
sS'Hao Su'
p6263
I3
sS'Yufei Tao'
p6264
I1
sS'Hanxiao Liu'
p6265
I1
sS'Fran\xc3\xa7ois Charpillet'
p6266
I1
sS'Qibin Zhao'
p6267
I1
sS'Ji Liu 0002'
p6268
I5
sS'Andreas Veit'
p6269
I1
sS'Jeff A. Bilmes'
p6270
I13
sS'Nathan Srebro'
p6271
I10
sS'Tom\xc3\xa1s Lozano-P\xc3\xa9rez'
p6272
I1
sS'Marco F. Cusumano-Towner'
p6273
I1
sS'Ruslan R. Salakhutdinov'
p6274
I1
sS'Alexander Giessing'
p6275
I1
sS'Jiwon Kim'
p6276
I1
sS'Peggy Seri\xc3\xa8s'
p6277
I2
sS'Ahmed Ibrahim'
p6278
I1
sS'Xiaolin Hu'
p6279
I3
sS'Aryeh Kontorovich'
p6280
I5
sS'Alexandros Kalousis'
p6281
I3
sS'Yongxin Taylor Xi'
p6282
I1
sS'Mike W. Oram'
p6283
I1
sS'Stanislas Lauly'
p6284
I2
sS'Hao Liu'
p6285
I2
sS'Venu Govindaraju'
p6286
I2
sS'Oren Tadmor'
p6287
I1
sS'Christoph Kolodziejski'
p6288
I1
sS'Joseph E. Gonzalez'
p6289
I2
sS'Kai Zhang 0001'
p6290
I1
sS'Kana Shimizu'
p6291
I1
sS'David Sussillo'
p6292
I1
sS'De-Sheng Wang'
p6293
I1
sS'Hema Swetha Koppula'
p6294
I1
sS'R\xc3\xa9mi Emonet'
p6295
I1
sS'Simon J. Godsill'
p6296
I1
sS'Sameer Singh 0001'
p6297
I2
sS'Jing-Cheng Shi'
p6298
I1
sS'Kari Rantanen'
p6299
I1
sS'Francisco Pereira'
p6300
I1
sS'Neil Houlsby'
p6301
I2
sS'Meritxell Vinyals'
p6302
I1
sS'Douwe Kiela'
p6303
I1
sS'Roberto Cipolla'
p6304
I1
sS'Stephen Voinea'
p6305
I1
sS'Christopher J. C. Burges'
p6306
I1
sS'Nguyen Cuong'
p6307
I1
sS'Romain Daniel Caz\xc3\xa9'
p6308
I1
sS'Nan Rosemary Ke'
p6309
I2
sS'Shixiang Chen'
p6310
I1
sS'Seyed Hamidreza Kasaei'
p6311
I1
sS'Daniela M. Witten'
p6312
I1
sS'Matthew Johnson 0003'
p6313
I1
sS'Leonid Karlinsky'
p6314
I1
sS'Nicholas Ruozzi'
p6315
I4
sS'Abhradeep Guha Thakurta'
p6316
I2
sS'Olivier Bachem'
p6317
I1
sS'Simon Barthelm\xc3\xa9'
p6318
I1
sS'Henrik J. Nyman'
p6319
I1
sS'Ivan Laptev'
p6320
I1
sS'Claudio Gentile'
p6321
I8
sS'Marc G. Bellemare'
p6322
I3
sS'Martha White'
p6323
I5
sS'Ken Nagata'
p6324
I1
sS'Igor Mordatch'
p6325
I2
sS'Guiguan Lin'
p6326
I1
sS'Robert B. Gramacy'
p6327
I1
sS'Kyomin Jung'
p6328
I2
sS'Hyun-Soo Choi'
p6329
I1
sS'Aman Sinha'
p6330
I1
sS'Xingguo Li'
p6331
I3
sS'Kfir Y. Levy'
p6332
I5
sS'Andrew D. Bagdanov'
p6333
I1
sS'Michael Jones'
p6334
I1
sS'Elie Bienenstock'
p6335
I1
sS'Yi Ding'
p6336
I1
sS'Marco Gori'
p6337
I1
sS'Chi Wah Wong'
p6338
I1
sS'Karthik Narasimhan'
p6339
I1
sS'Prabhat'
p6340
I3
sS'Dangna Li'
p6341
I2
sS'Michalis K. Titsias'
p6342
I10
sS'Dmitry Adamskiy'
p6343
I1
sS'Seunghak Lee'
p6344
I3
sS'Matthew Urry'
p6345
I2
sS'Tian Tian 0001'
p6346
I1
sS'Daniel Russo 0001'
p6347
I4
sS'Wojciech Zaremba'
p6348
I6
sS'Thodoris Lykouris'
p6349
I1
sS'Pinyan Lu'
p6350
I1
sS'Jenna Wiens'
p6351
I2
sS'Shuangfei Zhai'
p6352
I1
sS'Yanyan Lan'
p6353
I2
sS'Armand Joulin'
p6354
I4
sS'Peter Haider'
p6355
I1
sS'Bernhard Sch\xc3\xb6lkopf'
p6356
I27
sS'Nasser M. Nasrabadi'
p6357
I1
sS'Vasilis Syrgkanis'
p6358
I6
sS'Jorge Nocedal'
p6359
I2
sS'Jonathan Long'
p6360
I1
sS'Daniel J. Lizotte'
p6361
I1
sS'Hao Henry Zhou'
p6362
I1
sS'Peter I. Frazier'
p6363
I4
sS'Qiang Yang 0001'
p6364
I2
sS'Dimitris Stamos'
p6365
I1
sS'Hongjie Bai'
p6366
I1
sS'Abir De'
p6367
I1
sS'Wenjie Luo'
p6368
I2
sS'Philipp Batz'
p6369
I1
sS'St\xc3\xa9phanie van der Pas'
p6370
I1
sS'Shuai Xiao'
p6371
I1
sS'Geremy Heitz'
p6372
I2
sS'Zihang Dai'
p6373
I2
sS'Nizar Bouguila'
p6374
I1
sS'Srihari Cadambi'
p6375
I1
sS'Kai Fan'
p6376
I4
sS'Donghui Yan'
p6377
I1
sS'Eric W. Tramel'
p6378
I1
sS'Zahra Ghodsi'
p6379
I1
sS'Wai-Kin Wong'
p6380
I2
sS'Renjie Liao'
p6381
I1
sS'Josef Urban'
p6382
I1
sS'Hannes Nickisch'
p6383
I3
sS'Zhenyu Lai'
p6384
I1
sS'Marwan A. Mattar'
p6385
I1
sS'Eric Leuthardt'
p6386
I1
sS'Karen Simonyan'
p6387
I4
sS'Kartik Ahuja'
p6388
I1
sS'Chansoo Lee'
p6389
I2
sS'Yan Karklin'
p6390
I2
sS'Xiangchu Feng'
p6391
I1
sS'Pablo A. Parrilo'
p6392
I1
sS'Garvesh Raskutti'
p6393
I3
sS'Yevgen Chebotar'
p6394
I1
sS'Daniel Haas'
p6395
I1
sS'Felix Berkenkamp'
p6396
I2
sS'Manuel Blum 0002'
p6397
I1
sS'Wanli Ma'
p6398
I1
sS'Sougata Chaudhuri'
p6399
I1
sS'Raghu Ramakrishnan'
p6400
I1
sS'Mich\xc3\xa8le Sebag'
p6401
I1
sS'Thomas Laurent 0001'
p6402
I3
sS'Eric Balkanski'
p6403
I4
sS'Xiao Cai'
p6404
I1
sS'Joonseok Lee'
p6405
I1
sS'Peng Wang 0001'
p6406
I1
sS'Eyke H\xc3\xbcllermeier'
p6407
I4
sS'Alexander T. Ihler'
p6408
I10
sS'Zhi-Hua Zhou'
p6409
I10
sS'Jack W. Rae'
p6410
I1
sS'Ning Chen'
p6411
I2
sS'Purushottam Kar'
p6412
I8
sS'Poorya Mianjy'
p6413
I1
sS'Julian Straub'
p6414
I1
sS'M. M. Mahmud'
p6415
I1
sS'Percy S. Liang'
p6416
I4
sS'Georgios Exarchakis'
p6417
I2
sS'Wonyong Sung'
p6418
I1
sS'Zhirong Yang'
p6419
I3
sS'Kieran Milan'
p6420
I1
sS'Csaba Szepesv\xc3\xa1ri'
p6421
I23
sS'Ignacio Tartavull'
p6422
I1
sS'James Bergstra'
p6423
I2
sS'Carl E. Rasmussen'
p6424
I4
sS'Yuxun Zhou'
p6425
I1
sS'Ramya Korlakai Vinayak'
p6426
I2
sS'Jennifer Tam'
p6427
I1
sS'Guillermo D. Ca\xc3\xb1as'
p6428
I3
sS'Philip Sterne'
p6429
I1
sS'Ksenia Konyushkova'
p6430
I1
sS'Takanori Maehara'
p6431
I1
sS'Mengdi Wang'
p6432
I2
sS'Robert Martin'
p6433
I1
sS'Andre Martins'
p6434
I1
sS'Aleksey Tikhonov'
p6435
I1
sS'Yusuf Kenan Yilmaz'
p6436
I1
sS'Vandana Kanchanapally'
p6437
I1
sS'Markus Heinonen'
p6438
I1
sS'Siyuan Ma'
p6439
I1
sS'Mahsa Derakhshan'
p6440
I1
sS'Xinwei Sun 0001'
p6441
I1
sS'Lakshminarayanan Subramanian'
p6442
I1
sS'Ariel D. Procaccia'
p6443
I5
sS'Jos\xc3\xa9 Bento'
p6444
I4
sS'Guillaume Lample'
p6445
I1
sS'Ioannis Mitliagkas'
p6446
I2
sS'Nicholas A. Steinmetz'
p6447
I1
sS'Marthinus Christoffel du Plessis'
p6448
I4
s.