(dp1
S'Andrew Kane'
p2
I2
sS'Haitao Li'
p3
I1
sS'Liang Kong'
p4
I1
sS'Ga\xc3\xabl Dias'
p5
I3
sS'Xiaoye Wu'
p6
I1
sS'Giovanni Da San Martino'
p7
I3
sS'Anne N. De Roeck'
p8
I2
sS'John Chen'
p9
I1
sS'Jung-Tae Lee'
p10
I5
sS'Zhouchen Lin'
p11
I2
sS'Masanao Ochi'
p12
I1
sS'Carla Lopes'
p13
I1
sS'Giuseppe Santucci'
p14
I1
sS'Robert Villa'
p15
I6
sS'Emily Vardell'
p16
I1
sS'Katja Hofmann'
p17
I5
sS'Manish Gupta'
p18
I3
sS'Jungyun Seo'
p19
I1
sS'Shengcai Liao'
p20
I1
sS'Ismail Sengor Altingovde'
p21
I1
sS'Vanessa Pe\xc3\xb1a Murdock'
p22
I1
sS'Chee-Yong Chan'
p23
I1
sS'Gui-Rong Xue'
p24
I5
sS'Thilo B\xc3\xb6hm'
p25
I1
sS'Paolo Ferragina'
p26
I1
sS'Luis A. Leiva'
p27
I1
sS'Yury Ustinovskiy'
p28
I1
sS'Fazli Can'
p29
I4
sS'Yoshua Bengio'
p30
I1
sS'Dongho Choi'
p31
I1
sS'Mouna Kacimi'
p32
I2
sS'Long Jiang'
p33
I1
sS'Sajib Dasgupta'
p34
I1
sS'Mor Naaman'
p35
I1
sS'Wei Zhou'
p36
I2
sS'Aparajita Sen'
p37
I1
sS'Vasiliki Simaki'
p38
I1
sS'Zhaoyan Ming'
p39
I5
sS'Ali Montazeralghaem'
p40
I3
sS'Piji Li'
p41
I1
sS'Kevin Haas'
p42
I2
sS'Haoran Wang'
p43
I1
sS'Rodney McDonell'
p44
I1
sS'Ryohei Orihara'
p45
I1
sS'Keyang Zhang'
p46
I1
sS'Edwin van Huis'
p47
I1
sS'Cristina Videira Lopes'
p48
I1
sS'Bo Song'
p49
I1
sS'Simon Gog'
p50
I2
sS'Christopher W. Johnson 0001'
p51
I1
sS'Shengliang Xu'
p52
I2
sS'Jinhui Tang'
p53
I1
sS'Wei Lai'
p54
I2
sS'Xuanhui Wang'
p55
I5
sS'Kuniaki Uehara'
p56
I2
sS'Hannu Toivonen'
p57
I1
sS'Boon-Siew Seah'
p58
I1
sS'Chuan-Ju Wang'
p59
I1
sS'Raffaele Perego'
p60
I11
sS'Alessandro Moschitti'
p61
I10
sS'Yosi Mass'
p62
I2
sS'Jahna Otterbacher'
p63
I1
sS'Minghao Han'
p64
I1
sS'Alexandru Tandrau'
p65
I1
sS'Anton Mityagin'
p66
I1
sS'Kai-Fu Lee'
p67
I1
sS'Wanhong Xu'
p68
I1
sS'Yen-Chieh Lien'
p69
I1
sS'Henry Tan'
p70
I1
sS'Ido Guy'
p71
I9
sS'Martin Jansche'
p72
I1
sS'Heung-Yeung Shum'
p73
I1
sS'Fabio Simeoni'
p74
I1
sS'Weihong Deng'
p75
I1
sS'Lantao Yu'
p76
I1
sS'Manish Gupta 0001'
p77
I3
sS'Duncan McDougall'
p78
I1
sS'Gang Zhao'
p79
I1
sS'Dong Cao'
p80
I1
sS'Xuwang Yin'
p81
I1
sS'Jun Xiao 0001'
p82
I3
sS'Xi Zhang'
p83
I1
sS'Yunqiao Zhang'
p84
I1
sS'Francesco Saverio Nucci'
p85
I1
sS'Ning Gao'
p86
I3
sS'Anthony Wirth'
p87
I1
sS'Ying Zhang'
p88
I4
sS'Victor Lavrenko'
p89
I3
sS'Maryam Bashir'
p90
I1
sS'Sonja de Leeuw'
p91
I1
sS'Ville T. Turunen'
p92
I1
sS'Kazuhiro Seki'
p93
I2
sS'Wei Wu'
p94
I2
sS'Flavio Paiva Junqueira'
p95
I4
sS'Xiaoxue Zhao'
p96
I1
sS'Francesco Nidito'
p97
I1
sS'Shigehiko Schamoni'
p98
I1
sS'David W. Cheung'
p99
I1
sS'Andreu Vall'
p100
I1
sS'Jingfang Xu'
p101
I4
sS'Michael A. S. Potts'
p102
I1
sS'Marco Angelini'
p103
I1
sS'Rong Xiao'
p104
I1
sS'David D. Lewis'
p105
I2
sS'Jussara M. Almeida'
p106
I3
sS'Yuanbin Wu'
p107
I1
sS'Roeland Ordelman'
p108
I1
sS'Christina Lioma'
p109
I8
sS'Lime Iida'
p110
I1
sS'Ni Lao'
p111
I1
sS'Svein Erik Bratsberg'
p112
I2
sS'Cyril Goutte'
p113
I4
sS'Sheng Li 0001'
p114
I1
sS'Michael Granitzer'
p115
I2
sS'Kwan Hui Lim'
p116
I1
sS'Rikio Chiba'
p117
I1
sS'Annalina Caputo'
p118
I1
sS'Michael J. Cole'
p119
I4
sS'Vladimir Dobrynin'
p120
I1
sS'Xin Jin'
p121
I3
sS'Yun Chi'
p122
I2
sS'Tom Kenter'
p123
I1
sS'Stevan Rudinac'
p124
I1
sS'Aoying Zhou'
p125
I3
sS'Shin-ichi Nakayama'
p126
I1
sS'Tao Qin'
p127
I5
sS'Guangyu Zhou'
p128
I1
sS'Ryan Ma'
p129
I1
sS'Richard G. Jackson'
p130
I1
sS'Martine De Cock'
p131
I1
sS'Zongcheng Ji'
p132
I1
sS'Ruey-Cheng Chen'
p133
I3
sS'Zhiyuan Cheng'
p134
I2
sS'Sosuke Shiga'
p135
I1
sS'Yu Cheng'
p136
I1
sS'Yijun Pei'
p137
I1
sS'Vikas Sindhwani'
p138
I1
sS'Sachindra Joshi'
p139
I1
sS'Jimmy J. Lin'
p140
I25
sS'Narayan Bhamidipati'
p141
I1
sS'Bamdad Bahrani'
p142
I1
sS'Li Gang Wu'
p143
I1
sS'Ji Wang'
p144
I1
sS'Lukasz Raczkowski'
p145
I1
sS'Jiang-Ming Yang'
p146
I2
sS'Steven Schockaert'
p147
I4
sS'Sadegh Kharazmi'
p148
I2
sS'Maik Anderka'
p149
I3
sS'Yifan Chen'
p150
I1
sS'Julio Gonzalo'
p151
I5
sS'Qiaozhu Mei'
p152
I5
sS'Dwaipayan Roy'
p153
I1
sS'Konstantin Avrachenkov'
p154
I1
sS'Ashlee Edwards'
p155
I2
sS'Giuseppe Amodeo'
p156
I1
sS'Keat Keong Phang'
p157
I1
sS'Elad Yom-Tov'
p158
I5
sS'Brian Davis'
p159
I2
sS'Marc Bron'
p160
I5
sS'Fan Ding'
p161
I1
sS'Masrour Zoghi'
p162
I1
sS'Ryen W. White'
p163
I43
sS'Rong Hu'
p164
I1
sS'Vanessa Pe\xc3\xb1a Araya'
p165
I2
sS'Kaspar Beelen'
p166
I1
sS'Pallika H. Kanani'
p167
I1
sS'Andrey Goder'
p168
I1
sS'Cheng-Lun Yang'
p169
I1
sS'Xingwei Zhu'
p170
I1
sS'Jos van der Velde'
p171
I1
sS'Guanggang Geng'
p172
I1
sS'Bodo Billerbeck'
p173
I2
sS'Jiguang Liang'
p174
I1
sS'Minh C. Phan'
p175
I2
sS'Yevgeny Seldin'
p176
I1
sS'Hsiao-Wuen Hon'
p177
I1
sS'\xc3\x96zg\xc3\xbcr Ulusoy'
p178
I6
sS'Zhe Zhao'
p179
I1
sS'Altigran Soares da Silva'
p180
I2
sS'Daniel Xavier de Sousa'
p181
I1
sS'Ping-Jung Wu'
p182
I1
sS'Bo Liu 0005'
p183
I1
sS'Athena Vakali'
p184
I1
sS'Boaz Petersil'
p185
I1
sS'Mario Lipinski'
p186
I1
sS'Mike Mathieson'
p187
I1
sS'Yi Ma'
p188
I1
sS'Florin Teodorescu'
p189
I1
sS"John O'Neil"
p190
I1
sS'Qi Tian'
p191
I2
sS'Hanglin Pan'
p192
I1
sS'Yan Wu'
p193
I1
sS'Wenting Liu'
p194
I1
sS'Yeogirl Yun'
p195
I1
sS'Jing Qian'
p196
I1
sS'Oswald Barral'
p197
I1
sS'Shahab Kamali'
p198
I1
sS'Brian Brost'
p199
I1
sS'Hong-Jiang Zhang'
p200
I1
sS'Matthias Weidlich'
p201
I1
sS'Alexander Lerch'
p202
I1
sS'Cathal Gurrin'
p203
I1
sS'Liadh Kelly'
p204
I3
sS'Lidan Shou'
p205
I11
sS'Jinwook Seo'
p206
I1
sS'Bhaskar Mitra'
p207
I6
sS'Wan-Ching Wu'
p208
I5
sS'Tie-Yan Liu'
p209
I11
sS'Kyle Williams'
p210
I2
sS'Udayan Khurana'
p211
I1
sS'Xianzhi Wang'
p212
I1
sS'Zheng Wei'
p213
I1
sS'Chi-Yin Chow'
p214
I1
sS'Bob Goodwin'
p215
I1
sS'Dan Pelleg'
p216
I4
sS'Le Sun'
p217
I1
sS'Marti A. Hearst'
p218
I2
sS'Binxing Jiao'
p219
I1
sS'Qin Jin'
p220
I1
sS'Mohand Boughanem'
p221
I2
sS'Atanaz Babashzadeh'
p222
I1
sS'Robert-Jan Bruintjes'
p223
I1
sS'Minyi Guo'
p224
I2
sS'Alejandro Moreo'
p225
I1
sS'Jungi Kim'
p226
I1
sS'Rolf Jagerman'
p227
I1
sS'Weiwei Guo'
p228
I1
sS'Ronny Lempel'
p229
I1
sS'Irene Ros'
p230
I1
sS'Xingjie Liu'
p231
I1
sS'Kate McArdle'
p232
I1
sS'David Hauger'
p233
I1
sS'Steven Euijong Whang'
p234
I1
sS'Jeff Huang 0002'
p235
I3
sS'Lei Cen'
p236
I1
sS'Licia Capra'
p237
I2
sS'Alia Amin'
p238
I1
sS'Ning Zhang'
p239
I3
sS'Rui Zhang'
p240
I1
sS'Kono Kim'
p241
I1
sS'Hui Li'
p242
I1
sS'Ram Akella'
p243
I3
sS'Yi Deng'
p244
I1
sS'Ing-Xiang Chen'
p245
I1
sS'William Webber'
p246
I13
sS'M\xc3\xa1rio J. Silva'
p247
I1
sS'Adam Roegiest'
p248
I10
sS'Dragos C. Anastasiu'
p249
I1
sS'Zhengbao Jiang'
p250
I1
sS'Kun Huang'
p251
I1
sS'Tingting He'
p252
I3
sS'Tak-Lam Wong'
p253
I2
sS'J. Shane Culpepper'
p254
I10
sS'Po Hu'
p255
I1
sS'Fabrizio Sebastiani 0001'
p256
I3
sS'Eduard C. Hoenkamp'
p257
I1
sS'Yen-Ta Huang'
p258
I1
sS'Alexey Grigorev'
p259
I1
sS'Avneesh Sud'
p260
I2
sS'Guwen Feng'
p261
I1
sS'Murat Demirbas'
p262
I1
sS'Jiajun Bu'
p263
I7
sS'Matthieu Morel'
p264
I1
sS'Stephan Raaijmakers'
p265
I1
sS'Chao Chen'
p266
I1
sS'Dawei Yin'
p267
I4
sS'J. Scott McCarley'
p268
I2
sS'Ida Mele'
p269
I4
sS'Dongyan Zhao'
p270
I1
sS'Anagha Kulkarni'
p271
I1
sS'Jochen L. Leidner'
p272
I3
sS'Gaurav Baruah'
p273
I3
sS'Luca Telloli'
p274
I1
sS'Peter Triantafillou'
p275
I1
sS'Yu Gong'
p276
I1
sS'Lei Zhang 0001'
p277
I7
sS'Patrik Flor\xc3\xa9en'
p278
I1
sS'Nikita Povarov'
p279
I1
sS'Zhihao Yang'
p280
I1
sS'Zhengya Sun'
p281
I1
sS'Ajay Shekhawat'
p282
I1
sS'Yexi Jiang'
p283
I1
sS'Karthik Raghunathan'
p284
I1
sS'Aleksandrs Slivkins'
p285
I1
sS'Kjetil N\xc3\xb8rv\xc3\xa5g'
p286
I5
sS'Andrei Popescu-Belis'
p287
I2
sS'Antal van den Bosch'
p288
I1
sS'Niladri Sett'
p289
I1
sS'Jonathan Koren'
p290
I1
sS'James Mayfield'
p291
I2
sS'Gary William Flake'
p292
I1
sS'Adriano Veloso'
p293
I3
sS'Charu C. Aggarwal'
p294
I1
sS'Alpa Jain'
p295
I1
sS'James Allan'
p296
I24
sS'Lei Li 0001'
p297
I5
sS'Nimesh Ghelani'
p298
I1
sS'In-Su Kang'
p299
I1
sS'Ya Zhang'
p300
I2
sS'Josiane Mothe'
p301
I2
sS'Bo-June Paul Hsu'
p302
I3
sS'Virgiliu Pavlu'
p303
I6
sS'Peter Bailey'
p304
I11
sS'Karla L. Caballero Espinosa'
p305
I1
sS'Steven M. Beitzel'
p306
I1
sS'Vladimir Kukushkin'
p307
I1
sS'Qiang Hao'
p308
I1
sS'Sethuramalingam Subramaniam'
p309
I1
sS'Quan Wang'
p310
I2
sS'Andreas Schmidt'
p311
I1
sS'Vladimir Estivill-Castro'
p312
I1
sS'Lidan Wang'
p313
I3
sS'Sean Moran'
p314
I4
sS'Shuai Yuan'
p315
I2
sS'Bo Thiesson'
p316
I1
sS'Abu Shamim Mohammad Arif'
p317
I1
sS'Jose G. Moreno'
p318
I2
sS'Mathias Breuss'
p319
I1
sS'Graham McDonald'
p320
I1
sS'Shu Wu'
p321
I4
sS'Hee-Seon Park'
p322
I1
sS'Rianne Kaptein'
p323
I4
sS'Anjie Fang'
p324
I4
sS'Eyal Krikon'
p325
I1
sS'Meihong Zheng'
p326
I1
sS'Yajie Hu'
p327
I1
sS'Shaowen Wang'
p328
I1
sS'Tal Daniel'
p329
I1
sS'Shan Jiang'
p330
I1
sS'Yu Zhang'
p331
I2
sS'Fei Wu 0001'
p332
I5
sS'Idir Chibane'
p333
I1
sS'Sixing Wu'
p334
I1
sS'Mert Bay'
p335
I1
sS'Jiani Hu'
p336
I1
sS'Ata Turk'
p337
I1
sS'Jin Liang'
p338
I1
sS'Shanshan Li'
p339
I1
sS'Maria-Hendrike Peetz'
p340
I2
sS'Sheng Wu'
p341
I1
sS'Yangbo Zhu'
p342
I1
sS'Ridho Reinanda'
p343
I1
sS'Jiebo Luo'
p344
I2
sS'Mahmood Quaderi'
p345
I1
sS'Nieves R. Brisaboa'
p346
I1
sS'Jingang Wang'
p347
I1
sS'Yulu Wang'
p348
I1
sS'Mounia Lalmas'
p349
I9
sS'Ling Chen'
p350
I1
sS'Martin Ester'
p351
I2
sS'Daniel Knox'
p352
I1
sS'Guoqing Zheng'
p353
I4
sS'Andrew Jie Zhou'
p354
I1
sS'Pengcheng Wu'
p355
I2
sS'Nina Mishra'
p356
I2
sS'Carla Teixeira Lopes'
p357
I1
sS'Kai Wang'
p358
I3
sS'Tsvetan Yordanov'
p359
I1
sS'Gisele L. Pappa'
p360
I1
sS'Seung-Wook Lee'
p361
I3
sS'Sunandan Chakraborty'
p362
I1
sS'Lide Wu'
p363
I1
sS'Ming Ji'
p364
I1
sS'Constantinos Dimopoulos'
p365
I2
sS'Hua Wang'
p366
I1
sS'Jiyun Luo'
p367
I5
sS'Thomas Hofmann'
p368
I1
sS'Liliana Calder\xc3\xb3n-Benavides'
p369
I1
sS'Miguel Martinez-Alvarez'
p370
I3
sS'Arnd Christian K\xc3\xb6nig'
p371
I3
sS'Dmitri V. Kalashnikov'
p372
I1
sS'Jun Xu'
p373
I5
sS'Rute Frias'
p374
I1
sS'Liang Wang 0001'
p375
I3
sS'Tony Russell-Rose'
p376
I2
sS'Maarten Marx'
p377
I2
sS'Bingjie Wei'
p378
I1
sS'Ryan Burton'
p379
I2
sS'David Martins de Matos'
p380
I1
sS'Hein R\xc3\xb6hrig'
p381
I1
sS'Wei Zhao'
p382
I1
sS'Tang Enya Kong'
p383
I1
sS'David Ye'
p384
I1
sS'Jihua Kang'
p385
I1
sS'Jinwoo Kim'
p386
I1
sS'Sumit Bhatia'
p387
I2
sS'Rong Jin'
p388
I2
sS'Ivan Samborskii'
p389
I1
sS'Zhiqian Zhang'
p390
I1
sS'Noriaki Kawamae'
p391
I2
sS'Andreas N\xc3\xbcrnberger'
p392
I3
sS'Kristina Toutanova'
p393
I1
sS'Yi Chang'
p394
I11
sS'Bora Edizel'
p395
I1
sS'Erkan Uyar'
p396
I1
sS'Heng Ji'
p397
I1
sS'John H. L. Hansen'
p398
I1
sS'Heikki Keskustalo'
p399
I3
sS'Shuxin Wang'
p400
I2
sS'Maria Han Veiga'
p401
I1
sS'Stefan M. R\xc3\xbcger'
p402
I2
sS'Miao Jiang 0004'
p403
I1
sS'Qing Tao'
p404
I1
sS'Xutao Li'
p405
I1
sS'Takehiro Yamamoto'
p406
I8
sS'Shuai Li'
p407
I1
sS'Krishnaram Kenthapadi'
p408
I2
sS'Xiangmin Zhang'
p409
I2
sS'M. Cameron Jones'
p410
I2
sS'Darren Wei Che Huang'
p411
I1
sS'Jile Zhou'
p412
I1
sS'Ralf Schenkel'
p413
I9
sS'Yunfei Chen'
p414
I1
sS'Laurence Anthony F. Park'
p415
I3
sS'Weilong Yao'
p416
I1
sS'Xiaohui Sun'
p417
I1
sS'Julie A. McCann'
p418
I1
sS'Jean-Pierre Chevallet'
p419
I2
sS'Jun Araki'
p420
I1
sS'Leandro Balby Marinho'
p421
I1
sS'Mario Almagro-C\xc3\xa1diz'
p422
I1
sS'Gloria Bordogna'
p423
I2
sS'Dimitris Pontikis'
p424
I1
sS'Ralf Bierig'
p425
I2
sS'Javed Mostafa'
p426
I3
sS'Christof Monz'
p427
I1
sS'Cheng Wang 0001'
p428
I1
sS'Idan Szpektor'
p429
I6
sS'Alvaro Barreiro'
p430
I4
sS'Lorraine Goeuriot'
p431
I4
sS'Yi Zhen'
p432
I1
sS'Brian D. Davison 0001'
p433
I13
sS'Mihai Georgescu'
p434
I1
sS'Ian MacKinnon'
p435
I1
sS'Philipp Mayr'
p436
I2
sS'Robert Wing Pong Luk'
p437
I1
sS'Frank McSherry'
p438
I1
sS'Charlotte Laclau'
p439
I1
sS'Qingyun Wu'
p440
I1
sS'Jonathan Mamou'
p441
I2
sS'Thomas L\xc3\xbcke'
p442
I1
sS'Xiaofang Zhou'
p443
I1
sS'Yuichiro Someya'
p444
I1
sS'Ophir Frieder'
p445
I4
sS'Paul Thomas'
p446
I12
sS'Marilyn Ostergren'
p447
I1
sS'Yongjing Lin'
p448
I1
sS'Sabrina Chandrasekaran'
p449
I1
sS'Qiang Wu'
p450
I2
sS'Tony Abou-Assaleh'
p451
I2
sS'Timothy G. Armstrong'
p452
I2
sS'Nattiya Kanhabua'
p453
I9
sS'Qinming He'
p454
I2
sS'Guy Shani'
p455
I1
sS'Sergio Duarte Torres'
p456
I1
sS'Baobao Chang'
p457
I1
sS'Benjamin Rey'
p458
I1
sS'Ariel Raviv'
p459
I2
sS'Xiao Hu'
p460
I1
sS'Pavel Yudin'
p461
I1
sS'Yunlong He'
p462
I1
sS'Ming Zhong 0002'
p463
I1
sS'Padmini Srinivasan'
p464
I2
sS'Chao Liu'
p465
I3
sS'Andr\xc3\xa9 Bois-Crettez'
p466
I1
sS'Fei Cai'
p467
I3
sS'Florian B\xc3\xa4urle'
p468
I1
sS'Wing-Kai Hon'
p469
I1
sS'Luo Si'
p470
I27
sS'Kevin Chiew'
p471
I2
sS'Tiago Rodrigues'
p472
I1
sS'Renato Ferreira'
p473
I2
sS'Dou Shen'
p474
I4
sS'Myungha Jang'
p475
I1
sS'Willemijn van Dolen'
p476
I1
sS'Fabiano Bel\xc3\xa9m'
p477
I2
sS'Stephen Hailes'
p478
I2
sS'Yong Ki Lee'
p479
I1
sS'Shiv Vitaladevuni'
p480
I1
sS'Bernard J. Jansen'
p481
I2
sS'Bin Wang 0004'
p482
I6
sS'T. L. Prasanna Venkatesan'
p483
I1
sS'Serge Zagorac'
p484
I1
sS'Vishwa Vinay'
p485
I3
sS'Yuefen Wang'
p486
I2
sS'K. Sel\xc3\xa7uk Candan'
p487
I1
sS'Roberto I. Gonz\xc3\xa1lez-Ib\xc3\xa1\xc3\xb1ez'
p488
I1
sS'Adrian Popescu 0001'
p489
I1
sS'Kathy Brennan'
p490
I1
sS'Lujun Fang'
p491
I1
sS'Ashraf Bah'
p492
I1
sS'Peter Mika'
p493
I4
sS'Adi Omari'
p494
I1
sS'Nicholas J. Belkin'
p495
I11
sS'Alexey Tikhonov'
p496
I1
sS'Jacek Gwizdka'
p497
I7
sS'Longhui Zhang'
p498
I1
sS'Maria P. Grineva'
p499
I1
sS'Yukai Miao'
p500
I1
sS'Maria Soledad Pera'
p501
I2
sS'Shinsuke Mori'
p502
I1
sS'Yong Cheng'
p503
I2
sS'Zhijing Wu'
p504
I1
sS'Zhiwei Liu'
p505
I1
sS'Christopher G. Harris 0001'
p506
I2
sS'Zhenfeng Zhu'
p507
I1
sS'Bo-Sin Chang'
p508
I1
sS'Christopher D. Manning'
p509
I1
sS'Parisa Lak'
p510
I1
sS'Jean-Fran\xc3\xa7ois Paiement'
p511
I1
sS'Anirban Chakraborty'
p512
I1
sS'Denilson Barbosa'
p513
I1
sS'Andreas Spitz'
p514
I1
sS'Chris Jordan'
p515
I1
sS'Tao Lian'
p516
I1
sS'Kazuo Hara'
p517
I2
sS'K\xc3\xa5re M\xc3\xb8lbak'
p518
I1
sS'Liang Shi'
p519
I1
sS'Dogan Can'
p520
I1
sS'Kisuh Ahn'
p521
I1
sS'Thao P. Nghiem'
p522
I1
sS'Wei Chen 0005'
p523
I1
sS'Emmanuel Malherbe'
p524
I1
sS'Aneesh Vartakavi'
p525
I1
sS'Steffen Rendle'
p526
I1
sS'Edward Cutrell'
p527
I1
sS'Jeong-Min Yun'
p528
I1
sS'Ke Wang'
p529
I2
sS'Luca Maria Aiello'
p530
I3
sS'Areej Alasiry'
p531
I1
sS'Harrisen Scells'
p532
I2
sS'Zhefeng Wang'
p533
I1
sS'Keyang Xu'
p534
I1
sS'Mohamed Nadif'
p535
I1
sS'Samaneh Moghaddam'
p536
I2
sS'Sandeep Pandey'
p537
I1
sS'Maria Luisa Sapino'
p538
I1
sS'Ismet Zeki Yalniz'
p539
I2
sS'Naveen Kumar Sharma'
p540
I1
sS'Quan Yuan'
p541
I4
sS'Stephen Robertson'
p542
I7
sS'Jin Zhang'
p543
I1
sS'Jimmy Lin'
p544
I7
sS'Yun Fu 0001'
p545
I1
sS'Derek Wu'
p546
I1
sS'Weiran Xu'
p547
I2
sS'Milos Hauskrecht'
p548
I2
sS'Franciska de Jong'
p549
I4
sS'Yuli Gao'
p550
I1
sS'Wenjie Zhang'
p551
I3
sS'Kenny Davila'
p552
I3
sS'Gavin Owens'
p553
I1
sS'Craig MacDonald'
p554
I1
sS'Vyacheslav Alipov'
p555
I1
sS'Sudip Datta'
p556
I1
sS'Chunfeng Yang'
p557
I1
sS'Junjun Li'
p558
I1
sS'Jiafeng Guo'
p559
I16
sS'Linh Thai Nguyen'
p560
I1
sS'Rajesh Patel'
p561
I1
sS'Fabian M. Suchanek'
p562
I1
sS'Weize Kong'
p563
I3
sS'Pradheep Elango'
p564
I1
sS'Wei Peng 0001'
p565
I2
sS'Yong Li'
p566
I1
sS'Stefan Savev'
p567
I3
sS'Oskar Gross'
p568
I1
sS'Qiao Liu'
p569
I1
sS'Benjamin Piwowarski'
p570
I4
sS'Mao-Lin Li'
p571
I1
sS'Jiwon Hong'
p572
I1
sS'Jesse Anderton'
p573
I1
sS'Gabriella Pasi'
p574
I5
sS'Miguel Costa'
p575
I1
sS'W. Bruce Croft'
p576
I40
sS'Moshe Tennenholtz'
p577
I2
sS'Yunzhang Zhu'
p578
I1
sS'Hugo C. Huurdeman'
p579
I1
sS'Danil Nemirovsky'
p580
I1
sS'Maya Ramanath'
p581
I2
sS'Huizhong Duan'
p582
I1
sS'Yunjian Zhao'
p583
I1
sS"Jun'ichi Tsujii"
p584
I1
sS'Adam Stepinski'
p585
I1
sS'Paul Tarjan'
p586
I1
sS'Gary Geunbae Lee'
p587
I1
sS'Liang-Chi Hsieh'
p588
I2
sS'Qiang Liu 0006'
p589
I2
sS'Ludovic Dos Santos'
p590
I1
sS'Xiaofei Zhu'
p591
I3
sS'C. J. van Rijsbergen'
p592
I3
sS'YoonHee Choi'
p593
I1
sS'Taifeng Wang'
p594
I1
sS'Ikumi Suzuki'
p595
I2
sS'Shipeng Li'
p596
I2
sS'Filipa Peleja'
p597
I1
sS'Thomas Roelleke'
p598
I4
sS'Chao Shen'
p599
I1
sS'Yinghao Li'
p600
I1
sS'Julian McAuley'
p601
I1
sS'Pengjie Ren'
p602
I1
sS'Yuxiong He'
p603
I3
sS'Xun Tang'
p604
I4
sS'Pavel Metrikov'
p605
I2
sS'Ihab Al Kabary'
p606
I3
sS'Yusheng Xie'
p607
I1
sS'Huseyin Cagdas Ocalan'
p608
I2
sS'Shuguang Han'
p609
I1
sS'Michael Riley'
p610
I1
sS'Heng Tao Shen'
p611
I5
sS'Hee-Geun Yoon'
p612
I1
sS'Lin Wu'
p613
I1
sS'Jiaheng Lu'
p614
I1
sS'Keke Chen'
p615
I1
sS'Saehoon Kim'
p616
I1
sS'Peng Bai'
p617
I1
sS'Prasenjit Mitra'
p618
I2
sS'Yan Liang'
p619
I1
sS'Guangyan Huang'
p620
I1
sS'Mih\xc3\xa1ly Jakob'
p621
I1
sS'Kuo Zhang'
p622
I3
sS'Erik Borra'
p623
I1
sS'Flavio Junqueira'
p624
I4
sS'Thomas Rocher'
p625
I1
sS'Greg P. Milette'
p626
I1
sS'David Mease'
p627
I2
sS'Xing Wei'
p628
I2
sS'Jyothi K. Vinjumur'
p629
I1
sS'Jiaul H. Paik'
p630
I4
sS'Teruko Mitamura'
p631
I1
sS'Tao Tao'
p632
I1
sS'Abraham Bagherjeiran'
p633
I1
sS'Emanuele Di Buccio'
p634
I1
sS'Tam\xc3\xa1s Sarl\xc3\xb3s'
p635
I1
sS'Torsten Suel'
p636
I7
sS'Peter Organisciak'
p637
I1
sS'Yo\xc3\xablle S. Maarek'
p638
I1
sS'Mark Dredze'
p639
I1
sS'Sheng Li 0003'
p640
I4
sS'Marco Allegretti'
p641
I1
sS'Cheng Luo'
p642
I2
sS'Huazheng Wang'
p643
I1
sS'Parvaz Mahdabi'
p644
I2
sS'Xiaolong Li'
p645
I1
sS'Srinivasan Parthasarathy 0001'
p646
I1
sS'Cheng Niu'
p647
I1
sS'Zheng-Jun Zha'
p648
I3
sS'Olga Megorskaya'
p649
I1
sS'Zhengzhong Liu'
p650
I1
sS'Zhoujun Li'
p651
I2
sS'Paul Resnick'
p652
I1
sS'Xu-Cheng Yin'
p653
I2
sS'Zolt\xc3\xa1n Mikl\xc3\xb3s'
p654
I1
sS'Xiaobing Xue'
p655
I4
sS'Alexey Borisov'
p656
I2
sS'Sen\xc3\xa9n Gonz\xc3\xa1lez'
p657
I2
sS'Joseph Malionek'
p658
I1
sS'Jianhua Feng'
p659
I2
sS'Zhong Su'
p660
I5
sS'Wei Dong 0002'
p661
I1
sS'Weihao Kong'
p662
I1
sS'Bekir Taner Din\xc3\xa7er'
p663
I2
sS'Seyedeh Sargol Sadeghi'
p664
I1
sS'Wayne Xin Zhao'
p665
I3
sS'Gerhard Weikum'
p666
I13
sS'Hyun-Je Song'
p667
I1
sS'Sami Richardson'
p668
I1
sS'Mostafa Dehghani'
p669
I4
sS'Michal Horovitz'
p670
I1
sS'Wen Zhang'
p671
I1
sS'David A. Smith'
p672
I3
sS'Tony Dunnigan'
p673
I2
sS'Gregor Engels'
p674
I1
sS'Donald Metzler'
p675
I12
sS'Sreenivas Gollapudi'
p676
I1
sS'Phillip Popp'
p677
I1
sS'Daniel Valcarce'
p678
I1
sS'Xiaoli Li 0001'
p679
I1
sS'Douglas W. Oard'
p680
I16
sS'Sitong Mao'
p681
I1
sS'Yuezhi Zhou'
p682
I1
sS'Daria Sorokina'
p683
I1
sS'Joseph Joy'
p684
I1
sS'Matt Jones'
p685
I1
sS'Donghan Yu'
p686
I1
sS'Andreas Dengel'
p687
I2
sS'Linda Andersson'
p688
I1
sS'Jingfei Li'
p689
I3
sS'Yiping Song'
p690
I1
sS'Hadar Ronen'
p691
I1
sS'Jing Li'
p692
I1
sS'Peng Li'
p693
I1
sS'Catherine L. Smith'
p694
I1
sS'Richard Berendsen'
p695
I3
sS'Todor Mihaylov'
p696
I1
sS'Minh-Thap Nguyen'
p697
I1
sS'Nivio Ziviani'
p698
I1
sS'Jiqun Liu'
p699
I1
sS'Roy Levin'
p700
I2
sS'Chiranjib Bhattacharyya'
p701
I1
sS'Antoine Doucet'
p702
I2
sS'Jinwen Guo'
p703
I1
sS'Kalervo J\xc3\xa4rvelin'
p704
I4
sS'Jian-Tao Sun'
p705
I1
sS'Zhicheng Dou'
p706
I6
sS'Bas Sijtsma'
p707
I1
sS'Naoto Takeda'
p708
I1
sS'Michael Meder'
p709
I1
sS'Dar\xc3\xado Garigliotti'
p710
I3
sS'Liqiang Nie'
p711
I8
sS'Dit-Yan Yeung'
p712
I1
sS'Francisco M. Couto'
p713
I1
sS'Logan Giorda'
p714
I1
sS'Bingjun Zhang'
p715
I1
sS'Alberto Introini'
p716
I1
sS'Qinmin Hu'
p717
I5
sS'Haoran Huang'
p718
I1
sS'Katrin Kirchhoff'
p719
I1
sS'Bj\xc3\xb6rn Buchhold'
p720
I2
sS'Sang-goo Lee'
p721
I3
sS'Mengdie Zhuang'
p722
I1
sS'Harrie Oosterhuis'
p723
I1
sS'Peixiang Zhao'
p724
I2
sS'Samuel Fernando'
p725
I1
sS'Yu-Ren Chen'
p726
I1
sS'Edith Law'
p727
I1
sS'Ankit Agrawal'
p728
I1
sS'Humberto Mossri de Almeida'
p729
I2
sS'Lusheng Zhang'
p730
I1
sS'Andrew Toulis'
p731
I1
sS'Vera Hollink'
p732
I1
sS'Sam Hall'
p733
I1
sS'Zuobing Xu'
p734
I2
sS'Yuening Hu'
p735
I2
sS'Hojun Jaygarl'
p736
I1
sS'Siegfried Handschuh'
p737
I2
sS'Haochen Zhang'
p738
I1
sS'Xiaoyong Du'
p739
I2
sS'Krisztian Balog'
p740
I19
sS'Robert Neumayer'
p741
I1
sS'Claudio Lucchese'
p742
I8
sS'Wen-tau Yih'
p743
I3
sS'Giorgio Presti'
p744
I1
sS'Rajen Subba'
p745
I1
sS'Vittorio Castelli'
p746
I1
sS'Tom Crecelius'
p747
I2
sS'Vanja Josifovski'
p748
I7
sS'Kshitiz Gupta'
p749
I1
sS'Amy Greenwald'
p750
I1
sS'Chien Chin Chen'
p751
I1
sS'Melanie Gnasa'
p752
I1
sS'Lian Zhou'
p753
I1
sS'Xuan Hu'
p754
I1
sS'Laura Dietz'
p755
I3
sS'Christopher Hoobin'
p756
I1
sS'Miguel Barreda-\xc3\x81ngeles'
p757
I1
sS'Ilkka Kosunen'
p758
I1
sS'Jo\xc3\xa3o Paulo Neto'
p759
I1
sS'Dan Morris'
p760
I1
sS'Hongteng Xu'
p761
I1
sS'Mikhail Bilenko'
p762
I3
sS'Shenghuo Zhu'
p763
I5
sS'Cong Yu 0001'
p764
I1
sS'Weinan Zhang'
p765
I3
sS'Michael R. Lyu'
p766
I7
sS'Nicola Tonellotto'
p767
I10
sS'Chris Sanden'
p768
I1
sS'Liam Cripwell'
p769
I1
sS'Konstantinos Zagoris'
p770
I2
sS'Zijia Lin'
p771
I1
sS'Dmitry Lagun'
p772
I10
sS'Hind Almerekhi'
p773
I1
sS'Michael Wiegand'
p774
I1
sS'Xin Qian'
p775
I1
sS'Paul B. Kantor'
p776
I4
sS'Simon Wingert'
p777
I1
sS'Nam Nguyen'
p778
I1
sS'Clebson C. A. de S\xc3\xa1'
p779
I2
sS'Alessandro Sordoni'
p780
I2
sS'Rui Cai'
p781
I4
sS'Hwee Tou Ng'
p782
I3
sS'Jo\xc3\xa3o Santos'
p783
I1
sS'Zhaochun Ren'
p784
I8
sS'Ismael Santana Silva'
p785
I1
sS'Dan Feng'
p786
I1
sS'Andreas Paepcke'
p787
I1
sS'Xiangyang Xue'
p788
I3
sS'Doug Downey'
p789
I4
sS'Henriette S. M. Cramer'
p790
I1
sS'Philip Cotter'
p791
I1
sS'Shima Gerani'
p792
I4
sS'Ramesh S. Sankaranarayana'
p793
I1
sS'Marco Ferrante'
p794
I1
sS'Mark D. Smucker'
p795
I14
sS'Stefan Zwicklbauer'
p796
I1
sS'Gobaan Raveendran'
p797
I1
sS'Francesco Bonchi'
p798
I1
sS'Daniel Vanderpooten'
p799
I1
sS'Robert Capra'
p800
I1
sS'Yang Wang 0023'
p801
I1
sS'Karl Gyllstrom'
p802
I4
sS'Hanbit Lee'
p803
I1
sS'Andrew Trotman'
p804
I5
sS'Aravind Mohan'
p805
I1
sS'Ludovic Bonnefoy'
p806
I1
sS'Robert W. P. Luk'
p807
I1
sS'Jing Luo'
p808
I1
sS'Hae-Chang Rim'
p809
I5
sS'Marcus Leich'
p810
I1
sS'Bryan Toth'
p811
I1
sS'Filippo Menczer'
p812
I1
sS'Jiliang Tang'
p813
I1
sS'Xiuguo Bao'
p814
I1
sS'Eric Nyberg'
p815
I4
sS'Wouter Weerkamp'
p816
I11
sS'Steven P. Crain'
p817
I1
sS'Anh Tuan Luu'
p818
I1
sS'\xc3\x89ric Gaussier'
p819
I4
sS'Xiaoyan Zhu'
p820
I1
sS'Masao Utiyama'
p821
I1
sS'Hongxing Rui'
p822
I1
sS'Tao Xu'
p823
I1
sS'Mar\xc3\xada-Consuelo Rubio-S\xc3\xa1nchez'
p824
I2
sS'Piero Fraternali'
p825
I1
sS'Sergio Navarro'
p826
I1
sS'Lynda Hardman'
p827
I1
sS'D. Sculley'
p828
I1
sS'Matthew R. Scott'
p829
I1
sS'Yaron Kanza'
p830
I1
sS'Kazutoshi Umemoto'
p831
I1
sS'Andreas Lommatzsch'
p832
I1
sS'Xue Li'
p833
I1
sS'Kan Luo'
p834
I1
sS'Wei Xu'
p835
I2
sS'Dean McCullough'
p836
I1
sS'Christopher M. White'
p837
I1
sS'Lei Tang'
p838
I1
sS'Michalis Vazirgiannis'
p839
I2
sS'Akihito Tokuda'
p840
I1
sS'Jerome Cheng'
p841
I1
sS'Jack Russell'
p842
I1
sS'Andrew James McMinn'
p843
I1
sS'Bas Veeling'
p844
I1
sS'Sebastian Michel'
p845
I4
sS'Peifeng Yin'
p846
I1
sS'Anna Wr\xc3\xb3blewska'
p847
I1
sS'Elmar Haussmann'
p848
I1
sS'Jinqiao Wang'
p849
I1
sS'Wei Zeng'
p850
I1
sS'Adriel Dean-Hall'
p851
I1
sS'Bu-Sung Lee'
p852
I1
sS'Jingyuan Chen'
p853
I1
sS'Curtis E. Dyreson'
p854
I1
sS'Na Dai'
p855
I4
sS'Emma Nicol'
p856
I1
sS'Ben Priest'
p857
I1
sS'Claudio Carpineto'
p858
I1
sS'Azzah Al-Maskari'
p859
I4
sS'Gerhard Widmer'
p860
I2
sS'Anlei Dong'
p861
I4
sS'Karthik Raman'
p862
I1
sS'Ismail Badache'
p863
I2
sS'Youngjoong Ko'
p864
I2
sS'Anton van den Hengel'
p865
I1
sS'Marius Pasca'
p866
I3
sS'Tom Rowlands'
p867
I2
sS'Howard S. Cohl'
p868
I2
sS'Wenting Tu'
p869
I2
sS'Daisuke Kawai'
p870
I1
sS'Wai Gen Yee'
p871
I3
sS'Daan Odijk'
p872
I4
sS'Pavel Burangulov'
p873
I1
sS'D. L. Thomas'
p874
I1
sS'Chengyao Chen'
p875
I2
sS'Savva Khalaman'
p876
I1
sS'David Maxwell'
p877
I3
sS'Maya Sappelli'
p878
I2
sS'Alberto Tonon'
p879
I1
sS'Desmond Elliott'
p880
I1
sS'Yandong Liu'
p881
I4
sS'Atulya Velivelli'
p882
I1
sS'Ricardo Nuno Taborda Campos'
p883
I1
sS'Jose M. Conde'
p884
I1
sS'Peter Izsak'
p885
I1
sS'Lifeng Sun'
p886
I1
sS'Abdou Youssef'
p887
I1
sS'Peter Westfall'
p888
I1
sS'Young-Min Kim'
p889
I1
sS'Yong Zeng'
p890
I1
sS'Lukas Vermeer'
p891
I1
sS'Daniel E. Rose'
p892
I1
sS'Benny Kimelfeld'
p893
I1
sS'Juan M. Fern\xc3\xa1ndez-Luna'
p894
I2
sS'Xinze Wang'
p895
I1
sS'Juliano Efson Sales'
p896
I2
sS'Wisllay M. V. dos Santos'
p897
I1
sS'Benjamin Martin 0001'
p898
I1
sS'Jens K\xc3\xbcrsten'
p899
I1
sS'Ian Soboroff'
p900
I13
sS'Murat Yakici'
p901
I2
sS'Philippe Mulhem'
p902
I1
sS'Shuai Ding'
p903
I3
sS'Li Zheng'
p904
I1
sS'Jan Pedersen'
p905
I1
sS'Alexandre Pereda-Ba\xc3\xb1os'
p906
I1
sS'Jan-Hendrik Zab'
p907
I1
sS'Lianqiang Zhou'
p908
I1
sS'Widad Machmouchi'
p909
I1
sS'Ting Wang'
p910
I3
sS'Mayu Iwata'
p911
I4
sS'Andrea Esuli'
p912
I2
sS'Xiangru Chen'
p913
I1
sS'Dezhao Song'
p914
I1
sS'Adish Singla'
p915
I2
sS'Jaime Arguello'
p916
I9
sS'Azadeh Shakery'
p917
I5
sS'Jovian Lin'
p918
I2
sS'Haojian Jin'
p919
I1
sS'Jinming Min'
p920
I1
sS'Vuong Minh Ngo'
p921
I1
sS'Nicholas Joel Woodward'
p922
I1
sS'Liping Wang'
p923
I1
sS'Mandar Mitra'
p924
I3
sS'Zhimin Zhang'
p925
I1
sS'Yuxia Yao'
p926
I1
sS'Anat Hashavit'
p927
I1
sS'Valery A. Topinsky'
p928
I1
sS'Alessandro Marani'
p929
I1
sS'Engin Demir'
p930
I2
sS'Sharad Mehrotra'
p931
I1
sS'Jing Sun 0008'
p932
I1
sS'Hao Huang'
p933
I2
sS'Hao Xu'
p934
I1
sS'Pawel Jurczyk'
p935
I1
sS'Aleksandra Lomakina'
p936
I1
sS'Timothy Jones 0001'
p937
I2
sS'Minghua Xu'
p938
I1
sS'Aman Grover'
p939
I1
sS'Yu Chen'
p940
I3
sS'Simon O. Sweeney'
p941
I1
sS'Xiaozhong Liu'
p942
I5
sS'Xuanchong Li'
p943
I1
sS'Xiao Bai'
p944
I1
sS'Wei Vivian Zhang'
p945
I2
sS'Chen Chen'
p946
I1
sS'Baihan Shu'
p947
I1
sS'Brijnesh J. Jain'
p948
I1
sS'Jae Hyun Park'
p949
I3
sS'Yong Tang'
p950
I1
sS'Mitsuru Ambai'
p951
I1
sS'Somit Gupta'
p952
I1
sS'Lina Yao'
p953
I4
sS'Jun Harashima'
p954
I1
sS'Gary Marchionini'
p955
I1
sS'Matthias S. Reichenbach'
p956
I1
sS'Daniel Tsvetkov'
p957
I1
sS'Naoaki Okazaki'
p958
I1
sS'Antonio Mallia'
p959
I1
sS'Dimitrios Kotsakos'
p960
I1
sS'Tu Ngoc Nguyen'
p961
I1
sS'Xingyao Ye'
p962
I1
sS'Ingmar Weber'
p963
I3
sS'Huan-Bo Luan'
p964
I1
sS'Martin Trapp'
p965
I1
sS'Liang Tang'
p966
I1
sS'Yulan He'
p967
I1
sS'Yi Yang'
p968
I1
sS'Qi Li'
p969
I1
sS'Jialie Shen'
p970
I12
sS'Yohannes Tsegay'
p971
I1
sS'Christian P\xc3\xb6litz'
p972
I1
sS'Ting Liu'
p973
I2
sS'Tiejun Zhao'
p974
I1
sS'Andr\xc3\xa9 Freitas'
p975
I3
sS'Hua Li'
p976
I1
sS'Yaoxue Zhang'
p977
I1
sS'Christopher Targett'
p978
I1
sS'Atsushi Ushiku'
p979
I1
sS'Trung V. Nguyen'
p980
I1
sS'Gonzalo Navarro'
p981
I2
sS'Enrique Amig\xc3\xb3'
p982
I5
sS'Ion Madrazo Azpiazu'
p983
I1
sS'Xu Chen'
p984
I3
sS'Vincenzo Croce'
p985
I1
sS'Hideyuki Maeda'
p986
I2
sS'Yongfeng Huang'
p987
I1
sS'Piero Molino'
p988
I1
sS'Kevin Duh'
p989
I1
sS'Ravi Kumar 0001'
p990
I2
sS'Ding-Jung Han'
p991
I1
sS'Suzan Verberne'
p992
I5
sS'Jacob Bien'
p993
I1
sS'Zhipeng Jin'
p994
I1
sS'Xiangnan He 0001'
p995
I7
sS'Xia Hu'
p996
I3
sS'Denis Savenkov'
p997
I3
sS'Kun Zhou'
p998
I1
sS'Yingnan Xiao'
p999
I1
sS'Rohit Babbar'
p1000
I1
sS'Xiaowen Ding'
p1001
I1
sS'David Nicolas Racca'
p1002
I1
sS'Dell Zhang'
p1003
I7
sS'Kai Zhang'
p1004
I1
sS'Mostafa Keikha'
p1005
I6
sS'Balasubramanyan Ashok'
p1006
I1
sS'Adam Clark'
p1007
I1
sS'Jing Bai'
p1008
I1
sS'Haohong Wang'
p1009
I1
sS'Gu Xu'
p1010
I3
sS'Maxim N. Grinev'
p1011
I1
sS'Lillian Lee'
p1012
I1
sS'Yanchun Zhang'
p1013
I1
sS'Yuanzhe Cai'
p1014
I1
sS'Ting Yuan'
p1015
I2
sS'Yongrui Qin'
p1016
I2
sS'Patrick Ernst'
p1017
I1
sS'Vincent Bouvier'
p1018
I1
sS'Avishay Livne'
p1019
I1
sS'Wei Niu'
p1020
I1
sS'Jaakko Peltonen'
p1021
I1
sS'Yue Gao'
p1022
I1
sS'Wengang Zhou'
p1023
I1
sS'Christian Scheel'
p1024
I1
sS'Jaap Kamps'
p1025
I18
sS'Fei Xia'
p1026
I1
sS'Enoch Peserico'
p1027
I1
sS'Peng Zhang'
p1028
I1
sS'Jue Wang 0004'
p1029
I1
sS'Howard Wong-Toi'
p1030
I1
sS'Till Plumbaum'
p1031
I1
sS'Craig Macdonald'
p1032
I37
sS'Roberto Santoro 0002'
p1033
I1
sS'Jun Zhao 0001'
p1034
I1
sS'Jaikrishna Chaparala'
p1035
I1
sS'Christopher Leckie'
p1036
I1
sS'Alan Said'
p1037
I2
sS'Jingxuan Li'
p1038
I2
sS'Haizhou Li'
p1039
I1
sS'Arantxa Otegi'
p1040
I1
sS'Lakshmanan Velusamy'
p1041
I1
sS'Fedor Borisyuk'
p1042
I1
sS'Ciya Liao'
p1043
I3
sS'Yu Wang 0022'
p1044
I1
sS'Xiao Yan'
p1045
I1
sS'Dietmar Schabus'
p1046
I1
sS'Zhaohua Zhang'
p1047
I1
sS'Hong-Wei Hao'
p1048
I1
sS'Gang Wang 0001'
p1049
I3
sS'Andrew Wan'
p1050
I1
sS'Jan Rybak'
p1051
I1
sS'Grace Hui Yang'
p1052
I2
sS'Ben Fei'
p1053
I1
sS'Linlin Li 0002'
p1054
I1
sS'Zhiyong Cheng'
p1055
I5
sS'Dragomir Yankov'
p1056
I2
sS'Albert-L\xc3\xa1szl\xc3\xb3 Barab\xc3\xa1si'
p1057
I1
sS'Zhiming Ma'
p1058
I1
sS'Shaishav Kumar'
p1059
I2
sS'Nir Levine'
p1060
I1
sS'Xiang-Fei Jia'
p1061
I1
sS'Shubham Mangla'
p1062
I1
sS'Pu Li'
p1063
I1
sS'Jinyoung Kim'
p1064
I2
sS'Felisa Verdejo'
p1065
I2
sS'Jie Yang 0015'
p1066
I1
sS'Chong-Wah Ngo'
p1067
I3
sS'Jian Hu'
p1068
I3
sS'Bin Gao 0001'
p1069
I3
sS'Le Zhao'
p1070
I1
sS'Xiaoling Wang'
p1071
I2
sS'Jianguo Xiao'
p1072
I3
sS'Tobias Kellner'
p1073
I3
sS'Maribeth Back'
p1074
I1
sS'Kaisong Song'
p1075
I1
sS'Neil R. Smalheiser'
p1076
I1
sS'Xingping Jiang'
p1077
I1
sS'Yuan Lin'
p1078
I2
sS'Meng Wang 0001'
p1079
I9
sS'Kevin M. Carter 0001'
p1080
I1
sS'Yuan Liu'
p1081
I1
sS'Xiaoguang Qi'
p1082
I1
sS'Alexander G. Hauptmann'
p1083
I1
sS'Claudiu S. Firan'
p1084
I3
sS'Eunyee Koh'
p1085
I1
sS'Mariam Daoud'
p1086
I1
sS'Zhaofan Qiu'
p1087
I2
sS'Johannes Schanda'
p1088
I1
sS'Ziyu Lu'
p1089
I4
sS'Hao Wang'
p1090
I1
sS'Tim Daly Jr.'
p1091
I1
sS'Bo Long'
p1092
I3
sS'Zhengdong Lu'
p1093
I2
sS'Kaoru Hiramatsu'
p1094
I1
sS'Zhen Yue'
p1095
I1
sS'Jie Xiao'
p1096
I1
sS'Andrew Turpin'
p1097
I7
sS'Xiaohui Xie'
p1098
I1
sS'Prasanta Bhattacharya'
p1099
I1
sS'Anat Ben-David'
p1100
I1
sS'Keke Cai'
p1101
I2
sS'Tadele Tedla Damessie'
p1102
I1
sS'Chang Liu 0007'
p1103
I3
sS'Ibrahim Adepoju Adeyanju'
p1104
I1
sS'Tanuja Joshi'
p1105
I1
sS'Mozhdeh Ariannezhad'
p1106
I1
sS'Tim Weninger'
p1107
I1
sS'Rossano Schifanella'
p1108
I1
sS'Aditya Pal'
p1109
I1
sS'Deepak P'
p1110
I1
sS'Pushkar Chitnis'
p1111
I1
sS'Artem Grotov'
p1112
I2
sS'Li Shang'
p1113
I1
sS'Wuying Liu'
p1114
I2
sS'Juzhen He'
p1115
I1
sS'Xiaofang Wang'
p1116
I1
sS'Yan Pan'
p1117
I1
sS'Arne Schuldt'
p1118
I1
sS'Marjorie Desamito'
p1119
I1
sS'James Caverlee'
p1120
I7
sS'Vladan Radosavljevic'
p1121
I2
sS'Tuan A. Tran'
p1122
I1
sS'Ting Yao'
p1123
I4
sS'Iadh Ounis'
p1124
I36
sS'Hiroshi Nakagawa'
p1125
I1
sS'Zi Huang'
p1126
I4
sS'Ellen M. Voorhees'
p1127
I3
sS'Tim Juchcinski'
p1128
I1
sS'Zhiming Kang'
p1129
I1
sS'Qiaoming Zhu'
p1130
I1
sS'Xiaodan Zhang'
p1131
I1
sS'Henry S. Thompson'
p1132
I1
sS'Qi Wang'
p1133
I1
sS'Jingzhou Liu'
p1134
I1
sS'Yi-Hsuan Yang'
p1135
I1
sS'Guang Wei Yu'
p1136
I1
sS'Daniel Dajun Zeng'
p1137
I1
sS'Aleksandr Chuklin'
p1138
I5
sS'Benyou Wang'
p1139
I1
sS'Shicheng Wu'
p1140
I1
sS'Philip D. Gray'
p1141
I1
sS'Zheng-Yu Niu'
p1142
I1
sS'Stefan Debald'
p1143
I1
sS'Huasha Zhao'
p1144
I1
sS'Fumin Shen'
p1145
I4
sS'Stephanie Strassel'
p1146
I1
sS'David Novak'
p1147
I2
sS'Gideon Mann'
p1148
I1
sS'Edgar Meij'
p1149
I13
sS'Robert Stewart 0002'
p1150
I1
sS'Srivatsan Laxman'
p1151
I1
sS'Pascal Ferraro'
p1152
I1
sS'Georgios Balikas'
p1153
I2
sS'Ching-man Au Yeung'
p1154
I1
sS'Zhongyu Wei'
p1155
I1
sS'Mossaab Bagdouri'
p1156
I4
sS'Hideo Joho'
p1157
I9
sS'Shiyong Lu'
p1158
I1
sS'Carl A. Gunter'
p1159
I1
sS'Jiwoon Jeon'
p1160
I2
sS'Bernhard Pfahringer'
p1161
I1
sS'Yuejie Zhang'
p1162
I2
sS'Salvatore Romeo'
p1163
I1
sS'Wynne Hsu'
p1164
I4
sS'Jin-Dong Kim'
p1165
I1
sS'James E. Davis'
p1166
I1
sS'Amin Mantrach'
p1167
I1
sS'Shawn R. Wolfe'
p1168
I1
sS'Otthein Herzog'
p1169
I1
sS'Maha Alabduljalil'
p1170
I2
sS'Bo-Wen Zhang'
p1171
I1
sS'Amit Goyal'
p1172
I1
sS'Kira Radinsky'
p1173
I3
sS'Ali Shemshadi'
p1174
I2
sS'Yuxin Su'
p1175
I1
sS'Charese Smiley'
p1176
I1
sS'Yen-Chieh Huang'
p1177
I1
sS'Muthu Kumar Chandrasekaran'
p1178
I1
sS'Jamie Costello'
p1179
I1
sS'Alvaro Francisco Huertas-Rosero'
p1180
I1
sS'David Tom\xc3\xa1s'
p1181
I2
sS'Steven C. H. Hoi'
p1182
I4
sS'Ujwal Gadiraju'
p1183
I1
sS'Theodore Kalamboukis'
p1184
I2
sS'Jie Peng'
p1185
I3
sS'Yubin Kim'
p1186
I3
sS'Joseph J. Pfeiffer III'
p1187
I1
sS'Fiana Raiber'
p1188
I9
sS'Krysta Marie Svore'
p1189
I4
sS'Sumit Sidana'
p1190
I2
sS'Ozgur Baglioglu'
p1191
I1
sS'Barry Schwartz'
p1192
I1
sS'Giuseppe Carenini'
p1193
I1
sS'Zhiheng Xu'
p1194
I2
sS'Meichun Hsu'
p1195
I1
sS'Alan L. Cox'
p1196
I1
sS'Sanasam Ranbir Singh'
p1197
I1
sS'Jingrong Zhang'
p1198
I1
sS'Luxian Lin'
p1199
I1
sS'Li Zhang 0007'
p1200
I1
sS'Lexing Xie'
p1201
I1
sS'Yue Cao'
p1202
I1
sS'Bing Liu'
p1203
I1
sS'Anying Xu'
p1204
I1
sS'Cristina Ribeiro 0001'
p1205
I1
sS'Nevena Dragovic'
p1206
I1
sS'Anthony Deacon'
p1207
I1
sS'Xian Zhang'
p1208
I1
sS'Alistair Willis'
p1209
I1
sS'Julian J. McAuley'
p1210
I1
sS'Xiaoyan Lin'
p1211
I1
sS'Yan Zhang'
p1212
I2
sS'Margarita Karkali'
p1213
I1
sS'Chu-Cheng Hsieh'
p1214
I1
sS'Raghavendra Udupa'
p1215
I4
sS'Vu Tuan Tran'
p1216
I1
sS'Manish Patil'
p1217
I1
sS'\xc3\x87igdem Aslay'
p1218
I1
sS'Xiaochuan Wang'
p1219
I2
sS'Ya-nan Qian'
p1220
I1
sS'Mingcheng Qu'
p1221
I1
sS'Ricardo da Silva Torres'
p1222
I1
sS'Fritjof Bu\xc3\xbcttner'
p1223
I1
sS'James Purvis'
p1224
I1
sS'Muhammad Ali Norozi'
p1225
I1
sS'Suleyman Kardas'
p1226
I1
sS'Gaurav Pandey'
p1227
I1
sS'Nimrod Raifer'
p1228
I1
sS'Petra Galusc\xc3\xa1kov\xc3\xa1'
p1229
I1
sS'Min Zhang 0006'
p1230
I12
sS'Thomas Wilhelm'
p1231
I1
sS'Da Cao'
p1232
I1
sS'Liying Sui'
p1233
I1
sS'Young-In Song'
p1234
I5
sS'Luke Gallagher'
p1235
I1
sS'Matteo Catena'
p1236
I1
sS'Wu-Jun Li'
p1237
I2
sS'Andr\xc3\xa9s R. Masegosa'
p1238
I1
sS'Haoliang Qi'
p1239
I2
sS'Carmel Domshlak'
p1240
I2
sS'Carsten Eickhoff'
p1241
I8
sS'Pierre-Francois Marteau'
p1242
I1
sS'Yoshimasa Tsuruoka'
p1243
I2
sS'Nina Phan'
p1244
I1
sS'Ye Chen'
p1245
I3
sS'Martin L\xc3\xadska'
p1246
I1
sS'Jeroen B. P. Vuurens'
p1247
I2
sS'Claudia Hauff'
p1248
I15
sS'Chia-Jung Lee'
p1249
I5
sS'Anna Belova'
p1250
I1
sS'Yemin Luo'
p1251
I1
sS'Mikhail Ageev'
p1252
I2
sS'Xiaoshuo Xu'
p1253
I1
sS'James Cai'
p1254
I1
sS'Andr\xc3\xa9 Luiz da Costa Carvalho'
p1255
I1
sS'Gene Golovchinsky'
p1256
I4
sS'Swapan Kumar Parui'
p1257
I1
sS'Ella Bolshinsky'
p1258
I1
sS'Vibhuti S. Sengar'
p1259
I1
sS'David Fernandes de Oliveira'
p1260
I1
sS'Mathias Lux'
p1261
I1
sS'Jan Vosecky'
p1262
I1
sS'Antonia Kyriakopoulou'
p1263
I1
sS'Giovanni Semeraro'
p1264
I1
sS'Ning Liu'
p1265
I2
sS'Andrew O. Hatch'
p1266
I1
sS'Yeha Lee'
p1267
I1
sS'Edleno Silva de Moura'
p1268
I2
sS'Chi-Chao Chang'
p1269
I1
sS'Yasen Kiprov'
p1270
I1
sS'Yan-Ying Chen'
p1271
I1
sS'Wei Wang 0083'
p1272
I1
sS'Heri Ramampiaro'
p1273
I1
sS'Lanbo Zhang'
p1274
I4
sS'Lou Boves'
p1275
I1
sS'Aleksander Kolcz'
p1276
I2
sS'Ning Xie 0003'
p1277
I1
sS'Nikolaos Pappas'
p1278
I1
sS'Vandana Bachani'
p1279
I1
sS'Ambuj Tewari'
p1280
I1
sS'Fangzhao Wu'
p1281
I1
sS'Anil Kumar Singh'
p1282
I1
sS'Eric Bruno'
p1283
I1
sS'Keshi Dai'
p1284
I1
sS'Ziying Yang'
p1285
I1
sS'Ariel Fuxman'
p1286
I1
sS'Hongzhi Wang'
p1287
I1
sS'Jan Matschke'
p1288
I1
sS'Masaaki Kikuchi'
p1289
I1
sS'Shengrui Wang'
p1290
I1
sS'Yaroslav V. Spirin'
p1291
I1
sS'Monica Lestari Paramita'
p1292
I2
sS'Muhammad Atif Qureshi 0001'
p1293
I1
sS'Myeongjae Jeon'
p1294
I1
sS'Priyadarshi Patnaik'
p1295
I1
sS'Ko Fujimura'
p1296
I1
sS'Haggai Roitman'
p1297
I8
sS'Gang Wang 0010'
p1298
I2
sS'Baoning Wu'
p1299
I2
sS'Maram Hasanain'
p1300
I1
sS'Nawaaz Ahmed'
p1301
I1
sS'Edward Curry'
p1302
I1
sS'Yakub Sebastian'
p1303
I1
sS'Atsushi Fujii'
p1304
I2
sS'Gillian Dobbie'
p1305
I1
sS'Yan Cui'
p1306
I1
sS'Byron J. Gao'
p1307
I2
sS'Paavo Arvola'
p1308
I2
sS'Scott Julian'
p1309
I1
sS'Jaana Kek\xc3\xa4l\xc3\xa4inen'
p1310
I2
sS'John Burgoon'
p1311
I1
sS'Jiyin He'
p1312
I7
sS'Kunpeng Zhang'
p1313
I1
sS'Susana Zoghbi'
p1314
I1
sS'Nicol\xc3\xa1s Garc\xc3\xada-Pedrajas'
p1315
I1
sS'Man-Kwan Shan'
p1316
I1
sS'Tatiana Gossen'
p1317
I1
sS'Jian-Min Yao'
p1318
I1
sS'Mahmoud Moadeli'
p1319
I1
sS'Martha Larson'
p1320
I5
sS'Licai Wang'
p1321
I1
sS'Doron Cohen'
p1322
I1
sS'Liron Zighelnic'
p1323
I1
sS'Farag Ahmed'
p1324
I1
sS'Olga Arkhipova'
p1325
I2
sS'Mikhail Kuznetsov'
p1326
I1
sS'Yaqian Duan'
p1327
I1
sS'Haifeng Wang'
p1328
I1
sS'Weimao Ke'
p1329
I3
sS'Fei Ye'
p1330
I1
sS'Jingjing Liu'
p1331
I4
sS'Ronan Cummins'
p1332
I5
sS'Fidel Cacheda'
p1333
I1
sS'Jorge Carrillo de Albornoz'
p1334
I1
sS'Marco Fisichella'
p1335
I1
sS'Sharma V. Thankachan'
p1336
I1
sS'Jidong Chen'
p1337
I1
sS'Steven Garcia'
p1338
I1
sS'Jo\xc3\xa3o Magalh\xc3\xa3es'
p1339
I2
sS'Bryan Kisiel'
p1340
I1
sS'Zongyang Ma'
p1341
I3
sS'Guokun Lai'
p1342
I1
sS'Darren Gergle'
p1343
I1
sS'Wei Song'
p1344
I2
sS'Alexander J. Smola'
p1345
I2
sS'Matthew Pointon'
p1346
I1
sS'Alexandru Chitea'
p1347
I1
sS'Xu-Dong Zhang'
p1348
I1
sS'Gang Hu'
p1349
I1
sS'Weiyue Huang'
p1350
I1
sS'Md Masudur Rahman'
p1351
I1
sS'Tuong-Vinh Truong'
p1352
I1
sS'Pushpak Bhattacharyya'
p1353
I1
sS'Bogomil Kovachev'
p1354
I1
sS'Michael G. Noll'
p1355
I1
sS'Abhimanyu Lad'
p1356
I2
sS'Enrico Minack'
p1357
I1
sS'Abhimanu Kumar'
p1358
I1
sS'Diyi Yang'
p1359
I1
sS'Xirong Li'
p1360
I1
sS'Kyung-Soon Lee'
p1361
I2
sS'James Lanagan'
p1362
I1
sS'Jianyong Wang'
p1363
I1
sS'Yuqing Hou'
p1364
I1
sS'Ke Chen 0005'
p1365
I10
sS'Lingyun Ruan'
p1366
I1
sS'Giridhar Kumaran'
p1367
I4
sS'Xin Li'
p1368
I3
sS'Anna Khudyak Kozorovitzky'
p1369
I1
sS'David Lillis'
p1370
I1
sS'Saul Vargas'
p1371
I2
sS'Dae Hoon Park'
p1372
I4
sS'David Elsweiler'
p1373
I7
sS'Kazunari Sugiyama'
p1374
I4
sS'Felix Hieber'
p1375
I1
sS'Paul Ogilvie'
p1376
I1
sS'Chaoran Cui'
p1377
I3
sS'Arash Dargahi Nobari'
p1378
I1
sS'Kien Tjin-Kam-Jet'
p1379
I1
sS'Deng Cai'
p1380
I3
sS'William Dabney'
p1381
I1
sS'Dikan Xing'
p1382
I1
sS'Wenjie Li'
p1383
I8
sS'Bob van de Velde'
p1384
I1
sS'Cai-Nicolas Ziegler'
p1385
I1
sS'Hiroki Yanagisawa'
p1386
I1
sS'Michael Gamon'
p1387
I2
sS'Hyun Duk Kim'
p1388
I3
sS'SzeWang Fong'
p1389
I1
sS'Sam Yuan Sung'
p1390
I1
sS'Devdatt P. Dubhashi'
p1391
I1
sS'Dongyi Guan'
p1392
I3
sS'Ting-Chang Hou'
p1393
I1
sS'Feng Yu'
p1394
I1
sS'Johanne R. Trippas'
p1395
I3
sS'Wolf Siberski'
p1396
I1
sS'Lixin Shi'
p1397
I1
sS'Golden Guo-zheng Sun'
p1398
I1
sS'Shigenobu Kobayashi'
p1399
I1
sS'Yangyong Zhu'
p1400
I1
sS'Roni Wiener'
p1401
I1
sS'Samuel Huston'
p1402
I1
sS'Michael Hochster'
p1403
I1
sS'Ming Zhou 0001'
p1404
I1
sS'Jonathan J. Dorando'
p1405
I1
sS'Minwoo Jeong'
p1406
I1
sS'Xuezhi Cao'
p1407
I1
sS'Juan M. Huerta'
p1408
I1
sS'Kyumin Lee'
p1409
I2
sS'Christopher Wing'
p1410
I1
sS'Victor Sepulveda'
p1411
I1
sS'Shanshan Huang'
p1412
I2
sS'Savvas A. Chatzichristofis'
p1413
I3
sS'Joonas Kukkonen'
p1414
I1
sS'Weinan E.'
p1415
I1
sS'Monojit Choudhury'
p1416
I3
sS'Timothy Chappell'
p1417
I1
sS'Qifan Yang'
p1418
I1
sS'Xiaodong Li'
p1419
I1
sS'Vanessa Murdock'
p1420
I9
sS'Mona Golestan Far'
p1421
I1
sS'Gyanit Singh'
p1422
I1
sS'Ba Quan Truong'
p1423
I1
sS'Shengxian Wan'
p1424
I2
sS'Odellia Boni'
p1425
I1
sS'Sergio Rodr\xc3\xadguez-Vaamonde'
p1426
I1
sS'Ye-Yi Wang'
p1427
I2
sS'Pernilla Qvarfordt'
p1428
I4
sS'Jon Degenhardt'
p1429
I1
sS'Reyyan Yeniterzi'
p1430
I2
sS'Jung Hyun Kim'
p1431
I1
sS'Ryen White'
p1432
I4
sS'Ron Kohavi'
p1433
I1
sS'Qiming Luo'
p1434
I1
sS'Lu Chen'
p1435
I3
sS'Khalid Al-Kofahi'
p1436
I1
sS'Shubhra Kanti Karmaker Santu'
p1437
I1
sS'Kenji Fukumizu'
p1438
I1
sS'Tao Li 0001'
p1439
I17
sS'Siddika Parlak'
p1440
I1
sS'Xiaojun Quan'
p1441
I2
sS'Dimitrios Lymberopoulos'
p1442
I2
sS'Josiane Xavier Parreira'
p1443
I2
sS'Chen Lin'
p1444
I1
sS'Xiaoya Tang'
p1445
I1
sS'Xing Tan'
p1446
I1
sS'Ibrahim Bahattin Vidinli'
p1447
I1
sS'Hady Wirawan Lauw'
p1448
I1
sS'Michael Witt'
p1449
I1
sS'Jia Zhang'
p1450
I1
sS'Miles Osborne'
p1451
I3
sS'Claudia Nieder\xc3\xa9e'
p1452
I2
sS'Royal Sequiera'
p1453
I1
sS'Xue Zhao'
p1454
I1
sS'Praveen Chandar'
p1455
I6
sS'Sai Wu'
p1456
I3
sS'Siu Cheung Hui'
p1457
I1
sS'Feng Wu'
p1458
I1
sS'Guang Qiu'
p1459
I2
sS'Ricardo A. Baeza-Yates'
p1460
I17
sS'Masaki Ikeda'
p1461
I1
sS'Qin Lv'
p1462
I1
sS'Thaer Samar'
p1463
I2
sS'Alistair Moffat'
p1464
I15
sS'Eric Horvitz'
p1465
I11
sS'David Hannah'
p1466
I1
sS'Guo-Qiang Zhang 0001'
p1467
I1
sS'Ziyu Guan'
p1468
I2
sS'Mohamed Abdel Maksoud'
p1469
I1
sS'Kalvero J\xc3\xa4rvelin'
p1470
I1
sS'Bj\xc3\xb6rn Gottfried'
p1471
I1
sS'Shady Elbassuoni'
p1472
I2
sS'Sriparna Saha 0001'
p1473
I1
sS'Huy Quan Vu'
p1474
I1
sS'Jia Chen'
p1475
I1
sS'A.-Yeong Kim'
p1476
I2
sS'Amit Singh 0003'
p1477
I1
sS'Ya-Fan Su'
p1478
I1
sS'Hiroyuki Hattori'
p1479
I1
sS'Ziming Zhuang'
p1480
I1
sS'Sudong Chung'
p1481
I1
sS'Tamer Elsayed'
p1482
I4
sS'Mathieu Blondel'
p1483
I1
sS'Jinlian Guo'
p1484
I1
sS'Ankan Saha'
p1485
I1
sS'Saeedeh Momtazi'
p1486
I1
sS'Daniel T. J. Backhausen'
p1487
I1
sS'Shi Feng'
p1488
I1
sS'Jon Parker'
p1489
I1
sS'Ajinkya Kale'
p1490
I1
sS'Nyi Nyi Htun'
p1491
I1
sS'Paolo Rosso'
p1492
I1
sS'Ari Pirkola'
p1493
I1
sS'Dinesha Chathurani Nanayakkara Wasam Uluwitige'
p1494
I1
sS'Daniel R. Masys'
p1495
I1
sS'Kristian Norling'
p1496
I1
sS'Dmitry Lizorkin'
p1497
I1
sS'Giovanni Di Santo'
p1498
I1
sS'Iris Eiron'
p1499
I1
sS'Jin Qian'
p1500
I1
sS'Man Lung Yiu'
p1501
I1
sS'Bin Tan'
p1502
I1
sS'Yohei Seki'
p1503
I3
sS'Ana Freire'
p1504
I1
sS'Mandar Rahurkar'
p1505
I1
sS'Marc-Allen Cartright'
p1506
I3
sS'Xiao Lu'
p1507
I1
sS'Jinfeng Rao'
p1508
I2
sS'Xiaodong Zhang'
p1509
I1
sS'Huan Yan'
p1510
I1
sS'Rich Caruana'
p1511
I1
sS'Enpeng Yao'
p1512
I2
sS'Niklas Ravaja'
p1513
I1
sS'Song Jin'
p1514
I1
sS'Kian-Lee Tan'
p1515
I1
sS'Klaus Berberich'
p1516
I7
sS'Xiao Li'
p1517
I3
sS'Micah Sherr'
p1518
I1
sS'Di Jiang'
p1519
I1
sS'Jeongwoo Ko'
p1520
I2
sS'Dag Schmidtke'
p1521
I1
sS'Stefan Siersdorfer'
p1522
I4
sS'Bahareh Sarrafzadeh'
p1523
I1
sS'Chaosheng Fan'
p1524
I2
sS'Linyun Fu'
p1525
I1
sS'Liane Lewin-Eytan'
p1526
I1
sS'Renxian Zhang'
p1527
I1
sS'Haofen Wang'
p1528
I3
sS'Zhuoren Jiang'
p1529
I2
sS'Xudong Tu'
p1530
I1
sS'Anestis Gkanogiannis'
p1531
I1
sS'Leiming Zhang'
p1532
I1
sS'Debora Donato'
p1533
I2
sS'Ronald T. Fern\xc3\xa1ndez'
p1534
I4
sS'Ittai Abraham'
p1535
I1
sS'Shengbo Guo'
p1536
I2
sS'Andrey Syssoev'
p1537
I1
sS'Damien Jose'
p1538
I1
sS'Jiangang Ma'
p1539
I1
sS'Liyun Ru'
p1540
I1
sS'Lihong Li 0001'
p1541
I1
sS'Jonathan Kilgour'
p1542
I1
sS'Emine Yilmaz'
p1543
I20
sS'Dimitrios Rafailidis'
p1544
I2
sS'Rafael Glater'
p1545
I1
sS'Pradeep Dasigi'
p1546
I1
sS'Liana Ermakova'
p1547
I1
sS'Krishna P. Gummadi'
p1548
I1
sS'Giorgio Gambosi'
p1549
I1
sS'Ding Zhou'
p1550
I1
sS'Shafiq R. Joty'
p1551
I1
sS'Katrina Fenlon'
p1552
I1
sS'Shimon Whiteson'
p1553
I1
sS'Min Yang'
p1554
I4
sS'Li-wei He'
p1555
I1
sS'Colin Wilkie'
p1556
I2
sS'Hongyu Li'
p1557
I1
sS'Joost de Wit'
p1558
I1
sS'Stefan Heindorf'
p1559
I1
sS'Hong Jing Khok'
p1560
I1
sS'Yongfeng Zhang'
p1561
I6
sS'Ella Rabinovich'
p1562
I1
sS'Eren Manavoglu'
p1563
I1
sS'Jovan Pehcevski'
p1564
I1
sS'Jiashen Sun'
p1565
I2
sS'Bingjun Sun'
p1566
I1
sS'Jari Veijalainen'
p1567
I1
sS'Matt Crane'
p1568
I2
sS'Patrick Gallinari'
p1569
I2
sS'Markus Schedl'
p1570
I8
sS'Avikalp Srivastava'
p1571
I1
sS'Xiwei Xu'
p1572
I1
sS'Maximilian Michel'
p1573
I2
sS'Shuai Liao'
p1574
I1
sS'Yang Cao'
p1575
I1
sS'Maengsik Choi'
p1576
I1
sS'Shiqiang Yang'
p1577
I1
sS'Umut Ozertem'
p1578
I3
sS'Weiyu Lan'
p1579
I1
sS'Duc Thanh Tran'
p1580
I1
sS'Jagadeesh Jagarlamudi'
p1581
I1
sS'Xiangling Zhang'
p1582
I1
sS'Ilaria Bordino'
p1583
I1
sS'Dietrich Klakow'
p1584
I3
sS'Wellington Martins'
p1585
I1
sS'Jun Miao'
p1586
I2
sS'Patrice Bellot'
p1587
I3
sS'Toine Bogers'
p1588
I1
sS'Myung-Gil Jang'
p1589
I2
sS'Martin Rajman'
p1590
I1
sS'Joseph Adler'
p1591
I1
sS'Liping Jing'
p1592
I1
sS'Junfeng Zhou'
p1593
I1
sS'Po-Tzu Chang'
p1594
I1
sS'Nitya Narasimhan'
p1595
I1
sS'Kenneth Ward Church'
p1596
I2
sS'Ray R. Larson'
p1597
I1
sS'Qinfeng Shi'
p1598
I1
sS'Diane Kelly 0001'
p1599
I19
sS'Lance Riedel'
p1600
I2
sS'Cody Buntain'
p1601
I1
sS'Yonatan Ben-Simhon'
p1602
I1
sS'Yu-Gang Jiang'
p1603
I1
sS'Dan Wu'
p1604
I1
sS'Pengfei Wang'
p1605
I1
sS'Llu\xc3\xads M\xc3\xa0rquez'
p1606
I2
sS'Pavlos Fafalios'
p1607
I1
sS'Rishiraj Saha Roy'
p1608
I3
sS'Shouxun Lin'
p1609
I1
sS'Zhu Zhu'
p1610
I1
sS'Adam D. Troy'
p1611
I1
sS'Jiang Bian'
p1612
I2
sS'Shunzhi Zhu'
p1613
I1
sS'Gaya K. Jayasinghe'
p1614
I2
sS'Alex Clemmer'
p1615
I1
sS'Tonya Custis'
p1616
I1
sS'Daniel Tunkelang'
p1617
I1
sS'Johannes Leveling'
p1618
I9
sS'Norbert Fuhr'
p1619
I2
sS'Jun Wang'
p1620
I4
sS'Laurens van der Werff'
p1621
I1
sS'Mitsunori Ogihara'
p1622
I3
sS'Alistair C. Veitch'
p1623
I1
sS'Tomohiro Yamasaki'
p1624
I1
sS'Jindou Wu'
p1625
I1
sS'J. Scott Olsson'
p1626
I2
sS'Elena Demidova'
p1627
I4
sS'Tuukka Ruotsalo'
p1628
I3
sS'Raj Gopal Prasad Kantamneni'
p1629
I1
sS'Jonghun Park'
p1630
I1
sS'Ron Bekkerman'
p1631
I1
sS'Shiwan Zhao'
p1632
I1
sS'Steve Webb'
p1633
I1
sS'Lili Jiang'
p1634
I2
sS'Vinicius Monteiro de Lira'
p1635
I2
sS'Dingming Wu 0001'
p1636
I1
sS'Jeffrey Chan'
p1637
I1
sS'Dong Wang'
p1638
I1
sS'Jo\xc3\xa3o R. M. Palotti'
p1639
I2
sS'Fernando Diaz 0001'
p1640
I14
sS'Ping Wang'
p1641
I1
sS'Masayuki Okamoto'
p1642
I2
sS'Mengqiu Wang'
p1643
I2
sS'Stefan Kahl'
p1644
I1
sS'Benjamin Markines'
p1645
I1
sS'David Fong'
p1646
I1
sS'Jianping Fan 0001'
p1647
I1
sS'Huiying Li'
p1648
I1
sS'Pere Obrador'
p1649
I1
sS'Minh Thuong Bui'
p1650
I1
sS'Li-Tal Mashiach'
p1651
I1
sS'Lars Schmidt-Thieme'
p1652
I1
sS'Iskander Yusof'
p1653
I1
sS'Pai Peng'
p1654
I3
sS'Artem Sokolov'
p1655
I1
sS'Hanqing Lu'
p1656
I5
sS'M\xc3\xb3nica Marrero'
p1657
I3
sS'Haihui Tan'
p1658
I1
sS'Hannes M\xc3\xbchleisen'
p1659
I1
sS'Cevdet Aykanat'
p1660
I2
sS'Uma Murthy'
p1661
I1
sS'Stefano Leonardi'
p1662
I1
sS'Vitor R. Carvalho'
p1663
I3
sS'Kate Fernie'
p1664
I1
sS'Robert West 0001'
p1665
I1
sS'Wen-Yu Lee'
p1666
I1
sS'Samuel Carton'
p1667
I1
sS'Shine Wang'
p1668
I1
sS'Qiudan Li'
p1669
I2
sS'Lu\xc3\xads Marujo'
p1670
I1
sS'Rui Li'
p1671
I4
sS'Mingdong Ou'
p1672
I1
sS'Ross Wilkinson'
p1673
I1
sS'Xiubo Geng'
p1674
I3
sS'Flavia Grosan'
p1675
I1
sS'Bin Shen'
p1676
I1
sS'Xiangdong An'
p1677
I2
sS'Qing Zhang'
p1678
I2
sS'Johannes Hoffart'
p1679
I3
sS'Mauro Coletto'
p1680
I1
sS'Emre Bakkal'
p1681
I1
sS'Andrew Yates'
p1682
I1
sS'Ting-Hsiang Wang'
p1683
I1
sS'Wasi Uddin Ahmad'
p1684
I1
sS'Qifan Wang'
p1685
I6
sS'Yingying Wu'
p1686
I1
sS'Lo\xc3\xafc Maisonnasse'
p1687
I2
sS'Haewoon Kwak'
p1688
I1
sS'Taiki Miyanishi'
p1689
I1
sS'Andrey Filchenkov'
p1690
I1
sS'Seungdo Ha'
p1691
I1
sS'Homer H. Chen'
p1692
I1
sS'Aston Zhang'
p1693
I2
sS'Owen Conlan'
p1694
I1
sS'Jiwei Tan'
p1695
I1
sS'Santosh Raju'
p1696
I1
sS'Yunyao Li'
p1697
I1
sS'Michele Trevisiol'
p1698
I2
sS'Can Wang'
p1699
I2
sS'Guangda Li'
p1700
I1
sS'Eugene Agichtein'
p1701
I28
sS'Maria Fasli'
p1702
I1
sS'Aleksandr Vorobev'
p1703
I1
sS'Yoelle Maarek'
p1704
I6
sS'Zeyu Zheng'
p1705
I1
sS'Vidhya Navalpakkam'
p1706
I1
sS'Susan T. Dumais'
p1707
I20
sS'Hannaneh Hajishirzi'
p1708
I1
sS'Bo Chen'
p1709
I1
sS'Simon J. Puglisi'
p1710
I1
sS'Paul Baecke'
p1711
I1
sS'Fernando D. Diaz'
p1712
I3
sS'Ataur Rahman'
p1713
I1
sS'Craig A. N. Soules'
p1714
I1
sS'Yan Song'
p1715
I1
sS'Li Jiang'
p1716
I1
sS'Mohammed Al-Dhelaan'
p1717
I1
sS'Huajing Li'
p1718
I2
sS'Frank Schilder'
p1719
I1
sS'Yi Liu'
p1720
I1
sS'Sebastian de la Chica'
p1721
I1
sS'Kenichi Nogami'
p1722
I1
sS'Yannick Assogba'
p1723
I1
sS'Bevan Koopman'
p1724
I8
sS'Kaizhu Huang'
p1725
I1
sS'Jun Guo'
p1726
I2
sS'Thomas Low'
p1727
I1
sS'Fan Yang'
p1728
I2
sS'Jingkuan Song'
p1729
I1
sS'Alex Libov'
p1730
I2
sS'Hyun-Wook Woo'
p1731
I2
sS'Avihai Mejer'
p1732
I2
sS'Linjun Yang'
p1733
I4
sS'Alexander Tuzhilin'
p1734
I1
sS'Francine Chen'
p1735
I1
sS'Julie Ann McCann'
p1736
I1
sS'Karen Sp\xc3\xa4rck Jones'
p1737
I2
sS'Pavel A. Izhutov'
p1738
I1
sS'Peter Bruza'
p1739
I1
sS'Erik Boertjes'
p1740
I1
sS'Hanseul S. Lee'
p1741
I1
sS'Yafang Wang'
p1742
I1
sS'Amina Kadry'
p1743
I1
sS'Fabrizio Silvestri'
p1744
I8
sS'Houping Jia'
p1745
I1
sS'David A. Torres'
p1746
I1
sS'Paul Ferguson'
p1747
I1
sS'Bela Gipp'
p1748
I2
sS'Georges Dupret'
p1749
I2
sS'Rami Albatal'
p1750
I1
sS'Frank Hopfgartner'
p1751
I4
sS'P\xc3\xa1vel Calado'
p1752
I2
sS'Sihem Amer-Yahia'
p1753
I2
sS'Maarten Clements'
p1754
I2
sS'Bhuvana Ramabhadran'
p1755
I2
sS'Shaolei Ren'
p1756
I1
sS'Morgan Harvey'
p1757
I5
sS'Kuan-Ting Chen'
p1758
I1
sS'Eddy Maddalena'
p1759
I1
sS'Jinglei Zhao'
p1760
I1
sS'Christos Faloutsos'
p1761
I1
sS'Jing He'
p1762
I2
sS'Vassilis Plachouras'
p1763
I6
sS'Mohammad Aliannejadi'
p1764
I2
sS'Dunja Mladenic'
p1765
I1
sS'Kuang Mao'
p1766
I3
sS'Jieren Zhou'
p1767
I1
sS'Phyo Thiha'
p1768
I1
sS'Zhunchen Luo'
p1769
I1
sS'Earl W. Bailey'
p1770
I2
sS'Alan Hanjalic'
p1771
I3
sS'Qing Yang 0002'
p1772
I1
sS'Dimitrios Skoutas'
p1773
I1
sS'Peter Poller'
p1774
I1
sS"Colm O'Riordan"
p1775
I4
sS'Xin Liu'
p1776
I1
sS'Donglei Qian'
p1777
I1
sS'Michael J. Welch'
p1778
I1
sS'Ee-Peng Lim'
p1779
I5
sS'Kwun Ping Lai'
p1780
I1
sS'Yanxin Shi'
p1781
I1
sS'Zhuyun Dai'
p1782
I3
sS'Abhijit Bhole'
p1783
I1
sS'Tao Song'
p1784
I1
sS'Inna Gelfer Kalmanovich'
p1785
I2
sS'Xuemeng Song'
p1786
I2
sS'Sergio Cleger-Tamayo'
p1787
I1
sS'Archie Russell'
p1788
I1
sS'Cornelia Schiketanz'
p1789
I1
sS'Peng Cheng'
p1790
I1
sS'Chew Lim Tan'
p1791
I1
sS'Mirjana Ivanovic'
p1792
I1
sS'Enrique Alfonseca'
p1793
I3
sS'Keping Bi'
p1794
I1
sS'Phong D. Vo'
p1795
I1
sS'Michael K. Schneider'
p1796
I1
sS'Mahsa Taziki'
p1797
I1
sS'Moses Charikar'
p1798
I1
sS'Adam Lee'
p1799
I1
sS'Garrick Sherman'
p1800
I4
sS'Logambigai Venkatachalam'
p1801
I1
sS'Nanda Nandagopal'
p1802
I1
sS'Hiroaki Ohshima'
p1803
I2
sS'Andrei Khropov'
p1804
I1
sS'John Dunnion'
p1805
I1
sS'Qi Zhang'
p1806
I7
sS'Kar Wai Lim'
p1807
I1
sS'Victor S. Sheng'
p1808
I1
sS'Ou Jin'
p1809
I2
sS'David Hawking'
p1810
I7
sS'Bin Bi'
p1811
I1
sS'Seyit Kocberber'
p1812
I1
sS'Zhengshan Xue'
p1813
I1
sS'Erick Cant\xc3\xba-Paz'
p1814
I2
sS'Cyril Laurier'
p1815
I1
sS'Fernando Ruiz-Rico'
p1816
I2
sS'Daniel M. Herzig'
p1817
I1
sS'Mark M. Hall'
p1818
I2
sS'Maria Holmqvist'
p1819
I1
sS'Julia Luxenburger'
p1820
I1
sS'Daoud Clarke'
p1821
I1
sS'Edward Kei Shiu Ho'
p1822
I1
sS'Emre Varol'
p1823
I1
sS'Vasudeva Varma'
p1824
I6
sS'Yohei Kikuta'
p1825
I1
sS'Jiajin Le'
p1826
I1
sS'Maureen Dostert'
p1827
I1
sS'Ho Chung Wu'
p1828
I1
sS'Rui Guo'
p1829
I1
sS'Kokil Jaidka'
p1830
I1
sS'Ivan Koychev'
p1831
I1
sS'Jordi Atserias'
p1832
I1
sS'Yue Zhang'
p1833
I1
sS'Petteri Nurmi'
p1834
I1
sS'Christof Br\xc3\xa4utigam'
p1835
I1
sS'David Woudenberg'
p1836
I1
sS'Chen Zhang'
p1837
I1
sS'Nguyen Quoc Viet Hung'
p1838
I2
sS'Scott Sanner'
p1839
I4
sS'Tik-Shun Wong'
p1840
I1
sS'Panagiotis Karras'
p1841
I1
sS'Balaji Padmanabhan'
p1842
I1
sS'Jie Shao'
p1843
I1
sS'Kelly Ann Marshall'
p1844
I2
sS'Hans Friedrich Witschel'
p1845
I1
sS'Alexandros Ntoulas'
p1846
I2
sS'Miguel A. Rueda-Morales'
p1847
I1
sS'H. Bast'
p1848
I1
sS'Henning Rode'
p1849
I3
sS'Fernando Mour\xc3\xa3o'
p1850
I1
sS'Gianmarco De Francisci Morales'
p1851
I1
sS'Baiyan Liu'
p1852
I1
sS'Biao Xiang'
p1853
I1
sS'Parth Vasa'
p1854
I1
sS'Scott B. Huffman'
p1855
I3
sS'Suleyman Cetintas'
p1856
I3
sS'Noriko Kando'
p1857
I2
sS'Tasos Anastasakos'
p1858
I1
sS'Eric Moore'
p1859
I1
sS'Paolo Bolettieri'
p1860
I1
sS'Peter Ciccolo'
p1861
I1
sS'Daniel Ramage'
p1862
I1
sS'Matthias Petri'
p1863
I3
sS'Amira Ghenai'
p1864
I1
sS'Xiang Chen'
p1865
I1
sS'M-Dyaa Albakour'
p1866
I2
sS'Bin Cui 0001'
p1867
I1
sS'Leong Hou U'
p1868
I1
sS'Jin-ge Yao'
p1869
I1
sS'Aidan C. Crook'
p1870
I2
sS'Weijie An'
p1871
I1
sS'Yogarshi Vyas'
p1872
I1
sS'Yubin Xie'
p1873
I1
sS'Vasilis Kandylas'
p1874
I1
sS'Gianmaria Silvello'
p1875
I3
sS'Patrick Pantel'
p1876
I1
sS'St\xc3\xa9phane Clinchant'
p1877
I2
sS'Steven Burrows'
p1878
I1
sS'Liuyi Jiang'
p1879
I1
sS'Tieyun Qian'
p1880
I1
sS'Sri Devi Ravana'
p1881
I2
sS'Igor Kuralenok'
p1882
I1
sS'Chandra Prakash Jethani'
p1883
I3
sS'Jian-De Jiang'
p1884
I1
sS'Daniel J. Liebling'
p1885
I2
sS'Ted Tao Yuan'
p1886
I1
sS'Zhiguang Qin'
p1887
I1
sS'Justin Zobel'
p1888
I11
sS'Kan Xu'
p1889
I1
sS'Michiel van Dam'
p1890
I1
sS'Jizheng Xu'
p1891
I1
sS'Hyunki Kim'
p1892
I1
sS'Jintao Tang'
p1893
I2
sS'Xiaochi Wei'
p1894
I1
sS'Richang Hong'
p1895
I1
sS'Ting-Yi Shih'
p1896
I1
sS'Abdur Chowdhury'
p1897
I1
sS'Michel Plu'
p1898
I1
sS'Nuno Correia'
p1899
I1
sS'Murat Saraclar'
p1900
I2
sS'Duong Chi Thang'
p1901
I1
sS'Haitao Yu'
p1902
I1
sS'Mokrane Bouzeghoub'
p1903
I3
sS'S\xc3\xa9rgio D. Canuto'
p1904
I2
sS'Chii-Hian Lou'
p1905
I1
sS'Manoj Kumar Chinnakotla'
p1906
I1
sS'Koji Kamei'
p1907
I2
sS'Valentin Jijkoun'
p1908
I1
sS'Martin Szummer'
p1909
I2
sS'Jesus A. Rodriguez Perez'
p1910
I2
sS'Chaokun Wang'
p1911
I1
sS'Geert-Jan Houben'
p1912
I1
sS'Andrei Vishneuski'
p1913
I1
sS'Li Lin'
p1914
I1
sS'Yang Liu'
p1915
I1
sS'Michael J. Taylor'
p1916
I2
sS'Ye Wang'
p1917
I1
sS'Rohail Syed'
p1918
I1
sS'Yan Chen 0019'
p1919
I1
sS'Quanquan Gu'
p1920
I1
sS'Maxine Frank'
p1921
I1
sS'Kris West'
p1922
I1
sS'Shenglin Zhao'
p1923
I1
sS'Willemijn Heeren'
p1924
I1
sS'Lee Yang'
p1925
I1
sS'Dragan Milchevski'
p1926
I3
sS'Marcin Skowron'
p1927
I1
sS'Hengliang Luo'
p1928
I2
sS'Zhengtao Yu'
p1929
I1
sS'Jeremy Pickens'
p1930
I2
sS'Hangzai Luo'
p1931
I2
sS'Charles L. A. Clarke'
p1932
I25
sS'Mina Rho'
p1933
I1
sS'Jiaxin Mao'
p1934
I2
sS'Yue Shi'
p1935
I2
sS'Johann Daigremont'
p1936
I1
sS'Travis Ebesu'
p1937
I1
sS'Runar Bergheim'
p1938
I1
sS'Yongdong Zhang'
p1939
I1
sS'Hakim Hacid'
p1940
I3
sS'Aliaksei Severyn'
p1941
I5
sS'Greg J. Badros'
p1942
I1
sS'Madhav Datt'
p1943
I1
sS'Dinesh Raghu'
p1944
I1
sS'Anna Shtok'
p1945
I6
sS'Simon Moura'
p1946
I1
sS'Shanika Karunasekera'
p1947
I1
sS'Adam Rae'
p1948
I1
sS'Wei Zhang'
p1949
I1
sS'Khe Chai Sim'
p1950
I1
sS'Chengqi Zhang'
p1951
I1
sS'Zaiqing Nie'
p1952
I1
sS'Mengwen Liu'
p1953
I2
sS'Shaoping Ma'
p1954
I16
sS'Yang Yang'
p1955
I1
sS'Tong Zhang 0001'
p1956
I1
sS'Peter B. Golbus'
p1957
I3
sS'Rebecca Jane Stones'
p1958
I1
sS'Matthias Hagen'
p1959
I4
sS'Cristover Lopes'
p1960
I1
sS'Bracha Shapira'
p1961
I2
sS'Chieh-Jen Wang'
p1962
I1
sS'Yuanhua Lv'
p1963
I6
sS'Philip Habel'
p1964
I3
sS'Bo Yang'
p1965
I1
sS'Hang Cui'
p1966
I1
sS'Egon L. van den Broek'
p1967
I1
sS'Erica Cooper'
p1968
I1
sS'Junchi Yan'
p1969
I1
sS'Yan Li'
p1970
I1
sS'Pablo Castells'
p1971
I9
sS'Roc\xc3\xado Ca\xc3\xb1amares'
p1972
I1
sS'Javed A. Aslam'
p1973
I11
sS'Marianne Clausel'
p1974
I2
sS'Valery Rashkov'
p1975
I1
sS'Gabriel Wachman'
p1976
I1
sS'Fang Liu'
p1977
I1
sS'Changki Lee'
p1978
I2
sS'Wei Yuan'
p1979
I1
sS'Petri Myllym\xc3\xa4ki'
p1980
I1
sS'G. Craig Murray'
p1981
I2
sS'Zeno Gantner'
p1982
I1
sS'Ming Zhou'
p1983
I2
sS'Ying Zhang 0001'
p1984
I2
sS'Arman Cohan'
p1985
I1
sS'Jia Zeng'
p1986
I1
sS'Gideon Dror'
p1987
I2
sS'Songbo Tan'
p1988
I2
sS'Bailan Feng'
p1989
I1
sS'Elena Agapie'
p1990
I1
sS'Peter Knees'
p1991
I4
sS'Dzung Hong'
p1992
I4
sS'Michael D. Lieberman'
p1993
I2
sS'Jerome White'
p1994
I1
sS'Lidong Bing'
p1995
I2
sS'Shiri Dori-Hacohen'
p1996
I2
sS'Mona Mojdeh'
p1997
I2
sS'Hsiu-Wei Yang'
p1998
I1
sS'Faegheh Hasibi'
p1999
I5
sS'Berthier A. Ribeiro-Neto'
p2000
I1
sS'Evgeniy Gabrilovich'
p2001
I8
sS'Yuxin Zhou'
p2002
I1
sS'Naveen Somasundaram'
p2003
I1
sS'Daqing He'
p2004
I5
sS'Tianshu Lyu'
p2005
I1
sS'Klaus Seyerlehner'
p2006
I1
sS'Hossein Vahabi'
p2007
I2
sS'Mohammed Hasanuzzaman'
p2008
I1
sS'Surajit Chaudhuri'
p2009
I1
sS'Eibe Frank'
p2010
I1
sS'Linas Baltrunas'
p2011
I2
sS'Zhen Hai'
p2012
I1
sS'Jianlong Wu'
p2013
I1
sS'Yun Xiong'
p2014
I1
sS'Hanan Samet'
p2015
I2
sS'Massimiliano Ciaramita'
p2016
I2
sS'Manolis Vavalis'
p2017
I1
sS'Zhou Yu'
p2018
I2
sS'Dan Luu'
p2019
I1
sS'Wei-keng Liao'
p2020
I1
sS'Ruoran Liu'
p2021
I1
sS'Daniel Hasan Dalip'
p2022
I1
sS'Hannah Bast'
p2023
I2
sS'Noam Tractinsky'
p2024
I1
sS'Junyu Niu'
p2025
I1
sS'Yiyang Yang'
p2026
I1
sS'Changsung Kang'
p2027
I1
sS'Zhanibek Datbayev'
p2028
I1
sS'Eric Lo'
p2029
I1
sS'Fei Liu 0023'
p2030
I1
sS'Bo Zhao 0001'
p2031
I1
sS'Juli\xc3\xa1n Urbano'
p2032
I3
sS'Susana Ladra'
p2033
I1
sS'Jincheng Mei'
p2034
I1
sS'Mehdi Hosseini'
p2035
I2
sS'Mingfang Wu'
p2036
I3
sS'Mehrdad Yazdani'
p2037
I1
sS'Yuting Liu'
p2038
I1
sS'Junte Zhang'
p2039
I1
sS'Mustafa Bilgic 0001'
p2040
I1
sS'Maayan Gal-On Harel'
p2041
I1
sS'Olivier Siohan'
p2042
I1
sS'Oren Kurland'
p2043
I30
sS'Zhenhua Wang'
p2044
I1
sS'Nicola Ferro'
p2045
I5
sS'William R. Hersh'
p2046
I1
sS'Michael Hopcroft'
p2047
I1
sS'Sean McKeown'
p2048
I1
sS'Christopher M. De Vries'
p2049
I1
sS'Yao Cheng'
p2050
I1
sS'Hao Xia'
p2051
I1
sS'Andreas Kaltenbrunner'
p2052
I1
sS'Cheng Zhang'
p2053
I1
sS'Paula Goodale'
p2054
I1
sS'Ilya Markov'
p2055
I5
sS'Wei Jeng'
p2056
I1
sS'Rongmei Li'
p2057
I1
sS'Tianming Hu'
p2058
I1
sS'Naama Zwerdling'
p2059
I3
sS'B\xc3\xb6rkur Sigurbj\xc3\xb6rnsson'
p2060
I1
sS'Zigang Cao'
p2061
I1
sS'Ivan Kovacek'
p2062
I1
sS'John Guiver'
p2063
I1
sS'Xuan Zhu'
p2064
I1
sS'Dingyi Han'
p2065
I1
sS'Sharma Chakravarthy'
p2066
I1
sS'Heiko Schuldt'
p2067
I3
sS'Patrick Aichroth'
p2068
I1
sS'Ali Azimi Bolourian'
p2069
I1
sS'Bayar Tsolmon'
p2070
I1
sS'Yasushi Sakurai'
p2071
I2
sS'Dennis Fetterly'
p2072
I3
sS'Tatiana Pontes'
p2073
I1
sS'Laurianne Sitbon'
p2074
I2
sS'Alan Medlar'
p2075
I1
sS'Jianfeng Gao'
p2076
I7
sS'Manisha Ganguly'
p2077
I1
sS'Ji-Rong Wen'
p2078
I8
sS'Mats Stafseng Einarsen'
p2079
I1
sS'Yun Zhou'
p2080
I1
sS'Fuli Feng'
p2081
I1
sS'Thiago Salles'
p2082
I4
sS'Roberto Louren\xc3\xa7o de Oliveira Jr.'
p2083
I1
sS'Ioannis Partalas'
p2084
I1
sS'Gary Kazantsev'
p2085
I1
sS'Yang Song'
p2086
I6
sS'Zhumin Chen'
p2087
I3
sS'Praveen Paritosh'
p2088
I1
sS'Longke Hu'
p2089
I1
sS'Hungyu Henry Lin'
p2090
I1
sS'Xiaolu Lu 0002'
p2091
I2
sS'Josep M. Pujol'
p2092
I1
sS'Vincent Ng'
p2093
I1
sS'Tat-Seng Chua'
p2094
I22
sS'Shashwat Mishra'
p2095
I1
sS'Suzanne Tamang'
p2096
I1
sS'Yu Zheng 0004'
p2097
I1
sS'Kien Pham'
p2098
I1
sS'Dongsheng Li'
p2099
I1
sS'Stefan B\xc3\xbcttcher'
p2100
I4
sS'Archana Godavarthy'
p2101
I1
sS'Jana\xc3\xadna Gomide'
p2102
I1
sS'Robert Hyland'
p2103
I1
sS'Peter Fankhauser'
p2104
I1
sS'Marco Cristo'
p2105
I2
sS'Lejian Liao'
p2106
I2
sS'Fangbo Tao'
p2107
I1
sS'Thorsten Joachims'
p2108
I4
sS'Haixuan Yang'
p2109
I1
sS'Thomas Burris'
p2110
I1
sS'Juan Zi'
p2111
I1
sS'Junli Yang'
p2112
I1
sS'Stewart Whiting'
p2113
I5
sS'Florian Meier'
p2114
I1
sS'Anwitaman Datta'
p2115
I3
sS'Nir Ofek'
p2116
I1
sS'Jamie Callan'
p2117
I18
sS'Kangmiao Liu'
p2118
I4
sS'Qing Yu'
p2119
I1
sS'Sung Jun Lee'
p2120
I1
sS'Maksims Volkovs'
p2121
I1
sS'Fan Li'
p2122
I2
sS'Jaya Kawale'
p2123
I1
sS'Minoru Yoshida'
p2124
I1
sS'Matteo Lombardi'
p2125
I1
sS'Jong-Hyeok Lee'
p2126
I2
sS'Matthias Robine'
p2127
I2
sS'Chang Liu'
p2128
I1
sS'Aitor Soroa'
p2129
I1
sS'Doan Nguyen'
p2130
I1
sS'Chathra Hendahewa'
p2131
I1
sS'Feifei Zhai'
p2132
I1
sS'Gang Chen 0001'
p2133
I12
sS'Takuya Maekawa'
p2134
I2
sS'Jingwen Bian'
p2135
I1
sS'Rachid Guerraoui'
p2136
I1
sS'Yun Sing Koh'
p2137
I1
sS'Somayeh Khatiban'
p2138
I1
sS'Chunping Li'
p2139
I1
sS'Joan Claudi Socor\xc3\xb3'
p2140
I1
sS'Nicolas Usunier'
p2141
I4
sS'Miroslav Shaltev'
p2142
I1
sS'ChengXiang Zhai'
p2143
I27
sS'Suqi Cheng'
p2144
I1
sS'Saravadee Sae Tan'
p2145
I1
sS'Parikshit Sondhi'
p2146
I1
sS'Kai Lu'
p2147
I1
sS'Robin Aly'
p2148
I2
sS'Miro Lehtonen'
p2149
I1
sS'Joemon M. Jose'
p2150
I25
sS'Irwin King'
p2151
I7
sS'Steven Bedrick'
p2152
I1
sS'Heng Huang'
p2153
I1
sS'Olivier Chapelle'
p2154
I4
sS'Luke Barrington'
p2155
I2
sS'Jiawei Han 0001'
p2156
I8
sS'Huawei Shen'
p2157
I1
sS'Maojin Jiang'
p2158
I1
sS'Wei Chen'
p2159
I1
sS'Gareth J. F. Jones'
p2160
I15
sS'James Cheng'
p2161
I1
sS'Srinivas Narayanan'
p2162
I1
sS'Yanwei Pang'
p2163
I1
sS'Jun Gong'
p2164
I1
sS'Javier Parapar'
p2165
I4
sS'Xian-Sheng Hua'
p2166
I9
sS'Alessandro Bozzon'
p2167
I2
sS'Yutaka Yanagisawa'
p2168
I2
sS'Yong Rui'
p2169
I2
sS'Thomas Wilhelm-Stein'
p2170
I1
sS'Xiong Xiong'
p2171
I1
sS'Andrea Ceroni'
p2172
I2
sS'Masoud Reyhani Hamedani'
p2173
I1
sS'Rui Yan'
p2174
I5
sS'Mohamed Farah 0001'
p2175
I1
sS'Clement Welsch'
p2176
I1
sS'Feiping Nie'
p2177
I1
sS'Lluis Garcia Pueyo'
p2178
I1
sS'Marko Junkkari'
p2179
I1
sS'Ludger van Elst'
p2180
I2
sS'Kevin Ong'
p2181
I1
sS'Melissa Ailem'
p2182
I1
sS'Lynda Tamine'
p2183
I1
sS'Cristina Ioana Muntean'
p2184
I2
sS'Ben He'
p2185
I7
sS'Gilad Katz'
p2186
I1
sS'Wei Liu'
p2187
I6
sS'Thomas Finley'
p2188
I1
sS'Marc Najork'
p2189
I3
sS'Shuo Shen'
p2190
I1
sS'Moumita Basu'
p2191
I1
sS'Ming Gao 0004'
p2192
I1
sS'Sabrina Sauer'
p2193
I1
sS'Parth Gupta'
p2194
I2
sS'Xiaoou Chen'
p2195
I1
sS'Long Wang'
p2196
I1
sS'Jiajin Wu'
p2197
I1
sS'Zhihang Li'
p2198
I1
sS'Philip S. Yu'
p2199
I2
sS'Sicong Zhang'
p2200
I5
sS'Eric C. Jensen'
p2201
I1
sS'Erik Ordentlich'
p2202
I1
sS'Dakan Wang'
p2203
I1
sS'Chris Leggetter'
p2204
I2
sS'Ramnath Bhat'
p2205
I1
sS'Parisa Kaghazgaran'
p2206
I1
sS'Ayan Bandyopadhyay'
p2207
I2
sS'Kian-Wei Kor'
p2208
I1
sS'Xianpei Han'
p2209
I1
sS'Maura R. Grossman'
p2210
I6
sS'Bostjan Pajntar'
p2211
I1
sS'Jos\xc3\xa9-Marcio Martins da Cruz'
p2212
I1
sS'Tao Zhang'
p2213
I2
sS'Arun S. Maiya'
p2214
I1
sS'Nigel Shadbolt'
p2215
I1
sS'Keith van Rijsbergen'
p2216
I2
sS'Jean-Fran\xc3\xa7ois Crespo'
p2217
I1
sS'Charles K. Nicholas'
p2218
I2
sS'Olli Pihlajamaa'
p2219
I1
sS'Greg Tronel'
p2220
I1
sS'Max Hinne'
p2221
I1
sS'Rawia Awadallah'
p2222
I1
sS'Abhinav Sethy'
p2223
I1
sS'Ajay Gupta 0005'
p2224
I1
sS'Ingemar J. Cox'
p2225
I6
sS'Guihong Cao'
p2226
I2
sS'Theo P. van der Weide'
p2227
I1
sS'Mihai Lupu'
p2228
I4
sS'Takahide Hoshide'
p2229
I1
sS'Zhigang Yuan'
p2230
I1
sS'Datong Chen'
p2231
I1
sS'Catherine Berrut'
p2232
I1
sS'Pan Du'
p2233
I1
sS'Motoko Maki'
p2234
I1
sS'Zhiwei Zhang'
p2235
I4
sS'Jeong Woo Son'
p2236
I2
sS'Wei Li 0012'
p2237
I2
sS'Natasa Milic-Frayling'
p2238
I4
sS'Omar Alonso'
p2239
I13
sS'Ke Zhou'
p2240
I12
sS'Shakti Sinha'
p2241
I1
sS'Jia Wang'
p2242
I1
sS'Jane Li'
p2243
I1
sS'Jos\xc3\xa9 Mar\xc3\xada G\xc3\xb3mez Hidalgo'
p2244
I1
sS'Niranjan Balasubramanian'
p2245
I4
sS'Daniel M. Russell'
p2246
I1
sS'Victor Rodrigues'
p2247
I1
sS'Xin-Jing Wang'
p2248
I3
sS'Tom Yeh'
p2249
I1
sS'Hang Guo'
p2250
I1
sS'Zhifeng Bao'
p2251
I1
sS'Shaomang Huang'
p2252
I1
sS'Brian Rea'
p2253
I1
sS'Carla Limongelli'
p2254
I1
sS'Alexander Kotov'
p2255
I6
sS'Brian Eoff'
p2256
I1
sS'Djoerd Hiemstra'
p2257
I10
sS'Saptarshi Ghosh'
p2258
I1
sS'Georg P. Schoenherr'
p2259
I1
sS'Judith Winter'
p2260
I1
sS'Qi Liu'
p2261
I1
sS'Dorota Glowacka'
p2262
I2
sS'Vibhu O. Mittal'
p2263
I1
sS'John R. Wicks'
p2264
I1
sS'Avishek Anand'
p2265
I6
sS'Zifei Shan'
p2266
I1
sS'Falk Scholer'
p2267
I17
sS'Boris Katz'
p2268
I1
sS'Noor Aldeen Alawad'
p2269
I1
sS'Andrew Arnold'
p2270
I1
sS'Marijn Koolen'
p2271
I6
sS'Qiaoliang Xiang'
p2272
I1
sS'Jos\xc3\xa9 Luis Vicedo Gonz\xc3\xa1lez'
p2273
I2
sS'Qi He'
p2274
I4
sS'Fu-Lai Chung'
p2275
I1
sS'Suthee Chaidaroon'
p2276
I1
sS'Nathaniel Good'
p2277
I1
sS'Rosie Jones'
p2278
I5
sS'Chin-Yew Lin'
p2279
I4
sS'YongCheng Zhan'
p2280
I1
sS'Gilad Mishne'
p2281
I1
sS'Xuewei Tang'
p2282
I1
sS'Song Xu'
p2283
I1
sS'Yueting Zhuang'
p2284
I6
sS'Jinru He'
p2285
I2
sS'Tereza Iofciu'
p2286
I1
sS'Dhivya Eswaran'
p2287
I1
sS'Fedor Nikolaev'
p2288
I3
sS'Yuntao Zhang'
p2289
I1
sS'Yuexin Wu'
p2290
I1
sS'Kyosuke Nishida'
p2291
I1
sS'Felipe Bravo-Marquez'
p2292
I1
sS'Viktors Garkavijs'
p2293
I1
sS'Nelleke Oostdijk'
p2294
I1
sS'Si-Chi Chin'
p2295
I2
sS'Fei Xu'
p2296
I2
sS'Nazneen Fatema N. Rajani'
p2297
I1
sS'Sang-Yun Lee'
p2298
I1
sS'Maria Hadjigeorgieva'
p2299
I1
sS'Jakob Grue Simonsen'
p2300
I1
sS'Yin Zhang'
p2301
I1
sS'Zhineng Chen'
p2302
I1
sS'Frank Wm. Tompa'
p2303
I3
sS'Giang Tran'
p2304
I1
sS'Siddharth Gopal'
p2305
I1
sS'Rajat Raina'
p2306
I1
sS'Christoph Meinel'
p2307
I1
sS'Bee-Chung Chen'
p2308
I2
sS'Peilin Yang'
p2309
I3
sS"Nadav Har'El"
p2310
I1
sS'Theodore Vasiloudis'
p2311
I1
sS'Alexandros Karatzoglou'
p2312
I3
sS'Jingtao Song'
p2313
I1
sS'Jinyun Yan'
p2314
I1
sS'Yogesh Sankarasubramaniam'
p2315
I1
sS'Manolis Terrovitis'
p2316
I1
sS'John F. Canny'
p2317
I1
sS'Cheng Jin'
p2318
I3
sS'Arnab Ghoshal'
p2319
I1
sS'Brian Keith Smith'
p2320
I1
sS'Yashar Moshfeghi'
p2321
I11
sS'Rem W. Collier'
p2322
I1
sS'Diederik M. Roijers'
p2323
I1
sS'Ilya Trofimov'
p2324
I1
sS'Sandeep Chougule'
p2325
I1
sS'Jianguo Wang 0001'
p2326
I1
sS'Alejandro Bellog\xc3\xadn'
p2327
I1
sS'Bo Pang'
p2328
I2
sS'Jun Ma'
p2329
I5
sS'Yinghui Xu'
p2330
I3
sS'Nan Zheng'
p2331
I1
sS'Hao Wu'
p2332
I2
sS'Hadi Amiri'
p2333
I1
sS'Christoph Freudenthaler'
p2334
I1
sS'Xiaohua Zhou'
p2335
I1
sS'Donna Harman'
p2336
I1
sS'Yiming Yang'
p2337
I5
sS'Hyungsul Kim'
p2338
I1
sS'Adriano C. M. Pereira'
p2339
I1
sS'Akiomi Nishida'
p2340
I1
sS'Zuoquan Lin'
p2341
I1
sS'Jun Xu 0001'
p2342
I6
sS'Tao Li'
p2343
I3
sS'Lan Nie'
p2344
I3
sS'Se-Young Park'
p2345
I1
sS'Hui Yang'
p2346
I1
sS'Wenjun Zhou'
p2347
I1
sS'Hongfei Lin'
p2348
I3
sS'Filip Radlinski'
p2349
I14
sS'Manisha Verma'
p2350
I1
sS'Ivan Vulic'
p2351
I2
sS'Zheng Chen'
p2352
I11
sS'Wang Meng'
p2353
I1
sS'Luis M. de Campos'
p2354
I1
sS'Bhavesh Shah'
p2355
I1
sS'Reem Suwaileh'
p2356
I1
sS'Wanying Ding'
p2357
I1
sS'Zaihan Yang'
p2358
I2
sS'Jyun-Yu Jiang'
p2359
I2
sS'Sarvnaz Karimi'
p2360
I1
sS'Seung-won Hwang'
p2361
I1
sS'Remko Caprio'
p2362
I1
sS'Pierre-Fran\xc3\xa7ois Laquerre'
p2363
I1
sS'Melania Degerattu'
p2364
I1
sS'Chang-Tien Lu'
p2365
I1
sS'Elad Shahar'
p2366
I1
sS'Franco Maria Nardini'
p2367
I6
sS'Martin Raubal'
p2368
I1
sS'Haotian Zhang'
p2369
I2
sS'Lan Lin'
p2370
I1
sS'Russell Power'
p2371
I1
sS'Sujian Li'
p2372
I1
sS'Dustin Hillard'
p2373
I2
sS'Wei Gao'
p2374
I6
sS'P. Krishna Gummadi'
p2375
I1
sS'Pengyi Zhang'
p2376
I1
sS'Sourav S. Bhowmick'
p2377
I3
sS'Xiaoyuan Cui'
p2378
I1
sS'Peng Zhang 0002'
p2379
I4
sS'Xiaohua Hu'
p2380
I3
sS'Cong Leng'
p2381
I2
sS'Jiyi Li'
p2382
I1
sS'Liangcai Gao'
p2383
I3
sS'Sergei Ivanov 0002'
p2384
I1
sS'Azin Ashkan'
p2385
I2
sS'Saori Suzuki'
p2386
I1
sS'Jan Hoidekr'
p2387
I1
sS'Saulo M. R. Ricci'
p2388
I1
sS'Stefania Marrara'
p2389
I1
sS'Lawrence Cavedon'
p2390
I2
sS'Marcos Andr\xc3\xa9 Gon\xc3\xa7alves'
p2391
I13
sS'Dan Zhang 0007'
p2392
I4
sS'Corey W. Arnold'
p2393
I1
sS'Yong Liu'
p2394
I1
sS'Pu-Jen Cheng'
p2395
I5
sS'Andrew Patterson'
p2396
I1
sS'Yoshiyuki Inagaki'
p2397
I1
sS'Utpal Garain'
p2398
I1
sS'Matthew Ekstrand-Abueg'
p2399
I2
sS'Tim Pohle'
p2400
I1
sS'Dongmei Jia'
p2401
I1
sS'Bennett A. Hagedorn'
p2402
I1
sS'Vinay Jethava'
p2403
I1
sS'Ganesh Ramakrishnan'
p2404
I1
sS'Vu Tran'
p2405
I1
sS'Fran\xc3\xa7ois Mairesse'
p2406
I1
sS'Shuyuan He'
p2407
I1
sS'Siliang Tang'
p2408
I3
sS'Erik F. Tjong Kim Sang'
p2409
I1
sS'Gang Luo'
p2410
I1
sS'Ying He 0001'
p2411
I2
sS'Suresh Iyengar'
p2412
I1
sS'Daxin Jiang'
p2413
I5
sS'Wang-Chien Lee'
p2414
I6
sS'Francesc Al\xc3\xadas'
p2415
I1
sS'Heather Roinestad'
p2416
I1
sS'Jeffrey Pound'
p2417
I1
sS'Sosuke Kato'
p2418
I1
sS'Gang Li'
p2419
I1
sS'Matthew Richardson'
p2420
I3
sS'Ziyang Chen'
p2421
I1
sS'Li Liu'
p2422
I1
sS'Ork de Rooij'
p2423
I1
sS'Seung-yon Yu'
p2424
I1
sS'Moritz Schubotz'
p2425
I2
sS'Chao Wei'
p2426
I1
sS'Patrick Harrington'
p2427
I1
sS'Kiyoto Miyajima'
p2428
I1
sS'Baoli Li'
p2429
I1
sS'Markus Muhr'
p2430
I1
sS'Yuchen Zhang'
p2431
I1
sS'Martin Franz'
p2432
I2
sS'Erik Elgersma'
p2433
I1
sS'Ahmed El Kholy'
p2434
I1
sS'Gabriela Ferraro'
p2435
I1
sS'Hui Yang 0001'
p2436
I11
sS'Mohan S. Kankanhalli'
p2437
I2
sS'Nikolaos Nanas'
p2438
I1
sS'Cheng Li'
p2439
I1
sS'Diego Mart\xc3\xadn 0001'
p2440
I2
sS'Vanessa Evers'
p2441
I1
sS'Yen-Cheng Lu'
p2442
I1
sS'Jos\xc3\xa9 Carlos Toucedo'
p2443
I1
sS'W. J. Teahan'
p2444
I1
sS'Ernest V. Garcia'
p2445
I1
sS'David Buttler'
p2446
I1
sS'Mark Sanderson'
p2447
I21
sS'Moin Nabi'
p2448
I1
sS'Masaya Murata'
p2449
I1
sS'Issei Sato'
p2450
I1
sS'Tianqi Chen'
p2451
I3
sS'Fernando Diaz'
p2452
I1
sS'Xiang Deng'
p2453
I1
sS'Christopher J. C. Burges'
p2454
I1
sS'Wei Li'
p2455
I1
sS'Vitaliy Koshelev'
p2456
I1
sS'Preslav Nakov'
p2457
I3
sS'Paul D. Clough'
p2458
I10
sS'Ilija Subasic'
p2459
I1
sS'Daniel Balchev'
p2460
I1
sS'Qikai Cheng'
p2461
I1
sS'Ahmad Kardan'
p2462
I1
sS'Jianshu Weng'
p2463
I2
sS'Bo Shao'
p2464
I1
sS'Andreas F. Ehmann'
p2465
I1
sS'Bei Shi'
p2466
I1
sS'Michelle Kovesi'
p2467
I1
sS'Raman Chandrasekar'
p2468
I2
sS'Jinlong Wang'
p2469
I1
sS'Huanhuan Cao'
p2470
I1
sS'Yen-Yu Ke'
p2471
I1
sS'Xue Jiang'
p2472
I1
sS'Zhitao Wang'
p2473
I1
sS'Yinglong Zhang'
p2474
I3
sS'Niloy Ganguly'
p2475
I3
sS'Hirotaka Kameko'
p2476
I1
sS'Xinyan Lu'
p2477
I1
sS'Chao Zhang'
p2478
I4
sS'Eder Ferreira Martins'
p2479
I1
sS'Swapan K. Parui'
p2480
I1
sS'Pavel Berkhin'
p2481
I2
sS'Richard McCreadie'
p2482
I9
sS'Enrique Puertas Sanz'
p2483
I1
sS'Bor-Chun Chen'
p2484
I1
sS'Yunhua Hu'
p2485
I2
sS'Hancheng Ge'
p2486
I1
sS'Elena Smirnova'
p2487
I2
sS'Jia Tina Du'
p2488
I3
sS'Xiaodong He'
p2489
I3
sS'Simon Jonassen'
p2490
I1
sS'John Z. Zhang'
p2491
I1
sS'Mark Levene'
p2492
I2
sS'Mina H. Farid'
p2493
I1
sS'Arnaud Saval'
p2494
I1
sS'Elaine G. Toms'
p2495
I2
sS'Guido Zuccon'
p2496
I14
sS'Xiaojun Yuan 0001'
p2497
I1
sS'Nikita V. Spirin'
p2498
I1
sS'Jan Rupnik'
p2499
I1
sS'Katsumi Tanaka'
p2500
I4
sS'Zhiwei Li'
p2501
I1
sS'Damiano Spina'
p2502
I4
sS'Gideon S. Mann'
p2503
I1
sS'Jun Sakuma'
p2504
I1
sS'Mohammed A. Alam'
p2505
I1
sS'Krishnan Ramanathan'
p2506
I2
sS'Shlomo Argamon'
p2507
I1
sS'Shangsong Liang'
p2508
I6
sS'Kuansan Wang'
p2509
I5
sS'Kalle Ilves'
p2510
I1
sS'Katayoun Farrahi'
p2511
I1
sS'Justin Talbot'
p2512
I1
sS'Pavel Ircing'
p2513
I1
sS'John D. Lafferty'
p2514
I1
sS'Yoonsik Tak'
p2515
I1
sS'Changhua Yang'
p2516
I1
sS'Sigalit Ur'
p2517
I1
sS'Yiqun Liu'
p2518
I19
sS'Zhaohui Zheng'
p2519
I6
sS'Blaz Fortuna'
p2520
I1
sS'Maheedhar Kolla'
p2521
I2
sS'Yejun Wu'
p2522
I1
sS'Shuaiqiang Wang'
p2523
I3
sS'Andreas Broschart'
p2524
I3
sS'Ke Yuan'
p2525
I1
sS'Tye Rattenbury'
p2526
I1
sS'Sumio Fujita'
p2527
I2
sS'Pranav Ramarao'
p2528
I1
sS'Jia Li 0001'
p2529
I1
sS'Xiaogang Li'
p2530
I1
sS'Qiaoling Liu'
p2531
I3
sS'Xiangdong Zhou'
p2532
I1
sS"Philip O'Brien"
p2533
I1
sS'Soroush Vosoughi'
p2534
I1
sS'Jiancong Tong'
p2535
I4
sS'Esraa Ali'
p2536
I1
sS'Chen Li 0001'
p2537
I1
sS'Jannik Str\xc3\xb6tgen'
p2538
I1
sS'Craig Willis'
p2539
I2
sS'Nikita Zhiltsov'
p2540
I2
sS'Vuong Thanh Tung'
p2541
I1
sS'Mucahid Kutlu'
p2542
I1
sS'Hang Li'
p2543
I18
sS'Ramasamy Vijayalakshmi'
p2544
I1
sS'Kushal S. Dave'
p2545
I1
sS'Ping Luo'
p2546
I1
sS'Chunlei Yang'
p2547
I1
sS'Christos Tryfonopoulos'
p2548
I2
sS'Haixun Wang'
p2549
I1
sS'Juliane Stiller'
p2550
I1
sS'Jimmy Huang'
p2551
I1
sS'Abhijeet Sangwan'
p2552
I1
sS'Ya Xu'
p2553
I1
sS'Marcel Gohsen'
p2554
I1
sS'Dik Lun Lee'
p2555
I4
sS'Dehong Gao'
p2556
I3
sS'Giovanni Romano 0002'
p2557
I1
sS'Dolf Trieschnigg'
p2558
I5
sS'Ismail Hakki Toroslu'
p2559
I1
sS'Jun Zhang'
p2560
I1
sS'Orestis Kostakis'
p2561
I1
sS'Richard Bache'
p2562
I1
sS'Jian-Yun Nie'
p2563
I11
sS'\xc3\x81lvaro Barreiro'
p2564
I1
sS'Brent J. Hecht'
p2565
I1
sS'Dawei Song 0001'
p2566
I8
sS'Radu Florian'
p2567
I1
sS'Yang Zhang'
p2568
I1
sS'Chun Guo 0001'
p2569
I1
sS'Hongyuan Ma'
p2570
I5
sS'Eduard C. Dragut'
p2571
I1
sS'Falin Liu'
p2572
I1
sS'Stefano Mizzaro'
p2573
I7
sS'Xiaoning He'
p2574
I1
sS'Sadiye Alici'
p2575
I1
sS'Somnath Banerjee'
p2576
I3
sS'Xueming Qian'
p2577
I1
sS'Xuanjing Huang'
p2578
I6
sS'Jianbin Qin'
p2579
I1
sS'Mourad Ouzzani'
p2580
I1
sS'Yu-Ching Lin'
p2581
I1
sS'Jun Wang 0012'
p2582
I7
sS'Thomas Neumann 0001'
p2583
I3
sS'Tanuja Bompada'
p2584
I1
sS'Mahmood Neshati'
p2585
I1
sS'Yann Mombrun'
p2586
I1
sS'Blake Anderson'
p2587
I1
sS'Yi Chen'
p2588
I1
sS'Honghui Chen'
p2589
I1
sS'Yi-Gyu Hwang'
p2590
I1
sS'Seokhwan Kim'
p2591
I1
sS'Viet Ha-Thuc'
p2592
I3
sS'Gleb Skobeltsyn'
p2593
I2
sS'Rajmonda S. Caceres'
p2594
I1
sS'K. Pramod Sankar'
p2595
I1
sS'Anne-Marie Kermarrec'
p2596
I1
sS'Zheng Ye'
p2597
I6
sS'Shenghao Liu'
p2598
I1
sS'Dengyong Zhou'
p2599
I1
sS'Maria Stone'
p2600
I1
sS'Bang Wang'
p2601
I1
sS'Raquel Oliveira Prates'
p2602
I1
sS'Md. Hedayetul Islam Shovon'
p2603
I1
sS'Anne Schuth'
p2604
I3
sS'Ioannis Kompatsiaris'
p2605
I1
sS'Mal\xc3\xba Castellanos'
p2606
I1
sS'Alan F. Smeaton'
p2607
I3
sS'Rikio Onai'
p2608
I1
sS'Michael R. Evans'
p2609
I1
sS'Shoubin Kong'
p2610
I2
sS'Virgil Pavlu'
p2611
I3
sS'Xun Zhang'
p2612
I1
sS'Max Wilson'
p2613
I1
sS'Yi-Min Wang'
p2614
I1
sS'Laure Soulier'
p2615
I1
sS'Paul Raff'
p2616
I1
sS'An-Jung Cheng'
p2617
I1
sS'Nikos Mamoulis'
p2618
I3
sS'Kefeng Deng'
p2619
I1
sS'Xueqi Cheng'
p2620
I15
sS'Xavier Sevillano'
p2621
I1
sS'Shaowei Liu'
p2622
I1
sS'Gilles Vandelle'
p2623
I1
sS'Kam-Fai Wong'
p2624
I5
sS'Jun Lu'
p2625
I1
sS'Hichem Sahbi'
p2626
I1
sS'Alejandro Jaimes'
p2627
I2
sS'Keita Del Valle Wangari'
p2628
I1
sS'Maria del Rocio Gomez Crisostomo'
p2629
I1
sS'Debapriyo Majumdar'
p2630
I1
sS'Mark Sifer'
p2631
I1
sS'Barbara Poblete'
p2632
I3
sS'Nemanja Djuric'
p2633
I2
sS'Eugen Popovici'
p2634
I1
sS'Craig Harman'
p2635
I1
sS'Leonardo C. da Rocha'
p2636
I2
sS'Li-Ming Wang'
p2637
I1
sS'Michiko Yasukawa'
p2638
I1
sS'Elad Kravi'
p2639
I2
sS'Pengfei Li'
p2640
I1
sS'Wenyuan Dai'
p2641
I1
sS'Ashwin Ram'
p2642
I1
sS'Yueheng Sun'
p2643
I1
sS'Mikio Yamamoto'
p2644
I1
sS'Bowei Chen'
p2645
I1
sS'Xinyuan Luo'
p2646
I2
sS'Hugues Bouchard'
p2647
I2
sS'Henning M\xc3\xbcller'
p2648
I2
sS'Ivan Giangreco'
p2649
I1
sS'David Wai-Lok Cheung'
p2650
I1
sS'Yelena Mejova'
p2651
I1
sS'Jangwon Seo'
p2652
I5
sS'Giuliano Mega'
p2653
I1
sS'Stephen E. Robertson'
p2654
I3
sS'Wray L. Buntine'
p2655
I3
sS'Roger Jie Luo'
p2656
I1
sS'Pavel Dmitriev'
p2657
I1
sS'Hun-Young Jung'
p2658
I1
sS'Yumao Lu'
p2659
I2
sS'A\xc3\xa9cio S. R. Santos'
p2660
I1
sS'Kai Yu 0001'
p2661
I3
sS'Paloma de Juan'
p2662
I1
sS'Chin-Hui Chen'
p2663
I1
sS'Floor Sietsma'
p2664
I1
sS'Konstantinos Athanasakos'
p2665
I1
sS'Ruiqiang Zhang'
p2666
I1
sS'Veli Bicer'
p2667
I1
sS'Chunfa Yuan'
p2668
I1
sS'Michael Gertz'
p2669
I3
sS'Nihal Fathima'
p2670
I1
sS'Nathan G. Freier'
p2671
I1
sS'Xiuzhen Zhang'
p2672
I1
sS'Val\xc3\xa9ria Ces\xc3\xa1rio Times'
p2673
I1
sS'David Graus'
p2674
I1
sS'Kathy Ryall'
p2675
I1
sS'Hamed Zamani'
p2676
I7
sS'Hao Yan'
p2677
I1
sS'Ivan Habernal'
p2678
I1
sS'Cheng Cao'
p2679
I1
sS'Hyun Joon Jung'
p2680
I1
sS'Rebecca J. Stones'
p2681
I1
sS'Giuseppe Ottaviano'
p2682
I2
sS'Koby Crammer'
p2683
I1
sS'Mi Zhang 0001'
p2684
I1
sS'Himanshu Barthwal'
p2685
I1
sS'Wei-Ying Ma'
p2686
I4
sS'Xiaohui Yu'
p2687
I3
sS'Zheng Cao'
p2688
I1
sS'Keng Hoon Gan'
p2689
I1
sS'Jing Zhang 0015'
p2690
I1
sS'Trong-Ton Pham'
p2691
I1
sS'Tobias Siebenlist'
p2692
I1
sS'Dandan Song'
p2693
I2
sS'Umeshwar Dayal'
p2694
I1
sS'Edward Y. Chang'
p2695
I1
sS'Virg\xc3\xadlio A. F. Almeida'
p2696
I1
sS'Jaime G. Carbonell'
p2697
I4
sS'Valerio Capozio'
p2698
I1
sS'Roi Blanco'
p2699
I16
sS'Giulio Jacucci'
p2700
I3
sS'Chiara Renso'
p2701
I2
sS'Srihari Reddy'
p2702
I1
sS'Rafael E. Banchs'
p2703
I2
sS'Yuzhen Huang'
p2704
I1
sS'Stefan Rueger'
p2705
I1
sS'Carlo Gaibisso'
p2706
I1
sS'William Speier'
p2707
I1
sS'Joanne Mao'
p2708
I1
sS'Son Kim Pham'
p2709
I1
sS'Chunlan Huang'
p2710
I1
sS'Wentao Wu 0001'
p2711
I1
sS'Chris Quirk'
p2712
I1
sS'Shuai Zhang'
p2713
I1
sS'Pavel Zezula'
p2714
I2
sS'Philipp Kemkes'
p2715
I1
sS'Xiang Zhao'
p2716
I1
sS'Jinxi Xu'
p2717
I1
sS'David Lovell'
p2718
I1
sS'Manos Tsagkias'
p2719
I8
sS'Paul Heymann'
p2720
I1
sS'Liangjie Hong'
p2721
I3
sS'Matthew Mitsui'
p2722
I2
sS'Mark Stevenson'
p2723
I1
sS'Rifat Ozcan'
p2724
I5
sS'Ning An'
p2725
I1
sS'Long Xia'
p2726
I3
sS'Mark Baillie'
p2727
I4
sS'Evangelos Kanoulas'
p2728
I15
sS'Martin Tippmann'
p2729
I1
sS'Fergus Toolan'
p2730
I1
sS'Oge Marques'
p2731
I1
sS'Aris Anagnostopoulos'
p2732
I1
sS'Aldo Lipani'
p2733
I3
sS'Zied Bouraoui'
p2734
I1
sS'Vinay Setty'
p2735
I1
sS'Jinfeng Li'
p2736
I1
sS'Salvatore Trani'
p2737
I3
sS'Alexandros Nanopoulos'
p2738
I1
sS'Grant Ingersoll'
p2739
I1
sS'Chao Zhou'
p2740
I1
sS'Yukun Zheng'
p2741
I1
sS'Gert R. G. Lanckriet'
p2742
I2
sS'Venu Vasudevan'
p2743
I1
sS'Sergey Chernov 0001'
p2744
I1
sS'Gan Keng Hoon'
p2745
I1
sS'John Yen'
p2746
I1
sS'Alexander Haubold'
p2747
I1
sS'Yutaka Sasaki'
p2748
I1
sS'Edward Lank'
p2749
I1
sS'Xiaojie Yuan'
p2750
I3
sS'Miles Efron'
p2751
I13
sS'Pavel Serdyukov'
p2752
I24
sS'Luca Ghilardi'
p2753
I1
sS'Wanyu Chen'
p2754
I1
sS'Jian Liang'
p2755
I1
sS'Samuel Kaski'
p2756
I2
sS'Andruid Kerne'
p2757
I1
sS'Lynne Baillie'
p2758
I1
sS'Qing Li'
p2759
I1
sS'Stefan Jung'
p2760
I1
sS'Min Zhang'
p2761
I5
sS'Alok Kothari'
p2762
I1
sS'Qiuchi Li'
p2763
I1
sS'Yang Xu'
p2764
I2
sS'Sameh Elnikety'
p2765
I3
sS'Leonid Novak'
p2766
I1
sS'Karim Filali'
p2767
I1
sS'Karam Abdulahhad'
p2768
I1
sS'Jeffrey McGee'
p2769
I1
sS'Jiachen Chen'
p2770
I1
sS'Ole Osterhagen'
p2771
I1
sS'David Vallet'
p2772
I7
sS'Thomas R. Lynam'
p2773
I2
sS'Adam Bermingham'
p2774
I1
sS'Azad Abad'
p2775
I1
sS'Jian-Lin Jin'
p2776
I1
sS'Martin Halvey'
p2777
I4
sS'Xin Wu'
p2778
I1
sS'Thanh Tien Vu'
p2779
I1
sS'Eytan Adar'
p2780
I2
sS'Jian Cheng'
p2781
I4
sS'Zhiguo Gong'
p2782
I1
sS'Kailong Chen'
p2783
I3
sS'Mauricio Mar\xc3\xadn'
p2784
I1
sS'Wai Lam'
p2785
I6
sS'Vassilios Stathopoulos 0002'
p2786
I1
sS'Jaspreet Singh'
p2787
I1
sS'Muyun Yang'
p2788
I2
sS'Milos Radovanovic'
p2789
I1
sS'Ganesh J'
p2790
I1
sS'Sajad Sotudeh Gharebagh'
p2791
I1
sS'Stefan Riezler'
p2792
I3
sS'Chris Staff'
p2793
I1
sS'Fabiano Muniz Bel\xc3\xa9m'
p2794
I1
sS'Maryam Karimzadehgan'
p2795
I1
sS'Daling Wang'
p2796
I1
sS'Peter G. Anick'
p2797
I1
sS'Fei Wang 0001'
p2798
I3
sS'Nam Khanh Tran'
p2799
I1
sS'Wei Lu'
p2800
I3
sS'Dijun Luo'
p2801
I1
sS'Arunav Mishra'
p2802
I2
sS'Zhi Tang'
p2803
I2
sS'Ricardo J. Dias'
p2804
I1
sS'Harry Halpin'
p2805
I1
sS'Mohammad Akbari'
p2806
I2
sS"Se\xc3\xa1n O'Riain"
p2807
I1
sS'Kevyn Collins-Thompson'
p2808
I8
sS'Deepak Pai'
p2809
I1
sS'Brian Tomasik'
p2810
I1
sS'Javier Rodr\xc3\xadguez-Vidal'
p2811
I1
sS'Scott Rixner'
p2812
I1
sS'Yiu-Kai Ng'
p2813
I2
sS'David Leonard'
p2814
I1
sS'Anton Firsov'
p2815
I2
sS'Inbeom Hwang'
p2816
I1
sS'Takehito Utsuro'
p2817
I1
sS'Pierpaolo Basile'
p2818
I1
sS'Jin Young Kim 0005'
p2819
I3
sS'Jan O. Pedersen'
p2820
I1
sS'Aur\xc3\xa9lien Bossard'
p2821
I1
sS'Ingo Frommholz'
p2822
I1
sS'Diego Arroyuelo'
p2823
I2
sS'Lasitha Sandamali Dharmasena'
p2824
I1
sS'Piyush Bansal'
p2825
I1
sS'Zihao Wang'
p2826
I1
sS'Ying Li'
p2827
I2
sS'Ruihao Zhao'
p2828
I1
sS'Hongbo Deng'
p2829
I5
sS'Salman Mohammed'
p2830
I1
sS'Hongyuan Zha'
p2831
I9
sS'Riku Togashi'
p2832
I1
sS'St\xc3\xa9phane Ferrari'
p2833
I1
sS'Zhongfei Zhang'
p2834
I2
sS'Marie-Francine Moens'
p2835
I3
sS'Mauricio Quezada'
p2836
I2
sS'Tee Kiah Chia'
p2837
I1
sS'Kenneth Wai-Ting Leung'
p2838
I2
sS'Min-Chul Yang'
p2839
I1
sS'Hema Raghavan'
p2840
I3
sS'Shihao Ji'
p2841
I2
sS'Yimeng Li'
p2842
I1
sS'Enver Kayaaslan'
p2843
I2
sS'Adwait Ratnaparkhi'
p2844
I1
sS'Allan Hanbury'
p2845
I5
sS'Roberto Konow'
p2846
I1
sS'Hadas Raviv'
p2847
I4
sS'Vetle I. Torvik'
p2848
I1
sS'Xiang Wang'
p2849
I2
sS'Arjen P. de Vries'
p2850
I17
sS'Aixin Sun'
p2851
I18
sS'Yasue Kishino'
p2852
I2
sS'Jie Hong'
p2853
I1
sS'Edie Rasmussen'
p2854
I2
sS'Maria Sukhareva'
p2855
I1
sS'Bing Bai'
p2856
I1
sS'Richard Zanibbi'
p2857
I4
sS'Marco Pagani'
p2858
I1
sS'Yuan Zhang'
p2859
I1
sS'Ahmed Hassan Awadallah'
p2860
I10
sS'Leonid Boytsov'
p2861
I1
sS'Shi-Qiang Yang'
p2862
I1
sS'Zhuo Li 0004'
p2863
I1
sS'Lifan Guo'
p2864
I1
sS'Miao Zhang'
p2865
I1
sS'Yao Liu'
p2866
I1
sS'Aditya P. Mathur'
p2867
I2
sS'Van Dang'
p2868
I3
sS'Simeon Simoff'
p2869
I1
sS'Christophe Van Gysel'
p2870
I1
sS'Nazan Khan'
p2871
I1
sS'Prasenjit Majumder'
p2872
I1
sS'Athanasia Koumpouri'
p2873
I1
sS'Kent Norsworthy'
p2874
I1
sS'Frank E. Pollick'
p2875
I2
sS'Sergey Markov'
p2876
I1
sS'Yingying Zhao'
p2877
I1
sS'Kyung-Il Lee'
p2878
I1
sS'Luca Pretto'
p2879
I1
sS'Bernadine Cocks'
p2880
I1
sS'Martin Potthast'
p2881
I8
sS'Mayumi Toshima'
p2882
I1
sS'Rodrygo L. T. Santos'
p2883
I8
sS'Huan Liu'
p2884
I1
sS'Chun Chen'
p2885
I7
sS'Hosein Azarbonyad'
p2886
I2
sS'Jia-Dong Zhang'
p2887
I1
sS'Martynas Buivys'
p2888
I1
sS'Surendra Sedhai'
p2889
I2
sS'Yida Wang'
p2890
I1
sS'Maximilian Eibl'
p2891
I2
sS'Kimmo Kettunen'
p2892
I1
sS'Simone Filice'
p2893
I1
sS'Son Ngoc Tran'
p2894
I1
sS'Dale Webster'
p2895
I1
sS'Hongning Wang'
p2896
I8
sS'Yuval Merhav'
p2897
I2
sS'Anna Chen'
p2898
I1
sS'Bing Liu 0001'
p2899
I2
sS'Youngchul Cha'
p2900
I2
sS'Yi Zhang 0005'
p2901
I3
sS'Shuguang Wang'
p2902
I2
sS'Yi Zhang 0001'
p2903
I6
sS'HweeHwa Pang'
p2904
I2
sS'Yi Zhang 0002'
p2905
I1
sS'Xiaoming Li'
p2906
I3
sS'Ashwin Satyanarayana'
p2907
I1
sS'Wei Wang 0009'
p2908
I2
sS'Eija Airio'
p2909
I1
sS'Peter-Arno Coppen'
p2910
I1
sS'Nick Craswell'
p2911
I16
sS'Vincent Leroy'
p2912
I1
sS'Srikanta J. Bedathur'
p2913
I3
sS'Elia Porciani'
p2914
I1
sS'Ian Ruthven'
p2915
I3
sS'Sergey I. Nikolenko'
p2916
I1
sS'Dah Ming Chiu'
p2917
I1
sS'Malik Muhammad Saad Missen'
p2918
I1
sS'Jian Lin'
p2919
I1
sS'Kriste Krstovski'
p2920
I2
sS'Kai Li 0001'
p2921
I1
sS'Jing Liu'
p2922
I1
sS'Chikashi Nobata'
p2923
I1
sS'Tadashi Nomoto'
p2924
I1
sS'Joshua Glatt'
p2925
I1
sS'Fabio Crestani'
p2926
I17
sS'Jeffrey Scott Vitter'
p2927
I1
sS'Yi Zhang'
p2928
I5
sS'Inbal Ronen'
p2929
I3
sS'Helge Holzmann'
p2930
I1
sS'Junjie Yao'
p2931
I1
sS'Lance M. Kaplan'
p2932
I1
sS'Winston H. Hsu'
p2933
I5
sS'Vipin Kumar'
p2934
I1
sS'Tom\xc3\xa1s Tunys'
p2935
I1
sS'Erel Uziel'
p2936
I2
sS'Zhao Zeng'
p2937
I1
sS'Sandeep Avula'
p2938
I1
sS'Arjan van Hessen'
p2939
I1
sS'Oleg Rokhlenko'
p2940
I1
sS'Ben Carterette'
p2941
I23
sS'Seong-Bae Park'
p2942
I3
sS'Hiroko Bretz'
p2943
I1
sS'Philipp Schaer'
p2944
I1
sS'Anatole Gershman'
p2945
I1
sS'Yanping Nie'
p2946
I1
sS'Morgan Ulinski'
p2947
I1
sS'Jianmin Wang 0001'
p2948
I3
sS'Lorenzo Torresani'
p2949
I1
sS'Jun Yan'
p2950
I8
sS'Zhuowei Bao'
p2951
I1
sS'Swapnil Hingmire'
p2952
I2
sS'Kevin Chen-Chuan Chang'
p2953
I1
sS'Michal Shmueli-Scheuer'
p2954
I2
sS'Ming-Wei Chang'
p2955
I3
sS'Yuexian Hou'
p2956
I3
sS'Iv\xc3\xa1n Cantador'
p2957
I2
sS'Monica Rogati'
p2958
I2
sS'Shih-Wen Huang'
p2959
I1
sS'Meng Wang'
p2960
I1
sS'Dongqi Liu'
p2961
I1
sS'Yang Shi'
p2962
I1
sS'Nazli Goharian'
p2963
I5
sS'Fabr\xc3\xadcio F. de Faria'
p2964
I1
sS'Deb Roy'
p2965
I1
sS'Liangda Li'
p2966
I1
sS'Qingyao Ai'
p2967
I3
sS'Jiannan Wang'
p2968
I2
sS'Sarah K. Tyler'
p2969
I1
sS'Yeonchan Ahn'
p2970
I1
sS'Qiong Zhang'
p2971
I1
sS'Richard Schaller'
p2972
I1
sS'S\xc3\xa9amus Lawless'
p2973
I1
sS'Ivan Lee'
p2974
I1
sS'Yang Yang 0002'
p2975
I3
sS'Xiaojun Chen 0004'
p2976
I1
sS'Allison P. Heath'
p2977
I1
sS'Jason Cramer'
p2978
I1
sS'Tuan-Anh Nguyen Pham'
p2979
I1
sS'Michael J. Kurtz'
p2980
I1
sS'Asif Makhani'
p2981
I1
sS'Junfeng Pan'
p2982
I1
sS'Ganesh Venkataraman'
p2983
I3
sS'Bonnie L. Webber'
p2984
I1
sS'Jianhan Zhu'
p2985
I4
sS'Marco Brambilla 0001'
p2986
I1
sS'Hanwang Zhang'
p2987
I3
sS'Andrew McCallum'
p2988
I1
sS'Sandeep Zechariah George'
p2989
I1
sS'Wei-Shing Liao'
p2990
I1
sS'Luca Chiarandini'
p2991
I1
sS'Li Wang'
p2992
I1
sS'Shuhei Yamamoto'
p2993
I1
sS'Flavio Chierichetti'
p2994
I1
sS'Tao Zhu'
p2995
I1
sS'Benjamin Sznajder'
p2996
I1
sS'Weiren Yu'
p2997
I4
sS'Kathleen F. McCoy'
p2998
I1
sS'Ofri Rom'
p2999
I1
sS'Shuang Qiu'
p3000
I2
sS'Jiajin Huang'
p3001
I1
sS'Armin B. Cremers'
p3002
I1
sS'Silviu Cucerzan'
p3003
I4
sS'Mohammad Alrifai'
p3004
I1
sS'Nicholas Gildea'
p3005
I1
sS'Ce Zhang'
p3006
I1
sS'Mauricio Oyarz\xc3\xban'
p3007
I2
sS'Jia Zhu'
p3008
I1
sS'Rahul Shah'
p3009
I1
sS'Juliana Freire'
p3010
I1
sS'Benjamin Roth'
p3011
I1
sS'Ran He'
p3012
I1
sS'Kuo-Wei Chang'
p3013
I1
sS'Anastasia Giachanou'
p3014
I2
sS'Jillian Griffiths'
p3015
I1
sS'Bong-Jun Yi'
p3016
I1
sS'Haomin Yu'
p3017
I1
sS'Jeffrey Dalton 0001'
p3018
I2
sS'Ian Bugeja'
p3019
I1
sS'Yueguo Chen'
p3020
I1
sS'Isac S. Ribeiro'
p3021
I1
sS'Jarana Manotumruksa'
p3022
I1
sS'Jos\xc3\xa9 San Pedro'
p3023
I2
sS'Gregory Druck'
p3024
I1
sS'Peter M. G. Apers'
p3025
I1
sS'Zhaohui Chen'
p3026
I1
sS'Paul Raccuglia'
p3027
I1
sS'Jeffrey Pomerantz'
p3028
I1
sS'Makoto Okabe'
p3029
I1
sS'Ming Yue'
p3030
I1
sS'Wim Vanderbauwhede'
p3031
I2
sS'Zeyang Liu'
p3032
I2
sS'Jingdong Wang'
p3033
I3
sS'Aijun An'
p3034
I4
sS'Aleksandar Stupar'
p3035
I1
sS'Cameron Summers'
p3036
I1
sS'Jinsong Lu'
p3037
I2
sS'Shojiro Nishio'
p3038
I1
sS'Shuzi Niu'
p3039
I3
sS'Alexandra Poulovassilis'
p3040
I1
sS'Luanne Freund'
p3041
I3
sS'Katja Filippova'
p3042
I1
sS'Corinna Breitinger'
p3043
I1
sS'Jie Tang'
p3044
I3
sS'Shonali Krishnaswamy'
p3045
I1
sS'Diego Ceccarelli'
p3046
I1
sS'Bo Yang 0008'
p3047
I1
sS'Yansheng Lu'
p3048
I1
sS'Yukun Li'
p3049
I1
sS'St\xc3\xa9phane Marchand-Maillet'
p3050
I1
sS'Frans van der Sluis'
p3051
I1
sS'Alexei P. Stolboushkin'
p3052
I1
sS'Sung Eun Park'
p3053
I1
sS'Hao Li'
p3054
I1
sS'Chad Davis'
p3055
I1
sS'Christin Seifert'
p3056
I1
sS'Anita Crescenzi'
p3057
I5
sS'Rrobi Szk'
p3058
I1
sS'Key-Sun Choi'
p3059
I1
sS'Girish K. Palshikar'
p3060
I1
sS'Piyush Arora'
p3061
I1
sS'Jin Yao Chin'
p3062
I1
sS'Akash Anil'
p3063
I1
sS'Vidhya Govindaraju'
p3064
I1
sS"Shin'ichi Satoh"
p3065
I1
sS'Sa\xc3\xbal Vargas'
p3066
I1
sS'Mohamed Reda Bouadjenek'
p3067
I4
sS'Xiaofeng Meng'
p3068
I2
sS'Seyda Ertekin'
p3069
I1
sS'Peter Wilkins'
p3070
I2
sS'Korris Fu-Lai Chung'
p3071
I2
sS'Andrew Feng'
p3072
I1
sS'Sebastian Dungs'
p3073
I1
sS'Jukka V\xc3\xa4lim\xc3\xa4ki'
p3074
I1
sS'Saeid Balaneshinkordan'
p3075
I1
sS'Elinor Brondwine'
p3076
I1
sS'Xinhui Tu'
p3077
I1
sS'Juan F. Huete'
p3078
I2
sS'Sutanu Chakraborti'
p3079
I2
sS'Laurence Tianruo Yang'
p3080
I1
sS'Xiushan Nie'
p3081
I1
sS'Huanbo Luan'
p3082
I2
sS'Marco Bonzanini'
p3083
I3
sS'Kira Griffitt'
p3084
I1
sS'David Carmel'
p3085
I15
sS'Kei Kobayashi'
p3086
I1
sS'Meishan Hu'
p3087
I2
sS'Jan Frederik Forst'
p3088
I1
sS'Jiepu Jiang'
p3089
I5
sS'Giambattista Amati'
p3090
I1
sS'Tetsuya Sakai'
p3091
I20
sS'Ling Feng'
p3092
I2
sS'Madian Khabsa'
p3093
I2
sS'Chunjie Zhou'
p3094
I1
sS'W. Nick Street'
p3095
I1
sS'Aghiles Salah'
p3096
I1
sS'Marko Grobelnik'
p3097
I1
sS'Nicholas Gibbins'
p3098
I1
sS'Belle L. Tseng'
p3099
I1
sS'Robert Mao'
p3100
I1
sS'Shirish Tatikonda'
p3101
I2
sS'Rashmi Sankepally'
p3102
I1
sS'Krishna Yeswanth Kamath'
p3103
I1
sS'Maarten van der Heijden'
p3104
I1
sS'Ao Feng'
p3105
I1
sS'Valentina Fedorova'
p3106
I1
sS'Hugh E. Williams'
p3107
I2
sS'Rani Qumsiyeh'
p3108
I1
sS'Konstantinos Theocharidis'
p3109
I1
sS'Jiwoon Ha'
p3110
I1
sS'Ruihua Song'
p3111
I5
sS'Tomohiro Manabe'
p3112
I1
sS'Xiaofeng Zhou'
p3113
I2
sS'Sahin Albayrak'
p3114
I1
sS'Peng Cui'
p3115
I2
sS'Henry Allen Feild'
p3116
I4
sS'Melanie J. I. M\xc3\xbcller'
p3117
I1
sS'Xavier Amatriain'
p3118
I2
sS'Harksoo Kim'
p3119
I1
sS'Ivana Podnar Zarko'
p3120
I1
sS'Andrea Ballatore'
p3121
I1
sS'Kuiyu Chang'
p3122
I3
sS'Georg Buscher'
p3123
I8
sS'Emanuele Panzeri'
p3124
I1
sS'Ke Zhai 0001'
p3125
I1
sS'Jonathon S. Hare'
p3126
I2
sS'Chu Guan'
p3127
I1
sS'Duo Ding'
p3128
I1
sS'Enhong Chen'
p3129
I4
sS'Giulio Ermanno Pibiri'
p3130
I1
sS'Pao-Yu Chien'
p3131
I1
sS'Ola Taylor'
p3132
I1
sS'Adam Fourney'
p3133
I1
sS'Clement T. Yu'
p3134
I1
sS'Ahmed Hassan'
p3135
I1
sS'Yu-Ting Wang'
p3136
I1
sS'Minsuk Kahng'
p3137
I2
sS'Soumen Chakrabarti'
p3138
I1
sS'Eric W. Brown 0001'
p3139
I1
sS'Chiao-Fang Hsu'
p3140
I1
sS'Karthik Raman 0002'
p3141
I1
sS'Liting Zhou'
p3142
I1
sS'Yanwei Guo'
p3143
I1
sS'Bo Geng'
p3144
I1
sS'Mark James Carman'
p3145
I4
sS'John Foley'
p3146
I1
sS'Ricardo Ribeiro 0001'
p3147
I1
sS'Quan Z. Sheng'
p3148
I4
sS'Changshui Zhang'
p3149
I1
sS'Weijia Xu'
p3150
I1
sS'Guy Feigenblat'
p3151
I1
sS'Seyyed Hadi Hashemi'
p3152
I1
sS'Chi Wang 0001'
p3153
I3
sS'Beno\xc3\xaet Dumoulin'
p3154
I2
sS'Adam Jatowt'
p3155
I3
sS'Fernando O. Gallego'
p3156
I1
sS'Raymond Yiu-Keung Lau'
p3157
I1
sS'Gao Cong'
p3158
I7
sS'Sangkyum Kim'
p3159
I1
sS'Mehdi Garakani'
p3160
I1
sS'Shao-Hang Kao'
p3161
I1
sS'Mor Sondak'
p3162
I1
sS'Paolo Boldi'
p3163
I2
sS'Samuel Ieong'
p3164
I3
sS'Tao Mei'
p3165
I9
sS'Shila Ofek-Koifman'
p3166
I1
sS'Yue Zhao'
p3167
I2
sS'Maria Maistro'
p3168
I2
sS'Imed Zitouni'
p3169
I5
sS'Sven Meyer zu Eissen'
p3170
I1
sS'Zhongrui Ma'
p3171
I1
sS'Alexandre Nanchen'
p3172
I1
sS'Liyan Zhang'
p3173
I1
sS'Fabr\xc3\xadcio Benevenuto'
p3174
I2
sS'Dipasree Pal'
p3175
I2
sS'Paul McNamee'
p3176
I2
sS'Bram Arends'
p3177
I1
sS'Raphael R. Campos'
p3178
I1
sS'Roelof van Zwol'
p3179
I2
sS'Yanen Li'
p3180
I3
sS'George Paliouras'
p3181
I1
sS'Frank Nack'
p3182
I2
sS'Hui Fang 0001'
p3183
I9
sS'Yuanzhu Peter Chen'
p3184
I1
sS'Dilson A. Guimar\xc3\xa3es'
p3185
I1
sS'Ross Kravitz'
p3186
I1
sS'Efthimis N. Efthimiadis'
p3187
I2
sS'Houfeng Wang'
p3188
I1
sS'David E. Losada'
p3189
I5
sS'Mridul Muralidharan'
p3190
I1
sS'Lei Wang'
p3191
I2
sS'Hakan Ferhatosmanoglu'
p3192
I1
sS'Youngho Kim'
p3193
I3
sS'Junyan Chen'
p3194
I1
sS'Dongxiang Zhang'
p3195
I2
sS'Ivan Berlocher'
p3196
I1
sS'Vanessa L\xc3\xb3pez'
p3197
I1
sS'Besnik Fetahu'
p3198
I1
sS'David Bodoff'
p3199
I1
sS'Zhuoye Ding'
p3200
I1
sS'Piek Vossen'
p3201
I1
sS'Jaewon Kim'
p3202
I1
sS'Tieniu Tan'
p3203
I1
sS'Shou-De Lin'
p3204
I2
sS'Anuj Goyal'
p3205
I1
sS'Jian Wang'
p3206
I4
sS'Noor Ifada'
p3207
I1
sS'Xing Yi'
p3208
I2
sS'Rabia Nuray-Turan'
p3209
I1
sS'Tao Yang 0009'
p3210
I4
sS'Sophia Ananiadou'
p3211
I1
sS'Chenliang Li'
p3212
I5
sS'Tianlei Hu'
p3213
I1
sS'Helen Ashman'
p3214
I1
sS'Ralf Krestel'
p3215
I1
sS'Enrique Robledo-Arnuncio'
p3216
I1
sS'Guodong Zhou'
p3217
I1
sS'Thomas Demeester'
p3218
I1
sS'Lung-Hao Lee'
p3219
I1
sS'Zi Yang'
p3220
I3
sS'Limsoon Wong'
p3221
I1
sS'Hector Garcia-Molina'
p3222
I1
sS'Wei Wang'
p3223
I2
sS'Wenyuan Li'
p3224
I1
sS'Shay Hummel'
p3225
I3
sS'Michael Lawley'
p3226
I1
sS'David M. Frohlich'
p3227
I1
sS'Fran\xc3\xa7ois Rousseau 0001'
p3228
I1
sS'Fanghong Jian'
p3229
I1
sS'Yuichi Yoshida'
p3230
I1
sS'Guillaume Cleuziou'
p3231
I1
sS'Arif Usta'
p3232
I1
sS'Pinar Donmez'
p3233
I2
sS'Chao Wang'
p3234
I3
sS'Hsin-Hsi Chen'
p3235
I6
sS'Hui Xiong'
p3236
I3
sS'Paul-Alexandru Chirita'
p3237
I2
sS'Zhiyuan Liu'
p3238
I1
sS'Hua He'
p3239
I1
sS'Honglei Zhuang'
p3240
I1
sS'Jonathan L. Elsas'
p3241
I2
sS'Chunyan Miao'
p3242
I1
sS'Elmar Hau\xc3\x9fmann'
p3243
I1
sS'Aren Jansen'
p3244
I1
sS'Junfeng Wang'
p3245
I1
sS'Guan-Long Wu'
p3246
I1
sS'Fuchun Peng'
p3247
I4
sS'Dmitri Roussinov'
p3248
I2
sS'Chuan He'
p3249
I1
sS'Abhay Harpale'
p3250
I3
sS'Chunqiu Zeng'
p3251
I1
sS'Xiaoqiang Luo'
p3252
I1
sS'Yadong Zhu'
p3253
I1
sS'Theodoros Lappas'
p3254
I2
sS'Christian Zimmer'
p3255
I1
sS'Razieh Rahimi'
p3256
I1
sS'Alex Deng'
p3257
I1
sS'He Bai'
p3258
I1
sS'Sascha Narr'
p3259
I1
sS'Depin Chen'
p3260
I1
sS'Lisa Singh'
p3261
I1
sS'Shenghua Bao'
p3262
I4
sS'Jasmijn van Gorp'
p3263
I2
sS'Ethem F. Can'
p3264
I2
sS'Hugo Zaragoza'
p3265
I6
sS'Furu Wei'
p3266
I3
sS'Lotte Belice Baltussen'
p3267
I1
sS'Antti Oulasvirta'
p3268
I1
sS'Derek Hao Hu'
p3269
I1
sS'Joanna Asia Biega'
p3270
I2
sS'Apurva Pathak'
p3271
I1
sS'Dimitrios Kotzias'
p3272
I1
sS'Adriana Budura'
p3273
I1
sS'Jie Wu'
p3274
I1
sS'P. Punitha'
p3275
I1
sS'Wen Li'
p3276
I1
sS'Bin Xu 0005'
p3277
I1
sS'Nish Parikh'
p3278
I1
sS'Cheng-Zen Yang'
p3279
I1
sS'Paul N. Bennett'
p3280
I15
sS'Qi Lu'
p3281
I1
sS'Long Chen'
p3282
I2
sS'Ziming Li'
p3283
I1
sS'Wei Emma Zhang'
p3284
I1
sS'Prashanth Vijayaraghavan'
p3285
I1
sS'Filipe de S\xc3\xa1 Mesquita'
p3286
I1
sS'Hila Becker'
p3287
I1
sS'Min Wang'
p3288
I1
sS'Simon Gottschalk'
p3289
I1
sS'Wessel Kraaij'
p3290
I6
sS'Hui Fang'
p3291
I1
sS'Chia-Rui Lin'
p3292
I1
sS'Antonio Fari\xc3\xb1a'
p3293
I1
sS'M. Rami Ghorab'
p3294
I1
sS'Romain Deveaud'
p3295
I1
sS'Benjamin Kille'
p3296
I1
sS'Luming Zhang'
p3297
I2
sS'Lior Meister'
p3298
I1
sS'Xing Xie 0001'
p3299
I1
sS'Lei Xu'
p3300
I1
sS'Bharath Sriram'
p3301
I1
sS'Tamara Polajnar'
p3302
I2
sS'Juan Cao'
p3303
I1
sS'Venkata Rama Kiran Garimella'
p3304
I1
sS'Jasmine Novak'
p3305
I1
sS'Maristella Agosti'
p3306
I1
sS'Daniel Mahler'
p3307
I1
sS'Min-Yen Kan'
p3308
I5
sS'Wei Chen 0025'
p3309
I4
sS'Shilpa Shukla'
p3310
I1
sS'Salim Roukos'
p3311
I1
sS'Dominik Schnitzer'
p3312
I2
sS'Adith Swaminathan'
p3313
I1
sS'Steven Shelford'
p3314
I1
sS'Marcus Fontoura'
p3315
I3
sS'Ciaran Owens'
p3316
I1
sS'Hinrich Sch\xc3\xbctze'
p3317
I3
sS'Ali Mamdouh Elkahky'
p3318
I1
sS'Changhu Wang'
p3319
I1
sS'Gerhard Backfried'
p3320
I1
sS'Mikko Kurimo'
p3321
I1
sS'Junhao Wen'
p3322
I1
sS'Yue Wang'
p3323
I1
sS'Anurag Agarwal'
p3324
I2
sS'Renqin Cai'
p3325
I1
sS'Aki Reijonen'
p3326
I1
sS'Zheng Qin'
p3327
I2
sS'Jian-Ming Xu'
p3328
I2
sS'Seungwon Yang'
p3329
I1
sS'Surender Reddy Yerva'
p3330
I1
sS'Douglas Dowie'
p3331
I2
sS'Cassidy R. Sugimoto'
p3332
I1
sS'Peng Huang'
p3333
I1
sS'Andrew W. Fitzgibbon'
p3334
I1
sS'Norman Meuschke'
p3335
I2
sS'Tianlong Li'
p3336
I1
sS'Deepak Agarwal'
p3337
I1
sS'Feza Baskaya'
p3338
I1
sS'Carlos Soares'
p3339
I1
sS'Ugo Scaiella'
p3340
I1
sS'Guoliang Li 0001'
p3341
I3
sS'Dave Fuhry'
p3342
I1
sS'David B. Skillicorn'
p3343
I1
sS'Yasser Ganjisaffar'
p3344
I1
sS'Makoto P. Kato'
p3345
I6
sS'Amir Fayazi'
p3346
I1
sS'Martin Theobald'
p3347
I1
sS'Xiao Bai 0002'
p3348
I4
sS'Xiaoyu Sunny Guo'
p3349
I1
sS'Daisuke Takuma'
p3350
I1
sS'Dimitrios Gunopulos'
p3351
I1
sS'Axel-Cyrille Ngonga Ngomo'
p3352
I1
sS'Jianliang Gao'
p3353
I1
sS'Chris H. Q. Ding'
p3354
I7
sS'Michal Batko'
p3355
I2
sS'Philip J. McParlane'
p3356
I1
sS'Birger Larsen'
p3357
I4
sS'Maarten de Rijke'
p3358
I59
sS'Ying Liu 0007'
p3359
I1
sS'Shuicheng Yan'
p3360
I5
sS'Guiguang Ding'
p3361
I2
sS'Timothy Baldwin'
p3362
I1
sS'Daniel Weinland'
p3363
I1
sS'Mao Ye'
p3364
I3
sS'Michiel M. A. Spap\xc3\xa9'
p3365
I1
sS'Wolfgang G. Stock'
p3366
I1
sS'Gleb Gusev'
p3367
I3
sS'Saket S. R. Mengle'
p3368
I2
sS'Hongtao Xu'
p3369
I1
sS'De-Sheng Wang'
p3370
I1
sS'Yunjun Gao'
p3371
I4
sS'Sang-Wook Kim'
p3372
I3
sS'Gordon Sun'
p3373
I2
sS'Jiwei Li'
p3374
I1
sS'Kelly Y. Itakura'
p3375
I2
sS'Liang He'
p3376
I2
sS'Qinghua Zheng'
p3377
I1
sS'Houqiang Li'
p3378
I3
sS'Lior Rokach'
p3379
I1
sS'Lin Dai'
p3380
I1
sS'Luchen Tan'
p3381
I5
sS'Peter C. K. Yeung'
p3382
I3
sS'Mimpei Morishita'
p3383
I1
sS'Alex Acero'
p3384
I2
sS'Trevor Strohman'
p3385
I2
sS'Yinan Zhang'
p3386
I2
sS'Mihajlo Grbovic'
p3387
I2
sS'Hao Ma'
p3388
I7
sS'Oliver Jojic'
p3389
I1
sS'Yong Yu'
p3390
I16
sS'Ying Sha'
p3391
I1
sS'Inho Kang'
p3392
I1
sS'Junming Liu'
p3393
I1
sS'April Rasala Lehman'
p3394
I1
sS'Marcel J. T. Reinders'
p3395
I2
sS'Jimmy Xiangji Huang'
p3396
I15
sS'Ihab F. Ilyas'
p3397
I1
sS'Yisong Yue'
p3398
I3
sS'Guangyou Zhou'
p3399
I1
sS'Emre Velipasaoglu'
p3400
I3
sS'Denis Parra'
p3401
I1
sS'Jianmin Zhang'
p3402
I1
sS'Jan Gra\xc3\x9fegger'
p3403
I1
sS'Jeff Dalton 0001'
p3404
I1
sS'Yao Wu'
p3405
I1
sS'Qi Guo'
p3406
I9
sS'Kripabandhu Ghosh'
p3407
I2
sS'Nuria Oliver'
p3408
I2
sS'Xin Jiang'
p3409
I1
sS'Matthias Gall\xc3\xa9'
p3410
I1
sS'Konstantine Arkoudas'
p3411
I1
sS'Chun Ming Chin'
p3412
I1
sS'Hongkuk An'
p3413
I1
sS'Hongbin Zha'
p3414
I1
sS'Danielle L. Booth'
p3415
I1
sS'Anirban Dasgupta 0001'
p3416
I1
sS'Robert Gwadera'
p3417
I1
sS'Zhisheng Li'
p3418
I2
sS'Max L. Wilson'
p3419
I2
sS'Zornitsa Kozareva'
p3420
I1
sS'Jianzhong Li'
p3421
I1
sS'Jun Chen'
p3422
I1
sS'Takeshi Okadome'
p3423
I2
sS'Alok N. Choudhary'
p3424
I1
sS'Peichao Zhang'
p3425
I1
sS'Ferhan T\xc3\xbcre'
p3426
I4
sS'Rajesh Shenoy'
p3427
I1
sS'Edward Snelson'
p3428
I1
sS'Tim Hanratty'
p3429
I1
sS'Claudio Gentile'
p3430
I1
sS'Riddhiman Ghosh'
p3431
I1
sS'David Konopnicki'
p3432
I2
sS'Qianli Xing'
p3433
I1
sS'Gordon V. Cormack'
p3434
I18
sS'Deshun Yang'
p3435
I1
sS'Walid Magdy'
p3436
I3
sS'Milad Shokouhi'
p3437
I21
sS'Li Xiong 0001'
p3438
I1
sS'Nut Limsopatham'
p3439
I5
sS'A. Kumaran 0001'
p3440
I3
sS'Shingo Ono'
p3441
I1
sS'Wonjoo Park'
p3442
I1
sS'Yukun Zhao'
p3443
I1
sS'Satoshi Nakamura'
p3444
I1
sS'Shlomo Geva'
p3445
I4
sS'Dingding Wang 0001'
p3446
I8
sS'Qin Chen'
p3447
I2
sS'Jun Wang 0032'
p3448
I1
sS'Fethi Burak Sazoglu'
p3449
I1
sS'Mihaela Curmei'
p3450
I1
sS'Conny Junghans'
p3451
I1
sS'Yadong Mu'
p3452
I1
sS'Meng Chang Chen'
p3453
I1
sS'Massih-Reza Amini'
p3454
I11
sS'Sandra Carberry'
p3455
I1
sS'Michael Matthews'
p3456
I1
sS'Thierson Couto Rosa'
p3457
I1
sS'Sang-Jo Lee'
p3458
I1
sS'Simone Milesi'
p3459
I1
sS'Jian Huang 0002'
p3460
I2
sS'Wee Sun Lee'
p3461
I1
sS'Chun-Che Wu'
p3462
I1
sS'Giacomo Berardi'
p3463
I2
sS'Dhruv Arya'
p3464
I4
sS'Eric SanJuan'
p3465
I1
sS'Matthew Stagitis'
p3466
I1
sS'Wei Zhang 0058'
p3467
I1
sS'Wei Peng'
p3468
I1
sS'Matthew W. Bilotti'
p3469
I1
sS'Xuchen Zhang'
p3470
I1
sS'Keith B. Hall'
p3471
I2
sS'Benno Stein'
p3472
I11
sS'Giuseppe Boccignone'
p3473
I1
sS'Edward Bortnikov'
p3474
I1
sS'Manuel J. A. Eugster'
p3475
I2
sS'Woosang Song'
p3476
I1
sS'Andrei Z. Broder'
p3477
I6
sS'Sun-Joong Kim'
p3478
I1
sS'Johannes Sch\xc3\xb6ning'
p3479
I1
sS'Amac Herdagdelen'
p3480
I1
sS'Jianwu Yang'
p3481
I2
sS'Stefan Raue'
p3482
I1
sS'Yoichi Inagaki'
p3483
I1
sS'Siamak Barzegar'
p3484
I1
sS'Seyed M. M. Tahaghoghi'
p3485
I2
sS'Chunqiang Tang'
p3486
I1
sS'Carlos Castillo 0001'
p3487
I4
sS'Anish Nair'
p3488
I1
sS'Ning Zhong 0001'
p3489
I1
sS'Bhaskar Mehta'
p3490
I1
sS'Olga Vechtomova'
p3491
I2
sS'Rossano Venturini'
p3492
I9
sS'Neema Moraveji'
p3493
I2
sS'Tayze Mackenzie'
p3494
I1
sS'Shafiq Alam'
p3495
I1
sS'Liu Yang'
p3496
I2
sS'Maya Barnea'
p3497
I1
sS'Aristides Gionis'
p3498
I4
sS'Aya Soffer'
p3499
I1
sS'Jiashu Zhao'
p3500
I4
sS'Chirag Shah'
p3501
I13
sS'R. Manmatha'
p3502
I3
sS'Hua Wu'
p3503
I1
sS'Weizheng Gao'
p3504
I1
sS'Giorgio Maria Di Nunzio'
p3505
I3
sS'Benyah Shaparenko'
p3506
I1
sS'Yi Tay'
p3507
I2
sS'Eneko Agirre'
p3508
I1
sS'David Keeler'
p3509
I1
sS'Dayong Wang'
p3510
I2
sS'Lauren Turpin'
p3511
I1
sS'Sergey Nepomnyachiy'
p3512
I1
sS'Sergej Zerr'
p3513
I3
sS'Murad Abouammoh'
p3514
I1
sS'Betsy van Dijk'
p3515
I1
sS'Julia Kiseleva'
p3516
I6
sS'Xiangyu Zhang'
p3517
I1
sS'Xiaolin Shi'
p3518
I1
sS'Kevin Hsin-Yih Lin'
p3519
I2
sS'Jinjian Zhang'
p3520
I1
sS'Dongqing Zhu'
p3521
I1
sS'Weizhu Chen'
p3522
I2
sS'Ioannis Arapakis'
p3523
I7
sS'Yanyan Lan'
p3524
I10
sS'Vivek Gokuladas'
p3525
I1
sS'Richard Glassey'
p3526
I5
sS'Xuemin Lin'
p3527
I5
sS'Eemil Lagerspetz'
p3528
I1
sS'Subramaniam Ganapathy'
p3529
I1
sS'Michael Huggett'
p3530
I4
sS'John R. Smith'
p3531
I1
sS'Kalika Bali'
p3532
I1
sS'Wei Jin'
p3533
I1
sS'Sukanya Mitra'
p3534
I1
sS'Janne P. Hukkinen'
p3535
I1
sS'Neal Lathia'
p3536
I3
sS'Nima Asadi 0001'
p3537
I3
sS'Judit Bar-Ilan'
p3538
I1
sS'Mattan Winaver'
p3539
I1
sS'Roger Wechsler'
p3540
I1
sS'Yu Hong'
p3541
I1
sS'Jonathan Siddharth'
p3542
I1
sS'Victor Makarenkov'
p3543
I1
sS'Alberto H. F. Laender'
p3544
I1
sS'Nadia Magnenat-Thalmann'
p3545
I2
sS'Wei-Cheng Chang'
p3546
I1
sS'Sanjeev Khudanpur'
p3547
I1
sS'Nathan Nan Liu'
p3548
I1
sS'Pengyu Sun'
p3549
I1
sS'Chenyan Xiong'
p3550
I5
sS'Iryna Gurevych'
p3551
I1
sS'Pooya Moradi'
p3552
I1
sS'Liudmila Ostroumova'
p3553
I1
sS'Hua-Jun Zeng'
p3554
I1
sS'Pierre Hanna'
p3555
I2
sS'Shunyao Wu'
p3556
I1
sS'Xin Fu'
p3557
I2
sS'Karl Aberer'
p3558
I5
sS'Qiang Yang 0001'
p3559
I6
sS'Shuang-Hong Yang'
p3560
I4
sS'Shuo Zhang'
p3561
I2
sS'Maarten M. Fokkinga'
p3562
I1
sS'Hongshuai Dai'
p3563
I1
sS'Duo Zhang'
p3564
I1
sS'Priya Radhakrishnan'
p3565
I1
sS'Haibing Huang'
p3566
I1
sS'Guoliang He'
p3567
I1
sS'Linkai Weng'
p3568
I1
sS'Simon Tretter'
p3569
I1
sS'Wei Jiang'
p3570
I1
sS'Fan Zhang'
p3571
I2
sS'Debasis Ganguly'
p3572
I5
sS'Lihong Wang'
p3573
I2
sS'Zhen Guo'
p3574
I1
sS'Philip James McParlane'
p3575
I2
sS'Yanshan Lu'
p3576
I1
sS'Sven Helmer'
p3577
I1
sS'Aleksandr Farseev'
p3578
I1
sS'Gabriella Kazai'
p3579
I6
sS'Anastasia Krithara'
p3580
I1
sS'Hsun-Ping Hsieh'
p3581
I1
sS'Jorge L\xc3\xb3pez-Castro'
p3582
I1
sS'Junghoo Cho'
p3583
I4
sS'Carla Groenland'
p3584
I1
sS'Nedim Lipka'
p3585
I3
sS'Peter Brusilovsky'
p3586
I1
sS'Holger Schwarz'
p3587
I1
sS'Wanli Min'
p3588
I1
sS'Yi Fang'
p3589
I10
sS'Xiaoyang Wang 0002'
p3590
I1
sS'Alexander Boldakov'
p3591
I1
sS'Jianke Zhu'
p3592
I1
sS'Fei Sun'
p3593
I1
sS'Samaresh Maiti'
p3594
I1
sS'Rodney Hill'
p3595
I1
sS'Mingsheng Long'
p3596
I1
sS'Qin Lu'
p3597
I3
sS'Bouke Huurnink'
p3598
I1
sS'Preben Hansen'
p3599
I2
sS'Gabriel Murray'
p3600
I1
sS'Anja Rathgeber'
p3601
I1
sS'Min Lu'
p3602
I1
sS'Alberto Barr\xc3\xb3n-Cede\xc3\xb1o'
p3603
I3
sS'Yanxiang He'
p3604
I1
sS'Dale Visser'
p3605
I1
sS'Liwei Chen'
p3606
I2
sS'Huidi Fang'
p3607
I1
sS'Junwu Du'
p3608
I1
sS'Neel Sundaresan'
p3609
I1
sS'Fei Huang'
p3610
I2
sS'Junming Huang'
p3611
I1
sS'Salvatore Orlando 0001'
p3612
I6
sS'Wei Chu'
p3613
I3
sS'Thomas Chang'
p3614
I1
sS'Vinod Chandran'
p3615
I1
sS'Vitor Mangaravite'
p3616
I2
sS'Amruta Joshi'
p3617
I1
sS'Kathrin Knautz'
p3618
I1
sS'Tae-Gil Noh'
p3619
I1
sS'Wan Chen'
p3620
I1
sS'Isaac Sijaranamual'
p3621
I1
sS'Yan Zhang 0004'
p3622
I1
sS'Cong-Nguyen Tran'
p3623
I1
sS'Roman Kern'
p3624
I1
sS'Cristian Rossi'
p3625
I1
sS'K. Tamsin Maxwell'
p3626
I1
sS'Jie Luo'
p3627
I1
sS'Avi Arampatzis'
p3628
I6
sS'David van Dijk'
p3629
I2
sS'Abhishek Gupta'
p3630
I1
sS'Mario Cataldi'
p3631
I1
sS'Wagner Meira Jr.'
p3632
I4
sS'Xing Li'
p3633
I2
sS'Salvatore Rinzivillo'
p3634
I1
sS'Eduarda Mendes Rodrigues'
p3635
I1
sS'Karrie Karahalios'
p3636
I1
sS'Rui M. Jesus'
p3637
I1
sS'Aibo Tian'
p3638
I1
sS'Wolfgang Nejdl'
p3639
I11
sS'Leif Azzopardi'
p3640
I41
sS"Neil O'Hare"
p3641
I2
sS'Li Zhang'
p3642
I1
sS'Hongfei Yan'
p3643
I1
sS'Haokai Lu'
p3644
I1
sS'Maxim Zhukovskiy'
p3645
I1
sS'Toan Luu'
p3646
I1
sS'Daniel Honbo'
p3647
I1
sS'Tim Gollub'
p3648
I2
sS'Yilong Yin'
p3649
I1
sS'Alejandro L\xc3\xb3pez-Ortiz'
p3650
I1
sS'Jaime Teevan'
p3651
I11
sS'Abdou S. Youssef'
p3652
I1
sS'Andrei Oghina'
p3653
I1
sS'Tok Wang Ling'
p3654
I1
sS'Joel Mackenzie'
p3655
I1
sS'Douglas Turnbull'
p3656
I3
sS'Ngoc Tran Lam'
p3657
I1
sS'Yuchen Guo'
p3658
I1
sS'Feimin Zhong'
p3659
I1
sS'Xiao Shen'
p3660
I1
sS'Juanzi Li'
p3661
I1
sS'Rishabh Mehrotra'
p3662
I5
sS'Yingwei Pan'
p3663
I4
sS'Chengxiang Zhai'
p3664
I1
sS'Anne H. H. Ngu'
p3665
I2
sS'Jian Shao'
p3666
I1
sS'Joost van Doorn'
p3667
I2
sS'Sukomal Pal'
p3668
I1
sS'Peipei Li'
p3669
I1
sS'Huibo Liu'
p3670
I1
sS'Edisson Braga Ara\xc3\xbajo'
p3671
I1
sS'Gildas M\xc3\xa9nier'
p3672
I1
sS'Christoph Trattner'
p3673
I2
sS'Si Li 0001'
p3674
I1
sS'Lucas Bernardi'
p3675
I1
sS'Saar Kuzi'
p3676
I1
sS'Evi Yulianti'
p3677
I2
sS'Mong-Li Lee'
p3678
I4
sS'Mingxuan Yuan'
p3679
I1
sS'Volker Markl'
p3680
I2
sS'Qiankun Zhao'
p3681
I1
sS'Paul J. Bracke'
p3682
I1
sS'Eugene Kharitonov'
p3683
I5
sS'Ismail Seng\xc3\xb6r Alting\xc3\xb6vde'
p3684
I7
sS'Jason Baldridge'
p3685
I1
sS'Elif Aktolga'
p3686
I3
sS'Giuseppe Amato'
p3687
I1
sS'Sivan Yogev'
p3688
I1
sS'Yu-Heng Lei'
p3689
I1
sS'Hong Gao'
p3690
I1
sS'Udo Kruschwitz'
p3691
I2
sS'Zhou Zhao'
p3692
I3
sS'Xiaoling Gu'
p3693
I1
sS'Navid Rekabsaz'
p3694
I2
sS'Xuan Zhou 0001'
p3695
I2
sS'Bo Jiang'
p3696
I1
sS'C. Lee Giles'
p3697
I3
sS'Nguyen Thanh Tam'
p3698
I1
sS'Edward A. Fox'
p3699
I1
sS'Yihong Gong'
p3700
I4
sS'Li Yu'
p3701
I1
sS'Xiaojun Wan 0001'
p3702
I10
sS'Kunal Punera'
p3703
I2
sS'Xiaohua Liu'
p3704
I1
sS'Matthew Lease'
p3705
I9
sS'Wilfred Ng'
p3706
I3
sS'Anna Cinzia Squicciarini'
p3707
I1
sS'Jing Chen'
p3708
I1
sS'Gang Yang'
p3709
I1
sS'Fabian Kaiser'
p3710
I1
sS'Michael Bendersky'
p3711
I9
sS'Bich-Li\xc3\xaan Doan'
p3712
I1
sS'Ming-Feng Tsai'
p3713
I3
sS'Yaduo Liu'
p3714
I2
sS'Chih-Wei Wu'
p3715
I1
sS'Martin Hacker'
p3716
I1
sS'Seung-Hoon Na'
p3717
I3
sS'Alexey Drutsa'
p3718
I1
sS'Yannis Tzitzikas'
p3719
I1
sS'Tan Xu'
p3720
I1
sS'Siyu Gu'
p3721
I1
sS'Hyungdong Lee'
p3722
I1
sS'Davide Buscaldi'
p3723
I1
sS'Yunan Ye'
p3724
I1
sS'Fang Zhou'
p3725
I1
sS'Xiao-Jie Wang'
p3726
I1
sS'Hidetoshi Yokoo'
p3727
I1
sS'Xiaoshi Yin'
p3728
I2
sS'Lichun Yang'
p3729
I1
sS'Shengli Wu'
p3730
I1
sS'Yang Liu 0008'
p3731
I3
sS'Chih-Hung Hsieh'
p3732
I1
sS'Xiaofei He'
p3733
I5
sS'Xiaoguang Liu'
p3734
I3
sS'Jian Pei'
p3735
I4
sS'Xiangji Huang'
p3736
I7
sS'Avinash Kumar'
p3737
I1
sS'Gianluca Demartini'
p3738
I3
sS'Pedro Saleiro'
p3739
I1
sS'Isabelle Stanton'
p3740
I1
sS'Eyad Elyan'
p3741
I1
sS'Myles Doolan'
p3742
I1
sS'J. Stephen Downie'
p3743
I2
sS'Peng Cai'
p3744
I2
sS'Ioannis Konstas'
p3745
I2
sS'David D. Jensen'
p3746
I2
sS'Cheng-Te Li'
p3747
I2
sS'Berkant Barla Cambazoglu'
p3748
I15
sS'Shoaib Jameel'
p3749
I3
sS'Niels Dalum Hansen'
p3750
I2
sS'Philippe Cudr\xc3\xa9-Mauroux'
p3751
I2
sS'Haejun Lee'
p3752
I1
sS'Gilad Kutiel'
p3753
I1
sS'Ziv Bar-Yossef'
p3754
I1
sS'Xinruo Sun'
p3755
I2
sS'Yuan Fang'
p3756
I1
sS'Ivan Bogatyy'
p3757
I1
sS'Vineet Kumar'
p3758
I1
sS'Marc Sloan'
p3759
I1
sS'Pengfei Zhao'
p3760
I1
sS'Bart Thomee'
p3761
I1
sS'Lidia Grauer'
p3762
I2
sS'Yury Logachev'
p3763
I1
sS'Ernesto Damiani'
p3764
I1
sS'Surya Kallumadi'
p3765
I1
sS'Joseph Johnson'
p3766
I1
sS'Simson L. Garfinkel'
p3767
I1
s.